(lp0
I0
a(lp1
(lp2
I0
a(lp3
(lp4
F0.0
aI36
aI104
aI3
aS'on'
p5
aa(lp6
F0.20304781530649
aI36
aI0
aI3
aS'off'
p7
aa(lp8
F1.7969521846935
aI38
aI103
aI3
aS'on'
p9
aa(lp10
F0.14133252796046
aI38
aI0
aI3
aS'off'
p11
aa(lp12
F1.3586674720395
aI36
aI98
aI3
aS'on'
p13
aa(lp14
F0.25108221042319
aI36
aI0
aI3
aS'off'
p15
aa(lp16
F0.74891778957681
aI36
aI98
aI3
aS'on'
p17
aa(lp18
F0.22132756376004
aI36
aI0
aI3
aS'off'
p19
aa(lp20
F1.27867243624
aI38
aI107
aI3
aS'on'
p21
aa(lp22
F0.15591072059033
aI38
aI0
aI3
aS'off'
p23
aa(lp24
F0.84408927940967
aI0
aI0
aI0
aS'timeAfterLastHit'
p25
aaa(lp26
(lp27
F3.0
aI44
aI103
aI3
aS'on'
p28
aa(lp29
F3.5655294282296
aI44
aI0
aI3
aS'off'
p30
aa(lp31
F0.43447057177036
aI0
aI0
aI0
aS'timeAfterLastHit'
p32
aaa(lp33
(lp34
F2.0
aI44
aI114
aI3
aS'on'
p35
aa(lp36
F4.1240452372781
aI44
aI0
aI3
aS'off'
p37
aa(lp38
F0.8759547627219
aI0
aI0
aI0
aS'timeAfterLastHit'
p39
aaaI0
aI0
aI0
aI0
aI0
a(lp40
(lp41
F0.0
aI44
aI104
aI3
aS'on'
p42
aa(lp43
F0.9116189284232
aI44
aI0
aI3
aS'off'
p44
aa(lp45
F1.0883810715768
aI44
aI99
aI3
aS'on'
p46
aa(lp47
F1.1634591194188
aI44
aI0
aI3
aS'off'
p48
aa(lp49
F0.8365408805812
aI44
aI106
aI3
aS'on'
p50
aa(lp51
F0.97339567235667
aI44
aI0
aI3
aS'off'
p52
aa(lp53
F1.0266043276433
aI44
aI105
aI3
aS'on'
p54
aa(lp55
F1.1169700352393
aI44
aI0
aI3
aS'off'
p56
aa(lp57
F0.88302996476068
aI0
aI0
aI0
aS'timeAfterLastHit'
p58
aaaI0
aI0
aI0
aI0
aI0
aI0
aI0
a(lp59
(lp60
F0.0129009306429
aI67
aI73
aI1
aS'on'
p61
aa(lp62
F0.011105751991636
aI63
aI64
aI1
aS'on'
p63
aa(lp64
F-0.014415470036056
aI60
aI40
aI1
aS'on'
p65
aa(lp66
F0.33181076261917
aI67
aI0
aI1
aS'off'
p67
aa(lp68
F0.0003306046128273
aI60
aI0
aI1
aS'off'
p69
aa(lp70
F0.04499756917312
aI63
aI0
aI1
aS'off'
p71
aa(lp72
F1.6828876571094
aI67
aI81
aI1
aS'on'
p73
aa(lp74
F0.00037282538551153
aI63
aI58
aI1
aS'on'
p75
aa(lp76
F0.013887883153075
aI60
aI64
aI1
aS'on'
p77
aa(lp78
F0.28240618723339
aI63
aI0
aI1
aS'off'
p79
aa(lp80
F0.09330637074936
aI60
aI0
aI1
aS'off'
p81
aa(lp82
F0.031449517689907
aI67
aI0
aI1
aS'off'
p83
aa(lp84
F0.97681825178461
aI63
aI84
aI1
aS'on'
p85
aa(lp86
F0.015595577051499
aI60
aI82
aI1
aS'on'
p87
aa(lp88
F0.031732715257021
aI67
aI50
aI1
aS'on'
p89
aa(lp90
F0.078164810563521
aI67
aI0
aI1
aS'off'
p91
aa(lp92
F0.1888152419242
aI60
aI0
aI1
aS'off'
p93
aa(lp94
F0.14257219453884
aI63
aI0
aI1
aS'off'
p95
aa(lp96
F0.53322704858101
aI63
aI65
aI1
aS'on'
p97
aa(lp98
F0.015825943783966
aI60
aI91
aI1
aS'on'
p99
aa(lp100
F0.00018873223507399
aI55
aI53
aI1
aS'on'
p101
aa(lp102
F0.45603582022568
aI60
aI0
aI1
aS'off'
p103
aa(lp104
F0.015997704127585
aI55
aI0
aI1
aS'off'
p105
aa(lp106
F0.015189249845662
aI63
aI0
aI1
aS'off'
p107
aa(lp108
F1.0078635408308
aI55
aI13
aI1
aS'on'
p109
aa(lp110
F0.01518585847316
aI63
aI1
aI1
aS'on'
p111
aa(lp112
F0.060841543149309
aI60
aI74
aI1
aS'on'
p113
aa(lp114
F0.47230950323046
aI60
aI0
aI1
aS'off'
p115
aa(lp116
F0.015067376938077
aI55
aI0
aI1
aS'off'
p117
aa(lp118
F0.031592854251357
aI63
aI0
aI1
aS'off'
p119
aa(lp120
F0.43593544288387
aI0
aI0
aI0
aS'timeAfterLastHit'
p121
aaaI0
aI0
aI0
aI0
aI0
aI0
aI0
a(lp122
(lp123
F0.067105572834407
aI34
aI101
aI2
aS'on'
p124
aa(lp125
F0.45643342547464
aI36
aI103
aI2
aS'on'
p126
aa(lp127
F0.18850037050925
aI34
aI0
aI2
aS'off'
p128
aa(lp129
F0.2822919208611
aI36
aI0
aI2
aS'off'
p130
aa(lp131
F0.99232452572414
aI39
aI99
aI2
aS'on'
p132
aa(lp133
F0.48757961684441
aI41
aI107
aI2
aS'on'
p134
aa(lp135
F0.18821688431399
aI39
aI0
aI2
aS'off'
p136
aa(lp137
F0.17348659708568
aI41
aI0
aI2
aS'off'
p138
aa(lp139
F3.2239831110937
aI46
aI100
aI2
aS'on'
p140
aa(lp141
F0.91118872331754
aI48
aI108
aI2
aS'on'
p142
aa(lp143
F0.17355362778471
aI46
aI0
aI2
aS'off'
p144
aa(lp145
F0.42531632233113
aI48
aI0
aI2
aS'off'
p146
aa(lp147
F3.378963600705
aI46
aI96
aI2
aS'on'
p148
aa(lp149
F0.94046935364167
aI43
aI118
aI2
aS'on'
p150
aa(lp151
F0.080243655208506
aI46
aI0
aI2
aS'off'
p152
aa(lp153
F0.4875512922772
aI43
aI0
aI2
aS'off'
p154
aa(lp155
F1.5427913999929
aI0
aI0
aI0
aS'timeAfterLastHit'
p156
aaaI0
aI0
aI0
aI0
aI0
aI0
aI0
aI0
aI0
aI0
aI0
aI0
aI0
aI0
aI0
aI0
aI0
aI0
aI0
aI0
aI0
aI0
aI0
aI0
aI0
aI0
aI0
aI0
aI0
aI0
aI0
aI0
aI0
aI0
aI0
aI0
aI0
aI0
aI0
aI0
aI0
aI0
aI0
aI0
aI0
aI0
aI0
aI0
aI0
aI0
aI0
aI0
aI0
aI0
aI0
aI0
aI0
aI0
aI0
aI0
aI0
aI0
aI0
aI0
aI0
aI0
aI0
aI0
aI0
aI0
aI0
aI0
aI0
aI0
aa(lp157
(dp158
a(dp159
S'button'
p160
I31
sS'playing'
p161
I1
sa(dp162
g160
I32
sg161
I0
sa(dp163
g160
I33
sg161
I0
sa(dp164
a(dp165
a(dp166
a(dp167
a(dp168
a(dp169
g160
I41
sg161
I1
sa(dp170
a(dp171
a(dp172
a(dp173
a(dp174
a(dp175
a(dp176
a(dp177
g160
I51
sg161
I1
sa(dp178
a(dp179
a(dp180
a(dp181
a(dp182
a(dp183
a(dp184
a(dp185
g160
I61
sg161
I01
sa(dp186
a(dp187
a(dp188
a(dp189
a(dp190
a(dp191
a(dp192
a(dp193
a(dp194
a(dp195
a(dp196
a(dp197
a(dp198
a(dp199
a(dp200
a(dp201
a(dp202
a(dp203
a(dp204
a(dp205
a(dp206
a(dp207
a(dp208
a(dp209
a(dp210
a(dp211
a(dp212
a(dp213
a(dp214
a(dp215
a(dp216
a(dp217
a(dp218
a(dp219
a(dp220
a(dp221
a(dp222
a(dp223
a(dp224
a(dp225
a(dp226
a(dp227
a(dp228
a(dp229
a(dp230
a(dp231
a(dp232
a(dp233
a(dp234
a(dp235
a(dp236
a(dp237
a(dp238
a(dp239
a(dp240
a(dp241
a(dp242
a(dp243
a(dp244
a(dp245
a(dp246
a(dp247
a(dp248
a(dp249
a(dp250
a(dp251
a(dp252
a(dp253
a(dp254
a(dp255
a(dp256
a(dp257
a(dp258
a(dp259
aa(lp260
I60
aI60
aI36
aI36
aa(lp261
(lp262
I0
aI2
aI3
aI5
aI7
aI8
aI10
aa(lp263
I0
aI2
aI3
aI5
aI7
aI8
aI10
aa(lp264
I0
aI2
aI3
aI5
aI7
aI8
aI10
aa(lp265
I0
aI2
aI3
aI5
aI7
aI8
aI10
aa(lp266
I0
aI2
aI3
aI5
aI7
aI8
aI10
aa(lp267
I0
aI1
aI2
aI3
aI4
aI5
aI6
aI7
aI8
aI9
aI10
aI11
aaa(lp268
(lp269
(lp270
I0
aI0
aI0
aI0
aI0
aI0
aI0
aI0
aI0
aI0
aI0
aI0
aa(lp271
I0
aI0
aI0
aI0
aI0
aI0
aI0
aI0
aI0
aI0
aI0
aI0
aa(lp272
I0
aI0
aI0
aI0
aI0
aI0
aI0
aI0
aI0
aI0
aI0
aI0
aa(lp273
I0
aI0
aI0
aI0
aI0
aI0
aI0
aI0
aI0
aI0
aI0
aI0
aaa(lp274
(lp275
I0
aI0
aI0
aI0
aI0
aI0
aI0
aI0
aI0
aI0
aI0
aI0
aa(lp276
I0
aI0
aI0
aI0
aI0
aI0
aI0
aI0
aI0
aI0
aI0
aI0
aa(lp277
I0
aI0
aI0
aI0
aI0
aI0
aI0
aI0
aI0
aI0
aI0
aI0
aa(lp278
I0
aI0
aI0
aI0
aI0
aI0
aI0
aI0
aI0
aI0
aI0
aI0
aaa(lp279
(lp280
I0
aI0
aI0
aI0
aI0
aI0
aI0
aI0
aI0
aI0
aI0
aI0
aa(lp281
I0
aI0
aI0
aI0
aI0
aI0
aI0
aI0
aI0
aI0
aI0
aI0
aa(lp282
I0
aI0
aI0
aI0
aI0
aI0
aI0
aI0
aI0
aI0
aI0
aI0
aa(lp283
I0
aI0
aI0
aI0
aI0
aI0
aI0
aI0
aI0
aI0
aI0
aI0
aaa(lp284
(lp285
I0
aI0
aI0
aI0
aI0
aI0
aI0
aI0
aI0
aI0
aI0
aI0
aa(lp286
I0
aI0
aI0
aI0
aI0
aI0
aI0
aI0
aI0
aI0
aI0
aI0
aa(lp287
I0
aI0
aI0
aI0
aI0
aI0
aI0
aI0
aI0
aI0
aI0
aI0
aa(lp288
I0
aI0
aI0
aI0
aI0
aI0
aI0
aI0
aI0
aI0
aI0
aI0
aaaa(lp289
(lp290
I0
aI0
aI0
aI0
aI0
aI0
aI0
aI0
aI0
aI0
aI0
aI0
aa(lp291
I0
aI0
aI0
aI0
aI0
aI0
aI0
aI0
aI0
aI0
aI0
aI0
aa(lp292
I0
aI0
aI0
aI0
aI0
aI0
aI0
aI0
aI0
aI0
aI0
aI0
aa(lp293
I0
aI0
aI0
aI0
aI0
aI0
aI0
aI0
aI0
aI0
aI0
aI0
aaaa(lp294
(lp295
I0
a(lp296
(lp297
F0.0
aI36
aI104
aI3
ag5
aa(lp298
F0.20304781530649
aI36
aI0
aI3
ag7
aa(lp299
F1.7969521846935
aI38
aI103
aI3
ag9
aa(lp300
F0.14133252796046
aI38
aI0
aI3
ag11
aa(lp301
F1.3586674720395
aI36
aI98
aI3
ag13
aa(lp302
F0.25108221042319
aI36
aI0
aI3
ag15
aa(lp303
F0.74891778957681
aI36
aI98
aI3
ag17
aa(lp304
F0.22132756376004
aI36
aI0
aI3
ag19
aa(lp305
F1.27867243624
aI38
aI107
aI3
ag21
aa(lp306
F0.15591072059033
aI38
aI0
aI3
ag23
aa(lp307
F0.84408927940967
aI0
aI0
aI0
ag25
aaa(lp308
(lp309
F0.0
aI48
aI81
aI3
aS'on'
p310
aa(lp311
F0.078386695859081
aI48
aI0
aI3
aS'off'
p312
aa(lp313
F0.92161330414092
aI48
aI108
aI3
aS'on'
p314
aa(lp315
F0.22083891461807
aI48
aI0
aI3
aS'off'
p316
aa(lp317
F0.77916108538193
aI0
aI0
aI0
aS'timeAfterLastHit'
p318
aaa(lp319
(lp320
F0.0
aI48
aI79
aI3
aS'on'
p321
aa(lp322
F0.18987179849137
aI48
aI0
aI3
aS'off'
p323
aa(lp324
F0.81012820150863
aI48
aI22
aI3
aS'on'
p325
aa(lp326
F0.15648949964452
aI48
aI0
aI3
aS'off'
p327
aa(lp328
F0.84351050035548
aI48
aI124
aI3
aS'on'
p329
aa(lp330
F0.28167675070654
aI48
aI0
aI3
aS'off'
p331
aa(lp332
F0.71832324929346
aI0
aI0
aI0
aS'timeAfterLastHit'
p333
aaa(lp334
(lp335
F0.0
aI49
aI125
aI3
aS'on'
p336
aa(lp337
F0.20463433982877
aI49
aI0
aI3
aS'off'
p338
aa(lp339
F0.79536566017123
aI0
aI0
aI0
aS'timeAfterLastHit'
p340
aaa(lp341
(lp342
F0.0
aI49
aI65
aI3
aS'on'
p343
aa(lp344
F0.61195298784151
aI49
aI0
aI3
aS'off'
p345
aa(lp346
F0.38804701215849
aI0
aI0
aI0
aS'timeAfterLastHit'
p347
aaaI0
aI0
aI0
a(lp348
(lp349
F0.0
aI44
aI104
aI3
ag42
aa(lp350
F0.9116189284232
aI44
aI0
aI3
ag44
aa(lp351
F1.0883810715768
aI44
aI99
aI3
ag46
aa(lp352
F1.1634591194188
aI44
aI0
aI3
ag48
aa(lp353
F0.8365408805812
aI44
aI106
aI3
ag50
aa(lp354
F0.97339567235667
aI44
aI0
aI3
ag52
aa(lp355
F1.0266043276433
aI44
aI105
aI3
ag54
aa(lp356
F1.1169700352393
aI44
aI0
aI3
ag56
aa(lp357
F0.88302996476068
aI0
aI0
aI0
ag58
aaaI0
aI0
aI0
aI0
aI0
aI0
aI0
a(lp358
(lp359
F0.0129009306429
aI67
aI73
aI1
ag61
aa(lp360
F0.011105751991636
aI63
aI64
aI1
ag63
aa(lp361
F-0.014415470036056
aI60
aI40
aI1
ag65
aa(lp362
F0.33181076261917
aI67
aI0
aI1
ag67
aa(lp363
F0.0003306046128273
aI60
aI0
aI1
ag69
aa(lp364
F0.04499756917312
aI63
aI0
aI1
ag71
aa(lp365
F1.6828876571094
aI67
aI81
aI1
ag73
aa(lp366
F0.00037282538551153
aI63
aI58
aI1
ag75
aa(lp367
F0.013887883153075
aI60
aI64
aI1
ag77
aa(lp368
F0.28240618723339
aI63
aI0
aI1
ag79
aa(lp369
F0.09330637074936
aI60
aI0
aI1
ag81
aa(lp370
F0.031449517689907
aI67
aI0
aI1
ag83
aa(lp371
F0.97681825178461
aI63
aI84
aI1
ag85
aa(lp372
F0.015595577051499
aI60
aI82
aI1
ag87
aa(lp373
F0.031732715257021
aI67
aI50
aI1
ag89
aa(lp374
F0.078164810563521
aI67
aI0
aI1
ag91
aa(lp375
F0.1888152419242
aI60
aI0
aI1
ag93
aa(lp376
F0.14257219453884
aI63
aI0
aI1
ag95
aa(lp377
F0.53322704858101
aI63
aI65
aI1
ag97
aa(lp378
F0.015825943783966
aI60
aI91
aI1
ag99
aa(lp379
F0.00018873223507399
aI55
aI53
aI1
ag101
aa(lp380
F0.45603582022568
aI60
aI0
aI1
ag103
aa(lp381
F0.015997704127585
aI55
aI0
aI1
ag105
aa(lp382
F0.015189249845662
aI63
aI0
aI1
ag107
aa(lp383
F1.0078635408308
aI55
aI13
aI1
ag109
aa(lp384
F0.01518585847316
aI63
aI1
aI1
ag111
aa(lp385
F0.060841543149309
aI60
aI74
aI1
ag113
aa(lp386
F0.47230950323046
aI60
aI0
aI1
ag115
aa(lp387
F0.015067376938077
aI55
aI0
aI1
ag117
aa(lp388
F0.031592854251357
aI63
aI0
aI1
ag119
aa(lp389
F0.43593544288387
aI0
aI0
aI0
ag121
aaa(lp390
(lp391
F0.0
aI65
aI82
aI1
aS'on'
p392
aa(lp393
F0.079881875830324
aI65
aI0
aI1
aS'off'
p394
aa(lp395
F1.9201181241697
aI67
aI93
aI1
aS'on'
p396
aa(lp397
F0.078257619294163
aI67
aI0
aI1
aS'off'
p398
aa(lp399
F1.9217423807058
aI70
aI102
aI1
aS'on'
p400
aa(lp401
F0.079280854432
aI70
aI0
aI1
aS'off'
p402
aa(lp403
F1.920719145568
aI72
aI86
aI1
aS'on'
p404
aa(lp405
F0.078215693160018
aI72
aI0
aI1
aS'off'
p406
aa(lp407
F1.92178430684
aI75
aI98
aI1
aS'on'
p408
aa(lp409
F0.07792984984917
aI75
aI0
aI1
aS'off'
p410
aa(lp411
F2.9220701501508
aI77
aI95
aI1
aS'on'
p412
aa(lp413
F0.079151606496453
aI77
aI0
aI1
aS'off'
p414
aa(lp415
F0.92084839350355
aI75
aI92
aI1
aS'on'
p416
aa(lp417
F0.077992773618462
aI75
aI0
aI1
aS'off'
p418
aa(lp419
F0.92200722638154
aI72
aI86
aI1
aS'on'
p420
aa(lp421
F0.078642362586834
aI72
aI0
aI1
aS'off'
p422
aa(lp423
F0.92135763741317
aI0
aI0
aI0
aS'timeAfterLastHit'
p424
aaaI0
aI0
aI0
aI0
aI0
aI0
a(lp425
(lp426
F0.067105572834407
aI34
aI101
aI2
ag124
aa(lp427
F0.45643342547464
aI36
aI103
aI2
ag126
aa(lp428
F0.18850037050925
aI34
aI0
aI2
ag128
aa(lp429
F0.2822919208611
aI36
aI0
aI2
ag130
aa(lp430
F0.99232452572414
aI39
aI99
aI2
ag132
aa(lp431
F0.48757961684441
aI41
aI107
aI2
ag134
aa(lp432
F0.18821688431399
aI39
aI0
aI2
ag136
aa(lp433
F0.17348659708568
aI41
aI0
aI2
ag138
aa(lp434
F3.2239831110937
aI46
aI100
aI2
ag140
aa(lp435
F0.91118872331754
aI48
aI108
aI2
ag142
aa(lp436
F0.17355362778471
aI46
aI0
aI2
ag144
aa(lp437
F0.42531632233113
aI48
aI0
aI2
ag146
aa(lp438
F3.378963600705
aI46
aI96
aI2
ag148
aa(lp439
F0.94046935364167
aI43
aI118
aI2
ag150
aa(lp440
F0.080243655208506
aI46
aI0
aI2
ag152
aa(lp441
F0.4875512922772
aI43
aI0
aI2
ag154
aa(lp442
F1.5427913999929
aI0
aI0
aI0
ag156
aaaI0
aI0
aI0
aI0
aI0
aI0
aI0
aI0
aI0
aI0
aI0
aI0
aI0
aI0
aI0
aI0
aI0
aI0
aI0
aI0
aI0
aI0
aI0
aI0
aI0
aI0
aI0
aI0
aI0
aI0
aI0
aI0
aI0
aI0
aI0
aI0
aI0
aI0
aI0
aI0
aI0
aI0
aI0
aI0
aI0
aI0
aI0
aI0
aI0
aI0
aI0
aI0
aI0
aI0
aI0
aI0
aI0
aI0
aI0
aI0
aI0
aI0
aI0
aI0
aI0
aI0
aI0
aI0
aI0
aI0
aI0
aI0
aI0
aI0
aa(lp443
(dp444
a(dp445
g160
I31
sg161
I1
sa(dp446
g160
I32
sg161
I1
sa(dp447
g160
I33
sg161
I0
sa(dp448
g160
I34
sg161
I1
sa(dp449
g160
I35
sg161
I0
sa(dp450
a(dp451
a(dp452
a(dp453
g160
I41
sg161
I1
sa(dp454
a(dp455
a(dp456
a(dp457
a(dp458
a(dp459
a(dp460
a(dp461
g160
I51
sg161
I1
sa(dp462
g160
I52
sg161
I0
sa(dp463
a(dp464
a(dp465
a(dp466
a(dp467
a(dp468
a(dp469
g160
I61
sg161
I1
sa(dp470
a(dp471
a(dp472
a(dp473
a(dp474
a(dp475
a(dp476
a(dp477
a(dp478
a(dp479
a(dp480
a(dp481
a(dp482
a(dp483
a(dp484
a(dp485
a(dp486
a(dp487
a(dp488
a(dp489
a(dp490
a(dp491
a(dp492
a(dp493
a(dp494
a(dp495
a(dp496
a(dp497
a(dp498
a(dp499
a(dp500
a(dp501
a(dp502
a(dp503
a(dp504
a(dp505
a(dp506
a(dp507
a(dp508
a(dp509
a(dp510
a(dp511
a(dp512
a(dp513
a(dp514
a(dp515
a(dp516
a(dp517
a(dp518
a(dp519
a(dp520
a(dp521
a(dp522
a(dp523
a(dp524
a(dp525
a(dp526
a(dp527
a(dp528
a(dp529
a(dp530
a(dp531
a(dp532
a(dp533
a(dp534
a(dp535
a(dp536
a(dp537
a(dp538
a(dp539
a(dp540
a(dp541
a(dp542
a(dp543
aa(lp544
I60
aI60
aI36
aI36
aa(lp545
(lp546
I0
aI2
aI3
aI5
aI7
aI8
aI10
aa(lp547
I0
aI2
aI3
aI5
aI7
aI8
aI10
aa(lp548
I0
aI2
aI3
aI5
aI7
aI8
aI10
aa(lp549
I0
aI2
aI3
aI5
aI7
aI8
aI10
aa(lp550
I0
aI2
aI3
aI5
aI7
aI8
aI10
aa(lp551
I0
aI1
aI2
aI3
aI4
aI5
aI6
aI7
aI8
aI9
aI10
aI11
aaa(lp552
(lp553
(lp554
I0
aI0
aI0
aI0
aI0
aI0
aI0
aI0
aI0
aI0
aI0
aI0
aa(lp555
I0
aI0
aI0
aI0
aI0
aI0
aI0
aI0
aI0
aI0
aI0
aI0
aa(lp556
I0
aI0
aI0
aI0
aI0
aI0
aI0
aI0
aI0
aI0
aI0
aI0
aa(lp557
I0
aI0
aI0
aI0
aI0
aI0
aI0
aI0
aI0
aI0
aI0
aI0
aaa(lp558
(lp559
I0
aI0
aI0
aI0
aI0
aI0
aI0
aI0
aI0
aI0
aI0
aI0
aa(lp560
I0
aI0
aI0
aI0
aI0
aI0
aI0
aI0
aI0
aI0
aI0
aI0
aa(lp561
I0
aI0
aI0
aI0
aI0
aI0
aI0
aI0
aI0
aI0
aI0
aI0
aa(lp562
I0
aI0
aI0
aI0
aI0
aI0
aI0
aI0
aI0
aI0
aI0
aI0
aaa(lp563
(lp564
I0
aI0
aI0
aI0
aI0
aI0
aI0
aI0
aI0
aI0
aI0
aI0
aa(lp565
I0
aI0
aI0
aI0
aI0
aI0
aI0
aI0
aI0
aI0
aI0
aI0
aa(lp566
I0
aI0
aI0
aI0
aI0
aI0
aI0
aI0
aI0
aI0
aI0
aI0
aa(lp567
I0
aI0
aI0
aI0
aI0
aI0
aI0
aI0
aI0
aI0
aI0
aI0
aaa(lp568
(lp569
I0
aI0
aI0
aI0
aI0
aI0
aI0
aI0
aI0
aI0
aI0
aI0
aa(lp570
I0
aI0
aI0
aI0
aI0
aI0
aI0
aI0
aI0
aI0
aI0
aI0
aa(lp571
I0
aI0
aI0
aI0
aI0
aI0
aI0
aI0
aI0
aI0
aI0
aI0
aa(lp572
I0
aI0
aI0
aI0
aI0
aI0
aI0
aI0
aI0
aI0
aI0
aI0
aaaa(lp573
(lp574
I0
aI0
aI0
aI0
aI0
aI0
aI0
aI0
aI0
aI0
aI0
aI0
aa(lp575
I0
aI0
aI0
aI0
aI0
aI0
aI0
aI0
aI0
aI0
aI0
aI0
aa(lp576
I0
aI0
aI0
aI0
aI0
aI0
aI0
aI0
aI0
aI0
aI0
aI0
aa(lp577
I0
aI0
aI0
aI0
aI0
aI0
aI0
aI0
aI0
aI0
aI0
aI0
aaaa(lp578
(lp579
I0
a(lp580
(lp581
F0.0
aI36
aI104
aI3
ag5
aa(lp582
F0.20304781530649
aI36
aI0
aI3
ag7
aa(lp583
F1.7969521846935
aI38
aI103
aI3
ag9
aa(lp584
F0.14133252796046
aI38
aI0
aI3
ag11
aa(lp585
F1.3586674720395
aI36
aI98
aI3
ag13
aa(lp586
F0.25108221042319
aI36
aI0
aI3
ag15
aa(lp587
F0.74891778957681
aI36
aI98
aI3
ag17
aa(lp588
F0.22132756376004
aI36
aI0
aI3
ag19
aa(lp589
F1.27867243624
aI38
aI107
aI3
ag21
aa(lp590
F0.15591072059033
aI38
aI0
aI3
ag23
aa(lp591
F0.84408927940967
aI0
aI0
aI0
ag25
aaa(lp592
(lp593
F0.0
aI48
aI81
aI3
ag310
aa(lp594
F0.078386695859081
aI48
aI0
aI3
ag312
aa(lp595
F0.92161330414092
aI48
aI108
aI3
ag314
aa(lp596
F0.22083891461807
aI48
aI0
aI3
ag316
aa(lp597
F0.77916108538193
aI0
aI0
aI0
ag318
aaa(lp598
(lp599
F0.0
aI48
aI79
aI3
ag321
aa(lp600
F0.18987179849137
aI48
aI0
aI3
ag323
aa(lp601
F0.81012820150863
aI48
aI22
aI3
ag325
aa(lp602
F0.15648949964452
aI48
aI0
aI3
ag327
aa(lp603
F0.84351050035548
aI48
aI124
aI3
ag329
aa(lp604
F0.28167675070654
aI48
aI0
aI3
ag331
aa(lp605
F0.71832324929346
aI0
aI0
aI0
ag333
aaa(lp606
(lp607
F0.0
aI49
aI125
aI3
ag336
aa(lp608
F0.20463433982877
aI49
aI0
aI3
ag338
aa(lp609
F0.79536566017123
aI0
aI0
aI0
ag340
aaa(lp610
(lp611
F0.0
aI49
aI65
aI3
ag343
aa(lp612
F0.61195298784151
aI49
aI0
aI3
ag345
aa(lp613
F0.38804701215849
aI0
aI0
aI0
ag347
aaaI0
aI0
aI0
a(lp614
(lp615
F0.0
aI44
aI104
aI3
ag42
aa(lp616
F0.9116189284232
aI44
aI0
aI3
ag44
aa(lp617
F1.0883810715768
aI44
aI99
aI3
ag46
aa(lp618
F1.1634591194188
aI44
aI0
aI3
ag48
aa(lp619
F0.8365408805812
aI44
aI106
aI3
ag50
aa(lp620
F0.97339567235667
aI44
aI0
aI3
ag52
aa(lp621
F1.0266043276433
aI44
aI105
aI3
ag54
aa(lp622
F1.1169700352393
aI44
aI0
aI3
ag56
aa(lp623
F0.88302996476068
aI0
aI0
aI0
ag58
aaaI0
aI0
aI0
aI0
aI0
aI0
aI0
a(lp624
(lp625
F0.0129009306429
aI67
aI73
aI1
ag61
aa(lp626
F0.011105751991636
aI63
aI64
aI1
ag63
aa(lp627
F-0.014415470036056
aI60
aI40
aI1
ag65
aa(lp628
F0.33181076261917
aI67
aI0
aI1
ag67
aa(lp629
F0.0003306046128273
aI60
aI0
aI1
ag69
aa(lp630
F0.04499756917312
aI63
aI0
aI1
ag71
aa(lp631
F1.6828876571094
aI67
aI81
aI1
ag73
aa(lp632
F0.00037282538551153
aI63
aI58
aI1
ag75
aa(lp633
F0.013887883153075
aI60
aI64
aI1
ag77
aa(lp634
F0.28240618723339
aI63
aI0
aI1
ag79
aa(lp635
F0.09330637074936
aI60
aI0
aI1
ag81
aa(lp636
F0.031449517689907
aI67
aI0
aI1
ag83
aa(lp637
F0.97681825178461
aI63
aI84
aI1
ag85
aa(lp638
F0.015595577051499
aI60
aI82
aI1
ag87
aa(lp639
F0.031732715257021
aI67
aI50
aI1
ag89
aa(lp640
F0.078164810563521
aI67
aI0
aI1
ag91
aa(lp641
F0.1888152419242
aI60
aI0
aI1
ag93
aa(lp642
F0.14257219453884
aI63
aI0
aI1
ag95
aa(lp643
F0.53322704858101
aI63
aI65
aI1
ag97
aa(lp644
F0.015825943783966
aI60
aI91
aI1
ag99
aa(lp645
F0.00018873223507399
aI55
aI53
aI1
ag101
aa(lp646
F0.45603582022568
aI60
aI0
aI1
ag103
aa(lp647
F0.015997704127585
aI55
aI0
aI1
ag105
aa(lp648
F0.015189249845662
aI63
aI0
aI1
ag107
aa(lp649
F1.0078635408308
aI55
aI13
aI1
ag109
aa(lp650
F0.01518585847316
aI63
aI1
aI1
ag111
aa(lp651
F0.060841543149309
aI60
aI74
aI1
ag113
aa(lp652
F0.47230950323046
aI60
aI0
aI1
ag115
aa(lp653
F0.015067376938077
aI55
aI0
aI1
ag117
aa(lp654
F0.031592854251357
aI63
aI0
aI1
ag119
aa(lp655
F0.43593544288387
aI0
aI0
aI0
ag121
aaa(lp656
(lp657
F0.0
aI65
aI82
aI1
ag392
aa(lp658
F0.079881875830324
aI65
aI0
aI1
ag394
aa(lp659
F1.9201181241697
aI67
aI93
aI1
ag396
aa(lp660
F0.078257619294163
aI67
aI0
aI1
ag398
aa(lp661
F1.9217423807058
aI70
aI102
aI1
ag400
aa(lp662
F0.079280854432
aI70
aI0
aI1
ag402
aa(lp663
F1.920719145568
aI72
aI86
aI1
ag404
aa(lp664
F0.078215693160018
aI72
aI0
aI1
ag406
aa(lp665
F1.92178430684
aI75
aI98
aI1
ag408
aa(lp666
F0.07792984984917
aI75
aI0
aI1
ag410
aa(lp667
F2.9220701501508
aI77
aI95
aI1
ag412
aa(lp668
F0.079151606496453
aI77
aI0
aI1
ag414
aa(lp669
F0.92084839350355
aI75
aI92
aI1
ag416
aa(lp670
F0.077992773618462
aI75
aI0
aI1
ag418
aa(lp671
F0.92200722638154
aI72
aI86
aI1
ag420
aa(lp672
F0.078642362586834
aI72
aI0
aI1
ag422
aa(lp673
F0.92135763741317
aI0
aI0
aI0
ag424
aaaI0
aI0
aI0
aI0
aI0
aI0
a(lp674
(lp675
F0.067105572834407
aI34
aI101
aI2
ag124
aa(lp676
F0.45643342547464
aI36
aI103
aI2
ag126
aa(lp677
F0.18850037050925
aI34
aI0
aI2
ag128
aa(lp678
F0.2822919208611
aI36
aI0
aI2
ag130
aa(lp679
F0.99232452572414
aI39
aI99
aI2
ag132
aa(lp680
F0.48757961684441
aI41
aI107
aI2
ag134
aa(lp681
F0.18821688431399
aI39
aI0
aI2
ag136
aa(lp682
F0.17348659708568
aI41
aI0
aI2
ag138
aa(lp683
F3.2239831110937
aI46
aI100
aI2
ag140
aa(lp684
F0.91118872331754
aI48
aI108
aI2
ag142
aa(lp685
F0.17355362778471
aI46
aI0
aI2
ag144
aa(lp686
F0.42531632233113
aI48
aI0
aI2
ag146
aa(lp687
F3.378963600705
aI46
aI96
aI2
ag148
aa(lp688
F0.94046935364167
aI43
aI118
aI2
ag150
aa(lp689
F0.080243655208506
aI46
aI0
aI2
ag152
aa(lp690
F0.4875512922772
aI43
aI0
aI2
ag154
aa(lp691
F1.5427913999929
aI0
aI0
aI0
ag156
aaaI0
aI0
aI0
aI0
aI0
aI0
aI0
aI0
aI0
aI0
aI0
aI0
aI0
aI0
aI0
aI0
aI0
aI0
aI0
aI0
aI0
aI0
aI0
aI0
aI0
aI0
aI0
aI0
aI0
aI0
aI0
aI0
aI0
aI0
aI0
aI0
aI0
aI0
aI0
aI0
aI0
aI0
aI0
aI0
aI0
aI0
aI0
aI0
aI0
aI0
aI0
aI0
aI0
aI0
aI0
aI0
aI0
aI0
aI0
aI0
aI0
aI0
aI0
aI0
aI0
aI0
aI0
aI0
aI0
aI0
aI0
aI0
aI0
aI0
aa(lp692
(dp693
a(dp694
g160
I31
sg161
I1
sa(dp695
g160
I32
sg161
I0
sa(dp696
g160
I33
sg161
I1
sa(dp697
g160
I34
sg161
I0
sa(dp698
g160
I35
sg161
I1
sa(dp699
a(dp700
a(dp701
a(dp702
g160
I41
sg161
I1
sa(dp703
a(dp704
a(dp705
a(dp706
a(dp707
a(dp708
a(dp709
a(dp710
g160
I51
sg161
I0
sa(dp711
g160
I52
sg161
I1
sa(dp712
a(dp713
a(dp714
a(dp715
a(dp716
a(dp717
a(dp718
g160
I61
sg161
I1
sa(dp719
a(dp720
a(dp721
a(dp722
a(dp723
a(dp724
a(dp725
a(dp726
a(dp727
a(dp728
a(dp729
a(dp730
a(dp731
a(dp732
a(dp733
a(dp734
a(dp735
a(dp736
a(dp737
a(dp738
a(dp739
a(dp740
a(dp741
a(dp742
a(dp743
a(dp744
a(dp745
a(dp746
a(dp747
a(dp748
a(dp749
a(dp750
a(dp751
a(dp752
a(dp753
a(dp754
a(dp755
a(dp756
a(dp757
a(dp758
a(dp759
a(dp760
a(dp761
a(dp762
a(dp763
a(dp764
a(dp765
a(dp766
a(dp767
a(dp768
a(dp769
a(dp770
a(dp771
a(dp772
a(dp773
a(dp774
a(dp775
a(dp776
a(dp777
a(dp778
a(dp779
a(dp780
a(dp781
a(dp782
a(dp783
a(dp784
a(dp785
a(dp786
a(dp787
a(dp788
a(dp789
a(dp790
a(dp791
a(dp792
aa(lp793
I60
aI60
aI36
aI36
aa(lp794
(lp795
I0
aI2
aI3
aI5
aI7
aI8
aI10
aa(lp796
I0
aI2
aI3
aI5
aI7
aI8
aI10
aa(lp797
I0
aI2
aI3
aI5
aI7
aI8
aI10
aa(lp798
I0
aI2
aI3
aI5
aI7
aI8
aI10
aa(lp799
I0
aI2
aI3
aI5
aI7
aI8
aI10
aa(lp800
I0
aI1
aI2
aI3
aI4
aI5
aI6
aI7
aI8
aI9
aI10
aI11
aaa(lp801
(lp802
(lp803
I0
aI0
aI0
aI0
aI0
aI0
aI0
aI0
aI0
aI0
aI0
aI0
aa(lp804
I0
aI0
aI0
aI0
aI0
aI0
aI0
aI0
aI0
aI0
aI0
aI0
aa(lp805
I0
aI0
aI0
aI0
aI0
aI0
aI0
aI0
aI0
aI0
aI0
aI0
aa(lp806
I0
aI0
aI0
aI0
aI0
aI0
aI0
aI0
aI0
aI0
aI0
aI0
aaa(lp807
(lp808
I0
aI0
aI0
aI0
aI0
aI0
aI0
aI0
aI0
aI0
aI0
aI0
aa(lp809
I0
aI0
aI0
aI0
aI0
aI0
aI0
aI0
aI0
aI0
aI0
aI0
aa(lp810
I0
aI0
aI0
aI0
aI0
aI0
aI0
aI0
aI0
aI0
aI0
aI0
aa(lp811
I0
aI0
aI0
aI0
aI0
aI0
aI0
aI0
aI0
aI0
aI0
aI0
aaa(lp812
(lp813
I0
aI0
aI0
aI0
aI0
aI0
aI0
aI0
aI0
aI0
aI0
aI0
aa(lp814
I0
aI0
aI0
aI0
aI0
aI0
aI0
aI0
aI0
aI0
aI0
aI0
aa(lp815
I0
aI0
aI0
aI0
aI0
aI0
aI0
aI0
aI0
aI0
aI0
aI0
aa(lp816
I0
aI0
aI0
aI0
aI0
aI0
aI0
aI0
aI0
aI0
aI0
aI0
aaa(lp817
(lp818
I0
aI0
aI0
aI0
aI0
aI0
aI0
aI0
aI0
aI0
aI0
aI0
aa(lp819
I0
aI0
aI0
aI0
aI0
aI0
aI0
aI0
aI0
aI0
aI0
aI0
aa(lp820
I0
aI0
aI0
aI0
aI0
aI0
aI0
aI0
aI0
aI0
aI0
aI0
aa(lp821
I0
aI0
aI0
aI0
aI0
aI0
aI0
aI0
aI0
aI0
aI0
aI0
aaaa(lp822
(lp823
I0
aI0
aI0
aI0
aI0
aI0
aI0
aI0
aI0
aI0
aI0
aI0
aa(lp824
I0
aI0
aI0
aI0
aI0
aI0
aI0
aI0
aI0
aI0
aI0
aI0
aa(lp825
I0
aI0
aI0
aI0
aI0
aI0
aI0
aI0
aI0
aI0
aI0
aI0
aa(lp826
I0
aI0
aI0
aI0
aI0
aI0
aI0
aI0
aI0
aI0
aI0
aI0
aaaaI0
aI0
aI0
aI0
aI0
aI0
aI0
aI0
aI0
aI0
aI0
aI0
aI0
aI0
aI0
aI0
aI0
aI0
aI0
aI0
aI0
aI0
aI0
aI0
aI0
aI0
aI0
aI0
a.