(lp0
I0
a(lp1
(lp2
I0
a(lp3
(lp4
F0.0
aI36
aI104
aI3
aS'on'
p5
aa(lp6
F0.20304781530649
aI36
aI0
aI3
aS'off'
p7
aa(lp8
F1.7969521846935
aI38
aI103
aI3
aS'on'
p9
aa(lp10
F0.14133252796046
aI38
aI0
aI3
aS'off'
p11
aa(lp12
F1.3586674720395
aI36
aI98
aI3
aS'on'
p13
aa(lp14
F0.25108221042319
aI36
aI0
aI3
aS'off'
p15
aa(lp16
F0.74891778957681
aI36
aI98
aI3
aS'on'
p17
aa(lp18
F0.22132756376004
aI36
aI0
aI3
aS'off'
p19
aa(lp20
F1.27867243624
aI38
aI107
aI3
aS'on'
p21
aa(lp22
F0.15591072059033
aI38
aI0
aI3
aS'off'
p23
aa(lp24
F0.84408927940967
aI0
aI0
aI0
aS'timeAfterLastHit'
p25
aaa(lp26
(lp27
F3.0
aI44
aI103
aI3
aS'on'
p28
aa(lp29
F3.5655294282296
aI44
aI0
aI3
aS'off'
p30
aa(lp31
F0.43447057177036
aI0
aI0
aI0
aS'timeAfterLastHit'
p32
aaa(lp33
(lp34
F2.0
aI44
aI114
aI3
aS'on'
p35
aa(lp36
F4.1240452372781
aI44
aI0
aI3
aS'off'
p37
aa(lp38
F0.8759547627219
aI0
aI0
aI0
aS'timeAfterLastHit'
p39
aaaI0
aI0
aI0
aI0
aI0
a(lp40
(lp41
F0.0
aI44
aI104
aI3
aS'on'
p42
aa(lp43
F0.9116189284232
aI44
aI0
aI3
aS'off'
p44
aa(lp45
F1.0883810715768
aI44
aI99
aI3
aS'on'
p46
aa(lp47
F1.1634591194188
aI44
aI0
aI3
aS'off'
p48
aa(lp49
F0.8365408805812
aI44
aI106
aI3
aS'on'
p50
aa(lp51
F0.97339567235667
aI44
aI0
aI3
aS'off'
p52
aa(lp53
F1.0266043276433
aI44
aI105
aI3
aS'on'
p54
aa(lp55
F1.1169700352393
aI44
aI0
aI3
aS'off'
p56
aa(lp57
F0.88302996476068
aI0
aI0
aI0
aS'timeAfterLastHit'
p58
aaaI0
aI0
aI0
aI0
aI0
aI0
aI0
a(lp59
(lp60
F0.0129009306429
aI67
aI73
aI1
aS'on'
p61
aa(lp62
F0.011105751991636
aI63
aI64
aI1
aS'on'
p63
aa(lp64
F-0.014415470036056
aI60
aI40
aI1
aS'on'
p65
aa(lp66
F0.33181076261917
aI67
aI0
aI1
aS'off'
p67
aa(lp68
F0.0003306046128273
aI60
aI0
aI1
aS'off'
p69
aa(lp70
F0.04499756917312
aI63
aI0
aI1
aS'off'
p71
aa(lp72
F1.6828876571094
aI67
aI81
aI1
aS'on'
p73
aa(lp74
F0.00037282538551153
aI63
aI58
aI1
aS'on'
p75
aa(lp76
F0.013887883153075
aI60
aI64
aI1
aS'on'
p77
aa(lp78
F0.28240618723339
aI63
aI0
aI1
aS'off'
p79
aa(lp80
F0.09330637074936
aI60
aI0
aI1
aS'off'
p81
aa(lp82
F0.031449517689907
aI67
aI0
aI1
aS'off'
p83
aa(lp84
F0.97681825178461
aI63
aI84
aI1
aS'on'
p85
aa(lp86
F0.015595577051499
aI60
aI82
aI1
aS'on'
p87
aa(lp88
F0.031732715257021
aI67
aI50
aI1
aS'on'
p89
aa(lp90
F0.078164810563521
aI67
aI0
aI1
aS'off'
p91
aa(lp92
F0.1888152419242
aI60
aI0
aI1
aS'off'
p93
aa(lp94
F0.14257219453884
aI63
aI0
aI1
aS'off'
p95
aa(lp96
F0.53322704858101
aI63
aI65
aI1
aS'on'
p97
aa(lp98
F0.015825943783966
aI60
aI91
aI1
aS'on'
p99
aa(lp100
F0.00018873223507399
aI55
aI53
aI1
aS'on'
p101
aa(lp102
F0.45603582022568
aI60
aI0
aI1
aS'off'
p103
aa(lp104
F0.015997704127585
aI55
aI0
aI1
aS'off'
p105
aa(lp106
F0.015189249845662
aI63
aI0
aI1
aS'off'
p107
aa(lp108
F1.0078635408308
aI55
aI13
aI1
aS'on'
p109
aa(lp110
F0.01518585847316
aI63
aI1
aI1
aS'on'
p111
aa(lp112
F0.060841543149309
aI60
aI74
aI1
aS'on'
p113
aa(lp114
F0.47230950323046
aI60
aI0
aI1
aS'off'
p115
aa(lp116
F0.015067376938077
aI55
aI0
aI1
aS'off'
p117
aa(lp118
F0.031592854251357
aI63
aI0
aI1
aS'off'
p119
aa(lp120
F0.43593544288387
aI0
aI0
aI0
aS'timeAfterLastHit'
p121
aaaI0
aI0
aI0
aI0
aI0
aI0
aI0
a(lp122
(lp123
F0.067105572834407
aI34
aI101
aI2
aS'on'
p124
aa(lp125
F0.45643342547464
aI36
aI103
aI2
aS'on'
p126
aa(lp127
F0.18850037050925
aI34
aI0
aI2
aS'off'
p128
aa(lp129
F0.2822919208611
aI36
aI0
aI2
aS'off'
p130
aa(lp131
F0.99232452572414
aI39
aI99
aI2
aS'on'
p132
aa(lp133
F0.48757961684441
aI41
aI107
aI2
aS'on'
p134
aa(lp135
F0.18821688431399
aI39
aI0
aI2
aS'off'
p136
aa(lp137
F0.17348659708568
aI41
aI0
aI2
aS'off'
p138
aa(lp139
F3.2239831110937
aI46
aI100
aI2
aS'on'
p140
aa(lp141
F0.91118872331754
aI48
aI108
aI2
aS'on'
p142
aa(lp143
F0.17355362778471
aI46
aI0
aI2
aS'off'
p144
aa(lp145
F0.42531632233113
aI48
aI0
aI2
aS'off'
p146
aa(lp147
F3.378963600705
aI46
aI96
aI2
aS'on'
p148
aa(lp149
F0.94046935364167
aI43
aI118
aI2
aS'on'
p150
aa(lp151
F0.080243655208506
aI46
aI0
aI2
aS'off'
p152
aa(lp153
F0.4875512922772
aI43
aI0
aI2
aS'off'
p154
aa(lp155
F1.5427913999929
aI0
aI0
aI0
aS'timeAfterLastHit'
p156
aaaI0
aI0
aI0
aI0
aI0
aI0
aI0
aI0
aI0
aI0
aI0
aI0
aI0
aI0
aI0
aI0
aI0
aI0
aI0
aI0
aI0
aI0
aI0
aI0
aI0
aI0
aI0
aI0
aI0
aI0
aI0
aI0
aI0
aI0
aI0
aI0
aI0
aI0
aI0
aI0
aI0
aI0
aI0
aI0
aI0
aI0
aI0
aI0
aI0
aI0
aI0
aI0
aI0
aI0
aI0
aI0
aI0
aI0
aI0
aI0
aI0
aI0
aI0
aI0
aI0
aI0
aI0
aI0
aI0
aI0
aI0
aI0
aI0
aI0
aa(lp157
(dp158
a(dp159
S'button'
p160
I31
sS'playing'
p161
I1
sa(dp162
g160
I32
sg161
I0
sa(dp163
g160
I33
sg161
I0
sa(dp164
a(dp165
a(dp166
a(dp167
a(dp168
a(dp169
g160
I41
sg161
I1
sa(dp170
a(dp171
a(dp172
a(dp173
a(dp174
a(dp175
a(dp176
a(dp177
g160
I51
sg161
I1
sa(dp178
a(dp179
a(dp180
a(dp181
a(dp182
a(dp183
a(dp184
a(dp185
g160
I61
sg161
I01
sa(dp186
a(dp187
a(dp188
a(dp189
a(dp190
a(dp191
a(dp192
a(dp193
a(dp194
a(dp195
a(dp196
a(dp197
a(dp198
a(dp199
a(dp200
a(dp201
a(dp202
a(dp203
a(dp204
a(dp205
a(dp206
a(dp207
a(dp208
a(dp209
a(dp210
a(dp211
a(dp212
a(dp213
a(dp214
a(dp215
a(dp216
a(dp217
a(dp218
a(dp219
a(dp220
a(dp221
a(dp222
a(dp223
a(dp224
a(dp225
a(dp226
a(dp227
a(dp228
a(dp229
a(dp230
a(dp231
a(dp232
a(dp233
a(dp234
a(dp235
a(dp236
a(dp237
a(dp238
a(dp239
a(dp240
a(dp241
a(dp242
a(dp243
a(dp244
a(dp245
a(dp246
a(dp247
a(dp248
a(dp249
a(dp250
a(dp251
a(dp252
a(dp253
a(dp254
a(dp255
a(dp256
a(dp257
a(dp258
a(dp259
aa(lp260
I60
aI60
aI36
aI36
aa(lp261
(lp262
I0
aI2
aI3
aI5
aI7
aI8
aI10
aa(lp263
I0
aI2
aI3
aI5
aI7
aI8
aI10
aa(lp264
I0
aI2
aI3
aI5
aI7
aI8
aI10
aa(lp265
I0
aI2
aI3
aI5
aI7
aI8
aI10
aa(lp266
I0
aI2
aI3
aI5
aI7
aI8
aI10
aa(lp267
I0
aI1
aI2
aI3
aI4
aI5
aI6
aI7
aI8
aI9
aI10
aI11
aaa(lp268
(lp269
(lp270
I0
aI0
aI0
aI0
aI0
aI0
aI0
aI0
aI0
aI0
aI0
aI0
aa(lp271
I0
aI0
aI0
aI0
aI0
aI0
aI0
aI0
aI0
aI0
aI0
aI0
aa(lp272
I0
aI0
aI0
aI0
aI0
aI0
aI0
aI0
aI0
aI0
aI0
aI0
aa(lp273
I0
aI0
aI0
aI0
aI0
aI0
aI0
aI0
aI0
aI0
aI0
aI0
aaa(lp274
(lp275
I0
aI0
aI0
aI0
aI0
aI0
aI0
aI0
aI0
aI0
aI0
aI0
aa(lp276
I0
aI0
aI0
aI0
aI0
aI0
aI0
aI0
aI0
aI0
aI0
aI0
aa(lp277
I0
aI0
aI0
aI0
aI0
aI0
aI0
aI0
aI0
aI0
aI0
aI0
aa(lp278
I0
aI0
aI0
aI0
aI0
aI0
aI0
aI0
aI0
aI0
aI0
aI0
aaa(lp279
(lp280
I0
aI0
aI0
aI0
aI0
aI0
aI0
aI0
aI0
aI0
aI0
aI0
aa(lp281
I0
aI0
aI0
aI0
aI0
aI0
aI0
aI0
aI0
aI0
aI0
aI0
aa(lp282
I0
aI0
aI0
aI0
aI0
aI0
aI0
aI0
aI0
aI0
aI0
aI0
aa(lp283
I0
aI0
aI0
aI0
aI0
aI0
aI0
aI0
aI0
aI0
aI0
aI0
aaa(lp284
(lp285
I0
aI0
aI0
aI0
aI0
aI0
aI0
aI0
aI0
aI0
aI0
aI0
aa(lp286
I0
aI0
aI0
aI0
aI0
aI0
aI0
aI0
aI0
aI0
aI0
aI0
aa(lp287
I0
aI0
aI0
aI0
aI0
aI0
aI0
aI0
aI0
aI0
aI0
aI0
aa(lp288
I0
aI0
aI0
aI0
aI0
aI0
aI0
aI0
aI0
aI0
aI0
aI0
aaaa(lp289
(lp290
I0
aI0
aI0
aI0
aI0
aI0
aI0
aI0
aI0
aI0
aI0
aI0
aa(lp291
I0
aI0
aI0
aI0
aI0
aI0
aI0
aI0
aI0
aI0
aI0
aI0
aa(lp292
I0
aI0
aI0
aI0
aI0
aI0
aI0
aI0
aI0
aI0
aI0
aI0
aa(lp293
I0
aI0
aI0
aI0
aI0
aI0
aI0
aI0
aI0
aI0
aI0
aI0
aaaaI0
aI0
aI0
aI0
aI0
aI0
aI0
aI0
aI0
aI0
aI0
aI0
aI0
aI0
aI0
aI0
aI0
aI0
aI0
aI0
aI0
aI0
aI0
aI0
aI0
aI0
aI0
aI0
aI0
aI0
a.