(lp0
I0
a(lp1
(lp2
I0
aI0
aI0
aI0
aI0
aI0
aI0
aI0
aI0
aI0
aI0
aI0
aI0
aI0
aI0
aI0
aI0
a(lp3
(lp4
F0.023402415639794
aI38
aI72
aI2
aS'on'
p5
aa(lp6
F0.078757530652638
aI38
aI0
aI2
aS'off'
p7
aa(lp8
F0.42284293889838
aI38
aI68
aI2
aS'on'
p9
aa(lp10
F0.086343531427019
aI38
aI0
aI2
aS'off'
p11
aa(lp12
F0.42286867589723
aI36
aI104
aI2
aS'on'
p13
aa(lp14
F0.12645996523111
aI36
aI0
aI2
aS'off'
p15
aa(lp16
F0.24253770177211
aI38
aI59
aI2
aS'on'
p17
aa(lp18
F0.070153695909084
aI38
aI0
aI2
aS'off'
p19
aa(lp20
F0.38425145304859
aI41
aI85
aI2
aS'on'
p21
aa(lp22
F0.10157923647262
aI41
aI0
aI2
aS'off'
p23
aa(lp24
F0.38494054102785
aI38
aI85
aI2
aS'on'
p25
aa(lp26
F0.070700234392689
aI38
aI0
aI2
aS'off'
p27
aa(lp28
F0.10242869844751
aI36
aI73
aI2
aS'on'
p29
aa(lp30
F0.10131066748067
aI36
aI0
aI2
aS'off'
p31
aa(lp32
F0.21955813445675
aI38
aI78
aI2
aS'on'
p33
aa(lp34
F0.12545948776119
aI38
aI0
aI2
aS'off'
p35
aa(lp36
F0.42264094740403
aI36
aI66
aI2
aS'on'
p37
aa(lp38
F0.062892311626001
aI36
aI0
aI2
aS'off'
p39
aa(lp40
F0.10959804573349
aI33
aI106
aI2
aS'on'
p41
aa(lp42
F0.070650101394676
aI33
aI0
aI2
aS'off'
p43
aa(lp44
F0.26010638524804
aI31
aI70
aI2
aS'on'
p45
aa(lp46
F0.062719372130687
aI31
aI0
aI2
aS'off'
p47
aa(lp48
F0.04779792794784
aI0
aI0
aI0
aS'timeAfterLastHit'
p49
aaa(lp50
(lp51
F0.39122727799258
aI26
aI53
aI2
aS'on'
p52
aa(lp53
F0.039050860836142
aI26
aI0
aI2
aS'off'
p54
aa(lp55
F0.11818571347749
aI26
aI65
aI2
aS'on'
p56
aa(lp57
F0.03840016835602
aI26
aI0
aI2
aS'off'
p58
aa(lp59
F0.31497795111272
aI29
aI62
aI2
aS'on'
p60
aa(lp61
F0.078912393648352
aI29
aI0
aI2
aS'off'
p62
aa(lp63
F0.094396396686534
aI29
aI70
aI2
aS'on'
p64
aa(lp65
F0.077739000683323
aI29
aI0
aI2
aS'off'
p66
aa(lp67
F0.22016187993859
aI31
aI73
aI2
aS'on'
p68
aa(lp69
F0.070828497889124
aI31
aI0
aI2
aS'off'
p70
aa(lp71
F0.070747053891864
aI31
aI92
aI2
aS'on'
p72
aa(lp73
F0.070700369392853
aI31
aI0
aI2
aS'off'
p74
aa(lp75
F0.25872957278898
aI33
aI89
aI2
aS'on'
p76
aa(lp77
F0.063227911115519
aI33
aI0
aI2
aS'off'
p78
aa(lp79
F0.12565016475583
aI33
aI104
aI2
aS'on'
p80
aa(lp81
F0.078304247166216
aI33
aI0
aI2
aS'off'
p82
aa(lp83
F0.23583094997184
aI36
aI73
aI2
aS'on'
p84
aa(lp85
F0.062970883122944
aI36
aI0
aI2
aS'off'
p86
aa(lp87
F0.078235050668809
aI36
aI99
aI2
aS'on'
p88
aa(lp89
F0.054487618376243
aI36
aI0
aI2
aS'off'
p90
aa(lp91
F0.29808609461588
aI36
aI73
aI2
aS'on'
p92
aa(lp93
F0.070971713385006
aI36
aI0
aI2
aS'off'
p94
aa(lp95
F0.093382606717114
aI38
aI104
aI2
aS'on'
p96
aa(lp97
F0.086485263422674
aI38
aI0
aI2
aS'off'
p98
aa(lp99
F0.24323400475078
aI36
aI71
aI2
aS'on'
p100
aa(lp101
F0.078341574665046
aI36
aI0
aI2
aS'off'
p102
aa(lp103
F0.094118607195469
aI33
aI106
aI2
aS'on'
p104
aa(lp105
F0.09394272920008
aI33
aI0
aI2
aS'off'
p106
aa(lp107
F0.20456422190318
aI31
aI92
aI2
aS'on'
p108
aa(lp109
F0.10941020223981
aI31
aI0
aI2
aS'off'
p110
aa(lp111
F0.084699020032986
aI0
aI0
aI0
aS'timeAfterLastHit'
p112
aaaI0
a(lp113
(lp114
F2.5314964170575
aI62
aI99
aI3
aS'on'
p115
aa(lp116
F1.4044257061446
aI62
aI0
aI3
aS'off'
p117
aa(lp118
F9.057582741063
aI62
aI70
aI3
aS'on'
p119
aa(lp120
F2.6818408345748
aI62
aI0
aI3
aS'off'
p121
aa(lp122
F0.32465430116008
aI0
aI0
aI0
aS'timeAfterLastHit'
p123
aaaI0
aI0
aI0
aI0
aI0
aI0
aI0
a(lp124
(lp125
F2.4886355040024
aI57
aI106
aI3
aS'on'
p126
aa(lp127
F1.4576152290597
aI57
aI0
aI3
aS'off'
p128
aa(lp129
F4.0537492669379
aI0
aI0
aI0
aS'timeAfterLastHit'
p130
aaaI0
aI0
aI0
aI0
a(lp131
(lp132
F0.0
aI32
aI101
aI3
aS'on'
p133
aa(lp134
F0.13390181450941
aI32
aI0
aI3
aS'off'
p135
aa(lp136
F0.69943151882392
aI32
aI80
aI3
aS'on'
p137
aa(lp138
F0.10211531545674
aI32
aI0
aI3
aS'off'
p139
aa(lp140
F0.064551351209924
aI33
aI96
aI3
aS'on'
p141
aa(lp142
F0.10982364272699
aI33
aI0
aI3
aS'off'
p143
aa(lp144
F0.22350969060634
aI32
aI99
aI3
aS'on'
p145
aa(lp146
F0.12541576426233
aI32
aI0
aI3
aS'off'
p147
aa(lp148
F0.54125090240434
aI32
aI89
aI3
aS'on'
p149
aa(lp150
F0.1324529390526
aI32
aI0
aI3
aS'off'
p151
aa(lp152
F0.3675470609474
aI32
aI94
aI3
aS'on'
p153
aa(lp154
F0.11776996599018
aI32
aI0
aI3
aS'off'
p155
aa(lp156
F0.38223003400982
aI33
aI113
aI3
aS'on'
p157
aa(lp158
F0.16494778008419
aI33
aI0
aI3
aS'off'
p159
aa(lp160
F0.83505221991581
aI0
aI0
aI0
aS'timeAfterLastHit'
p161
aaa(lp162
(lp163
F2.9910333101101
aI40
aI106
aI3
aS'on'
p164
aa(lp165
F0.086293347428295
aI40
aI0
aI3
aS'off'
p166
aa(lp167
F2.92426831635
aI41
aI106
aI3
aS'on'
p168
aa(lp169
F0.12503375627369
aI41
aI0
aI3
aS'off'
p170
aa(lp171
F0.6676509806025
aI41
aI108
aI3
aS'on'
p172
aa(lp173
F0.13307837753393
aI41
aI0
aI3
aS'off'
p174
aa(lp175
F1.0726419117015
aI0
aI0
aI0
aS'timeAfterLastHit'
p176
aaa(lp177
(lp178
F0.033774448790325
aI52
aI104
aI3
aS'on'
p179
aa(lp180
F1.537766909171
aI52
aI0
aI3
aS'off'
p181
aa(lp182
F0.39951955359334
aI53
aI101
aI3
aS'on'
p183
aa(lp184
F1.6453579504645
aI53
aI0
aI3
aS'off'
p185
aa(lp186
F0.3845215010403
aI54
aI106
aI3
aS'on'
p187
aa(lp188
F0.57968694972402
aI54
aI0
aI3
aS'off'
p189
aa(lp190
F0.17288649684764
aI54
aI94
aI3
aS'on'
p191
aa(lp192
F0.51815764605766
aI54
aI0
aI3
aS'off'
p193
aa(lp194
F0.22013756493936
aI54
aI106
aI3
aS'on'
p195
aa(lp196
F0.33831766241735
aI54
aI0
aI3
aS'off'
p197
aa(lp198
F0.18774768940472
aI55
aI101
aI3
aS'on'
p199
aa(lp200
F1.9721256275498
aI55
aI0
aI3
aS'off'
p201
aa(lp202
F0.0099999999999909
aI0
aI0
aI0
aS'timeAfterLastHit'
p203
aaa(lp204
(lp205
F0.054843107139504
aI53
aI115
aI3
aS'on'
p206
aa(lp207
F0.00010763849684281
aI48
aI17
aI3
aS'on'
p208
aa(lp209
F0.039234153330767
aI48
aI0
aI3
aS'off'
p210
aa(lp211
F0.055088059358127
aI48
aI19
aI3
aS'on'
p212
aa(lp213
F0.11778429098979
aI48
aI0
aI3
aS'off'
p214
aa(lp215
F2.6721780973628
aI53
aI0
aI3
aS'off'
p216
aa(lp217
F1.0275355883771
aI53
aI113
aI3
aS'on'
p218
aa(lp219
F1.8123695114873
aI53
aI0
aI3
aS'off'
p220
aa(lp221
F0.18849333938238
aI54
aI89
aI3
aS'on'
p222
aa(lp223
F0.62735507180344
aI54
aI0
aI3
aS'off'
p224
aa(lp225
F0.14872952406745
aI54
aI115
aI3
aS'on'
p226
aa(lp227
F0.5569810199006
aI54
aI0
aI3
aS'off'
p228
aa(lp229
F0.1568234863264
aI54
aI101
aI3
aS'on'
p230
aa(lp231
F0.53247711197753
aI54
aI0
aI3
aS'off'
p232
aa(lp233
F0.0099999999999909
aI0
aI0
aI0
aS'timeAfterLastHit'
p234
aaa(lp235
(lp236
F0.0036352355617737
aI55
aI101
aI3
aS'on'
p237
aa(lp238
F1.1219306350638
aI55
aI0
aI3
aS'off'
p239
aa(lp240
F0.38438415654446
aI60
aI115
aI3
aS'on'
p241
aa(lp242
F1.5218350526459
aI60
aI0
aI3
aS'off'
p243
aa(lp244
F0.96432145176095
aI55
aI111
aI3
aS'on'
p245
aa(lp246
F1.2257407434702
aI55
aI0
aI3
aS'off'
p247
aa(lp248
F0.32128946042462
aI60
aI104
aI3
aS'on'
p249
aa(lp250
F1.2150835032878
aI60
aI0
aI3
aS'off'
p251
aa(lp252
F0.25815165430652
aI54
aI111
aI3
aS'on'
p253
aa(lp254
F0.8476333757385
aI54
aI0
aI3
aS'off'
p255
aa(lp256
F0.13599473119552
aI0
aI0
aI0
aS'timeAfterLastHit'
p257
aaaI0
aI0
aI0
aI0
aI0
aI0
aI0
aI0
aI0
aI0
aI0
aI0
aI0
aI0
aI0
aI0
aI0
aI0
aI0
aI0
aI0
aI0
aI0
aI0
aI0
aI0
aI0
aI0
aI0
aI0
aI0
aI0
aI0
aI0
aI0
aI0
aI0
aI0
aI0
aI0
aI0
aI0
aI0
aI0
aI0
aI0
aI0
aI0
aI0
aI0
aI0
aI0
aI0
aI0
aI0
aI0
aI0
aI0
aI0
aI0
aI0
aI0
aa(lp258
(dp259
a(dp260
a(dp261
a(dp262
a(dp263
a(dp264
a(dp265
a(dp266
a(dp267
a(dp268
a(dp269
a(dp270
a(dp271
a(dp272
a(dp273
a(dp274
a(dp275
a(dp276
S'button'
p277
I51
sS'playing'
p278
I1
sa(dp279
g277
I52
sg278
I0
sa(dp280
a(dp281
g277
I54
sg278
I0
sa(dp282
a(dp283
a(dp284
a(dp285
a(dp286
a(dp287
a(dp288
a(dp289
g277
I64
sg278
I0
sa(dp290
g278
I0
sa(dp291
a(dp292
a(dp293
a(dp294
g277
I71
sg278
I1
sa(dp295
g277
I72
sg278
I1
sa(dp296
g277
I73
sg278
I0
sa(dp297
g277
I74
sg278
I0
sa(dp298
g277
I75
sg278
I0
sa(dp299
a(dp300
a(dp301
a(dp302
a(dp303
a(dp304
a(dp305
a(dp306
a(dp307
a(dp308
a(dp309
a(dp310
a(dp311
a(dp312
a(dp313
a(dp314
a(dp315
a(dp316
a(dp317
a(dp318
a(dp319
a(dp320
a(dp321
a(dp322
a(dp323
a(dp324
a(dp325
a(dp326
a(dp327
a(dp328
a(dp329
a(dp330
a(dp331
a(dp332
a(dp333
a(dp334
a(dp335
a(dp336
a(dp337
a(dp338
a(dp339
a(dp340
a(dp341
a(dp342
a(dp343
a(dp344
a(dp345
a(dp346
a(dp347
a(dp348
a(dp349
a(dp350
a(dp351
a(dp352
a(dp353
a(dp354
a(dp355
a(dp356
a(dp357
a(dp358
a(dp359
a(dp360
aa(lp361
I60
aI60
aI36
aI36
aa(lp362
(lp363
I0
aI2
aI3
aI5
aI7
aI8
aI10
aa(lp364
I0
aI2
aI3
aI5
aI7
aI8
aI10
aa(lp365
I0
aI2
aI3
aI5
aI7
aI8
aI10
aa(lp366
I0
aI1
aI2
aI3
aI4
aI5
aI6
aI7
aI8
aI9
aI10
aI11
aaa(lp367
(lp368
(lp369
I0
aI0
aI0
aI0
aI0
aI0
aI0
aI0
aI0
aI0
aI0
aI0
aa(lp370
I0
aI0
aI0
aI0
aI0
aI0
aI0
aI0
aI0
aI0
aI0
aI0
aa(lp371
I0
aI0
aI0
aI0
aI0
aI0
aI0
aI0
aI0
aI0
aI0
aI0
aa(lp372
I0
aI0
aI0
aI0
aI0
aI0
aI0
aI0
aI0
aI0
aI0
aI0
aaa(lp373
(lp374
I0
aI0
aI0
aI0
aI0
aI0
aI0
aI0
aI0
aI0
aI0
aI0
aa(lp375
I0
aI0
aI0
aI0
aI0
aI0
aI0
aI0
aI0
aI0
aI0
aI0
aa(lp376
I0
aI0
aI0
aI0
aI0
aI0
aI0
aI0
aI0
aI0
aI0
aI0
aa(lp377
I0
aI0
aI0
aI0
aI0
aI0
aI0
aI0
aI0
aI0
aI0
aI0
aaa(lp378
(lp379
I0
aI0
aI0
aI0
aI0
aI0
aI0
aI0
aI0
aI0
aI0
aI0
aa(lp380
I0
aI0
aI0
aI0
aI0
aI0
aI0
aI0
aI0
aI0
aI0
aI0
aa(lp381
I0
aI0
aI0
aI0
aI0
aI0
aI0
aI0
aI0
aI0
aI0
aI0
aa(lp382
I0
aI0
aI0
aI0
aI0
aI0
aI0
aI0
aI0
aI0
aI0
aI0
aaa(lp383
(lp384
I0
aI0
aI0
aI0
aI0
aI0
aI0
aI0
aI0
aI0
aI0
aI0
aa(lp385
I0
aI0
aI0
aI0
aI0
aI0
aI0
aI0
aI0
aI0
aI0
aI0
aa(lp386
I0
aI0
aI0
aI0
aI0
aI0
aI0
aI0
aI0
aI0
aI0
aI0
aa(lp387
I0
aI0
aI0
aI0
aI0
aI0
aI0
aI0
aI0
aI0
aI0
aI0
aaaa(lp388
(lp389
I0
aI0
aI0
aI0
aI0
aI0
aI0
aI0
aI0
aI0
aI0
aI0
aa(lp390
I0
aI0
aI0
aI0
aI0
aI0
aI0
aI0
aI0
aI0
aI0
aI0
aa(lp391
I0
aI0
aI0
aI0
aI0
aI0
aI0
aI0
aI0
aI0
aI0
aI0
aa(lp392
I0
aI0
aI0
aI0
aI0
aI0
aI0
aI0
aI0
aI0
aI0
aI0
aaaa(lp393
(lp394
I0
aI0
aI0
aI0
aI0
aI0
aI0
aI0
aI0
a(lp395
(lp396
F0.044387525319962
aI48
aI64
aI0
aS'on'
p397
aa(lp398
F-0.041564434766769
aI51
aI64
aI0
aS'on'
p399
aa(lp400
F0.0080123662949063
aI55
aI64
aI0
aS'on'
p401
aa(lp402
F3.0086706791089
aI48
aI64
aI0
aS'off'
p403
aa(lp404
F0.00037813348876625
aI51
aI64
aI0
aS'off'
p405
aa(lp406
F0.00028954799131498
aI55
aI64
aI0
aS'off'
p407
aa(lp408
F0.00058820248250413
aI67
aI64
aI0
aS'on'
p409
aa(lp410
F7.3451997650409e-05
aI60
aI64
aI0
aS'on'
p411
aa(lp412
F0.00027311399207974
aI63
aI64
aI0
aS'on'
p413
aa(lp414
F2.9257837243049
aI67
aI64
aI0
aS'off'
p415
aa(lp416
F0.0011109254669464
aI60
aI64
aI0
aS'off'
p417
aa(lp418
F0.00024337949253095
aI63
aI64
aI0
aS'off'
p419
aa(lp420
F0.0015397604540794
aI72
aI64
aI0
aS'on'
p421
aa(lp422
F0.00039560998834531
aI75
aI64
aI0
aS'on'
p423
aa(lp424
F0.0004082489879238
aI79
aI64
aI0
aS'on'
p425
aa(lp426
F3.0527504765209
aI72
aI64
aI0
aS'off'
p427
aa(lp428
F0.00034290148960281
aI75
aI64
aI0
aS'off'
p429
aa(lp430
F0.00027020249217458
aI79
aI64
aI0
aS'off'
p431
aa(lp432
F0.00077444397675208
aI74
aI64
aI0
aS'on'
p433
aa(lp434
F6.9211497930155e-05
aI78
aI64
aI0
aS'on'
p435
aa(lp436
F8.7772497408878e-05
aI71
aI64
aI0
aS'on'
p437
aa(lp438
F2.9851147569211
aI74
aI0
aI0
aS'off'
p439
aa(lp440
F0.0
aI78
aI0
aI0
aS'off'
p441
aa(lp442
F0.0
aI71
aI0
aI0
aS'off'
p443
aa(lp444
F0.0099999999999909
aI0
aI0
aI0
aS'timeAfterLastHit'
p445
aaaI0
aI0
aI0
aI0
aI0
aI0
aI0
a(lp446
(lp447
F0.029781484603859
aI36
aI89
aI2
aS'on'
p448
aa(lp449
F0.030344497558303
aI36
aI0
aI2
aS'off'
p450
aa(lp451
F0.64424702429994
aI36
aI111
aI2
aS'on'
p452
aa(lp453
F0.18064598611636
aI36
aI0
aI2
aS'off'
p454
aa(lp455
F0.5877272989843
aI41
aI106
aI2
aS'on'
p456
aa(lp457
F0.14946354454571
aI41
aI0
aI2
aS'off'
p458
aa(lp459
F0.58902213194574
aI46
aI111
aI2
aS'on'
p460
aa(lp461
F0.14082646830298
aI46
aI0
aI2
aS'off'
p462
aa(lp463
F0.5340906305828
aI51
aI115
aI2
aS'on'
p464
aa(lp465
F0.17993926713746
aI51
aI0
aI2
aS'off'
p466
aa(lp467
F0.93391166592255
aI0
aI0
aI0
aS'timeAfterLastHit'
p468
aaa(lp469
(lp470
F0.01159887313861
aI36
aI66
aI2
aS'on'
p471
aa(lp472
F0.032659226655596
aI36
aI0
aI2
aS'off'
p473
aa(lp474
F0.13855015119361
aI46
aI99
aI2
aS'on'
p475
aa(lp476
F0.10229861845119
aI46
aI0
aI2
aS'off'
p477
aa(lp478
F0.39846929712485
aI41
aI104
aI2
aS'on'
p479
aa(lp480
F0.10187161946396
aI41
aI0
aI2
aS'off'
p481
aa(lp482
F0.36827660502468
aI47
aI101
aI2
aS'on'
p483
aa(lp484
F0.13410663350305
aI47
aI0
aI2
aS'off'
p485
aa(lp486
F0.38452706603994
aI46
aI106
aI2
aS'on'
p487
aa(lp488
F0.11711205850997
aI46
aI0
aI2
aS'off'
p489
aa(lp490
F0.39175059782519
aI53
aI108
aI2
aS'on'
p491
aa(lp492
F0.11850792846781
aI53
aI0
aI2
aS'off'
p493
aa(lp494
F0.33686236546055
aI52
aI99
aI2
aS'on'
p495
aa(lp496
F0.10935693124111
aI52
aI0
aI2
aS'off'
p497
aa(lp498
F0.41633496259237
aI46
aI96
aI2
aS'on'
p499
aa(lp500
F0.13319863403058
aI46
aI0
aI2
aS'off'
p501
aa(lp502
F0.63553257955937
aI43
aI111
aI2
aS'on'
p503
aa(lp504
F0.14081787630357
aI43
aI0
aI2
aS'off'
p505
aa(lp506
F0.13362718251756
aI49
aI108
aI2
aS'on'
p507
aa(lp508
F0.14032238581785
aI49
aI0
aI2
aS'off'
p509
aa(lp510
F0.32142966692072
aI48
aI104
aI2
aS'on'
p511
aa(lp512
F0.13327048852807
aI48
aI0
aI2
aS'off'
p513
aa(lp514
F0.39989259608228
aI42
aI111
aI2
aS'on'
p515
aa(lp516
F0.12554603325862
aI42
aI0
aI2
aS'off'
p517
aa(lp518
F0.40062211206032
aI41
aI106
aI2
aS'on'
p519
aa(lp520
F0.14094980579921
aI41
aI0
aI2
aS'off'
p521
aa(lp522
F0.32082195993917
aI47
aI96
aI2
aS'on'
p523
aa(lp524
F0.13374430701379
aI47
aI0
aI2
aS'off'
p525
aa(lp526
F0.32970749317383
aI46
aI106
aI2
aS'on'
p527
aa(lp528
F0.11747386599927
aI46
aI0
aI2
aS'off'
p529
aa(lp530
F0.39280054979372
aI41
aI108
aI2
aS'on'
p531
aa(lp532
F0.27396065033554
aI41
aI0
aI2
aS'off'
p533
aa(lp534
F0.56399887817406
aI0
aI0
aI0
aS'timeAfterLastHit'
p535
aaaI0
aI0
aI0
aI0
aI0
aI0
aI0
aI0
aI0
a(lp536
(lp537
F0.0060721874236833
aI52
aI0
aI3
aS'off'
p538
aa(lp539
F0.018104374408722
aI57
aI69
aI3
aS'on'
p540
aa(lp541
F1.481218530443
aI57
aI0
aI3
aS'off'
p542
aa(lp543
F0.43155260763888
aI60
aI101
aI3
aS'on'
p544
aa(lp545
F1.443611212977
aI60
aI0
aI3
aS'off'
p546
aa(lp547
F2.5756004472412
aI52
aI49
aI3
aS'on'
p548
aa(lp549
F0.5887718194532
aI52
aI0
aI3
aS'off'
p550
aa(lp551
F0.18103769760467
aI52
aI29
aI3
aS'on'
p552
aa(lp553
F0.50955107831419
aI52
aI0
aI3
aS'off'
p554
aa(lp555
F0.15667793233069
aI52
aI14
aI3
aS'on'
p556
aa(lp557
F0.5978021121648
aI52
aI0
aI3
aS'off'
p558
aa(lp559
F0.0099999999999909
aI0
aI0
aI0
aS'timeAfterLastHit'
p560
aaa(lp561
(lp562
F0.48262076672199
aI65
aI99
aI3
aS'on'
p563
aa(lp564
F0.1634400401299
aI65
aI0
aI3
aS'off'
p565
aa(lp566
F0.3532653329712
aI64
aI101
aI3
aS'on'
p567
aa(lp568
F0.1874316604144
aI64
aI0
aI3
aS'off'
p569
aa(lp570
F0.47834226674422
aI63
aI58
aI3
aS'on'
p571
aa(lp572
F0.17259462235597
aI63
aI0
aI3
aS'off'
p573
aa(lp574
F0.32897792169661
aI60
aI99
aI3
aS'on'
p575
aa(lp576
F0.15662545033138
aI60
aI0
aI3
aS'off'
p577
aa(lp578
F0.29047708984308
aI60
aI101
aI3
aS'on'
p579
aa(lp580
F0.24305028025628
aI60
aI0
aI3
aS'off'
p581
aa(lp582
F0.2270198782353
aI55
aI96
aI3
aS'on'
p583
aa(lp584
F0.2737921343396
aI55
aI0
aI3
aS'off'
p585
aa(lp586
F0.30620694737445
aI60
aI106
aI3
aS'on'
p587
aa(lp588
F0.20396721442103
aI60
aI0
aI3
aS'off'
p589
aa(lp590
F0.13218839416459
aI0
aI0
aI0
aS'timeAfterLastHit'
p591
aaaI0
aI0
aI0
a(lp592
(lp593
F0.014260852336889
aI36
aI85
aI3
aS'on'
p594
aa(lp595
F0.040273057885571
aI36
aI0
aI3
aS'off'
p596
aa(lp597
F0.68212501267115
aI36
aI96
aI3
aS'on'
p598
aa(lp599
F0.086138077932844
aI36
aI0
aI3
aS'off'
p600
aa(lp601
F0.11788317548681
aI38
aI66
aI3
aS'on'
p602
aa(lp603
F0.11713309300913
aI38
aI0
aI3
aS'off'
p604
aa(lp605
F0.38350755657066
aI36
aI94
aI3
aS'on'
p606
aa(lp607
F0.093567381211443
aI36
aI0
aI3
aS'off'
p608
aa(lp609
F0.96309837429743
aI36
aI99
aI3
aS'on'
p610
aa(lp611
F0.070564344896979
aI36
aI0
aI3
aS'off'
p612
aa(lp613
F0.40885308281528
aI38
aI101
aI3
aS'on'
p614
aa(lp615
F0.11768998899259
aI38
aI0
aI3
aS'off'
p616
aa(lp617
F0.90490600189321
aI0
aI0
aI0
aS'timeAfterLastHit'
p618
aaa(lp619
(lp620
F3.0066833384744
aI40
aI99
aI3
aS'on'
p621
aa(lp622
F0.094836573173666
aI40
aI0
aI3
aS'off'
p623
aa(lp624
F2.8360703424784
aI41
aI101
aI3
aS'on'
p625
aa(lp626
F0.11032552171207
aI41
aI0
aI3
aS'off'
p627
aa(lp628
F0.95041630667538
aI41
aI111
aI3
aS'on'
p629
aa(lp630
F0.1732155803378
aI41
aI0
aI3
aS'off'
p631
aa(lp632
F0.82845233714824
aI0
aI0
aI0
aS'timeAfterLastHit'
p633
aaa(lp634
(lp635
F0.018972918236386
aI52
aI60
aI3
aS'on'
p636
aa(lp637
F1.5931524425205
aI52
aI0
aI3
aS'off'
p638
aa(lp639
F0.28328806405722
aI53
aI82
aI3
aS'on'
p640
aa(lp641
F1.7871419197391
aI53
aI0
aI3
aS'off'
p642
aa(lp643
F0.26692348004502
aI54
aI78
aI3
aS'on'
p644
aa(lp645
F0.64348725032261
aI54
aI0
aI3
aS'off'
p646
aa(lp647
F0.13277715654283
aI54
aI87
aI3
aS'on'
p648
aa(lp649
F0.55720883539396
aI54
aI0
aI3
aS'off'
p650
aa(lp651
F0.1261125652415
aI54
aI54
aI3
aS'on'
p652
aa(lp653
F0.39203091031663
aI54
aI0
aI3
aS'off'
p654
aa(lp655
F0.11779117898953
aI55
aI78
aI3
aS'on'
p656
aa(lp657
F1.6546605196873
aI55
aI0
aI3
aS'off'
p658
aa(lp659
F0.42645275890743
aI0
aI0
aI0
aS'timeAfterLastHit'
p660
aaa(lp661
(lp662
F0.024911254644394
aI53
aI78
aI3
aS'on'
p663
aa(lp664
F1.7549523696371
aI53
aI0
aI3
aS'off'
p665
aa(lp666
F2.1180038938786
aI53
aI89
aI3
aS'on'
p667
aa(lp668
F1.5761654860268
aI53
aI0
aI3
aS'off'
p669
aa(lp670
F0.56479321616769
aI54
aI106
aI3
aS'on'
p671
aa(lp672
F0.49504523124654
aI54
aI0
aI3
aS'off'
p673
aa(lp674
F0.17189377587715
aI54
aI106
aI3
aS'on'
p675
aa(lp676
F0.5172327190852
aI54
aI0
aI3
aS'off'
p677
aa(lp678
F0.17191041537683
aI54
aI101
aI3
aS'on'
p679
aa(lp680
F0.59509163805978
aI54
aI0
aI3
aS'off'
p681
aa(lp682
F0.0099999999999909
aI0
aI0
aI0
aS'timeAfterLastHit'
p683
aaaI0
aI0
aI0
aI0
aI0
aI0
aI0
aI0
aI0
aI0
aI0
aI0
aI0
aI0
aI0
aI0
aI0
aI0
aI0
aI0
aI0
aI0
aI0
aI0
aI0
aI0
aI0
aI0
aI0
aI0
aI0
aI0
aI0
aI0
aI0
aI0
aI0
aI0
aI0
aI0
aI0
aI0
aI0
aI0
aI0
aI0
aI0
aI0
aI0
aI0
aI0
aI0
aI0
aI0
aI0
aI0
aI0
aI0
aI0
aI0
aI0
aI0
aI0
aa(lp684
(dp685
a(dp686
a(dp687
a(dp688
a(dp689
a(dp690
a(dp691
a(dp692
a(dp693
a(dp694
S'button'
p695
I41
sS'playing'
p696
I0
sa(dp697
a(dp698
a(dp699
a(dp700
a(dp701
a(dp702
a(dp703
a(dp704
g695
I51
sg696
I0
sa(dp705
g695
I52
sg696
I01
sa(dp706
a(dp707
a(dp708
a(dp709
a(dp710
a(dp711
a(dp712
a(dp713
a(dp714
a(dp715
g695
I64
sg696
I0
sa(dp716
g695
I65
sg696
I01
sa(dp717
a(dp718
a(dp719
a(dp720
g695
I71
sg696
I01
sa(dp721
g695
I72
sg696
I01
sa(dp722
g695
I73
sg696
I0
sa(dp723
g695
I74
sg696
I0
sa(dp724
a(dp725
a(dp726
a(dp727
a(dp728
a(dp729
a(dp730
a(dp731
a(dp732
a(dp733
a(dp734
a(dp735
a(dp736
a(dp737
a(dp738
a(dp739
a(dp740
a(dp741
a(dp742
a(dp743
a(dp744
a(dp745
a(dp746
a(dp747
a(dp748
a(dp749
a(dp750
a(dp751
a(dp752
a(dp753
a(dp754
a(dp755
a(dp756
a(dp757
a(dp758
a(dp759
a(dp760
a(dp761
a(dp762
a(dp763
a(dp764
a(dp765
a(dp766
a(dp767
a(dp768
a(dp769
a(dp770
a(dp771
a(dp772
a(dp773
a(dp774
a(dp775
a(dp776
a(dp777
a(dp778
a(dp779
a(dp780
a(dp781
a(dp782
a(dp783
a(dp784
a(dp785
a(dp786
aa(lp787
I60
aI60
aI36
aI36
aa(lp788
(lp789
I0
aI2
aI3
aI5
aI7
aI8
aI10
aa(lp790
I0
aI2
aI3
aI5
aI7
aI8
aI10
aa(lp791
I0
aI2
aI3
aI5
aI7
aI8
aI10
aa(lp792
I0
aI1
aI2
aI3
aI4
aI5
aI6
aI7
aI8
aI9
aI10
aI11
aaa(lp793
(lp794
(lp795
I0
aI0
aI0
aI0
aI0
aI0
aI0
aI0
aI0
aI0
aI0
aI0
aa(lp796
I0
aI0
aI0
aI0
aI0
aI0
aI0
aI0
aI0
aI0
aI0
aI0
aa(lp797
I0
aI0
aI0
aI0
aI0
aI0
aI0
aI0
aI0
aI0
aI0
aI0
aa(lp798
I0
aI0
aI0
aI0
aI0
aI0
aI0
aI0
aI0
aI0
aI0
aI0
aaa(lp799
(lp800
I0
aI0
aI0
aI0
aI0
aI0
aI0
aI0
aI0
aI0
aI0
aI0
aa(lp801
I0
aI0
aI0
aI0
aI0
aI0
aI0
aI0
aI0
aI0
aI0
aI0
aa(lp802
I0
aI0
aI0
aI0
aI0
aI0
aI0
aI0
aI0
aI0
aI0
aI0
aa(lp803
I0
aI0
aI0
aI0
aI0
aI0
aI0
aI0
aI0
aI0
aI0
aI0
aaa(lp804
(lp805
I0
aI0
aI0
aI0
aI0
aI0
aI0
aI0
aI0
aI0
aI0
aI0
aa(lp806
I0
aI0
aI0
aI0
aI0
aI0
aI0
aI0
aI0
aI0
aI0
aI0
aa(lp807
I0
aI0
aI0
aI0
aI0
aI0
aI0
aI0
aI0
aI0
aI0
aI0
aa(lp808
I0
aI0
aI0
aI0
aI0
aI0
aI0
aI0
aI0
aI0
aI0
aI0
aaa(lp809
(lp810
I0
aI0
aI0
aI0
aI0
aI0
aI0
aI0
aI0
aI0
aI0
aI0
aa(lp811
I0
aI0
aI0
aI0
aI0
aI0
aI0
aI0
aI0
aI0
aI0
aI0
aa(lp812
I0
aI0
aI0
aI0
aI0
aI0
aI0
aI0
aI0
aI0
aI0
aI0
aa(lp813
I0
aI0
aI0
aI0
aI0
aI0
aI0
aI0
aI0
aI0
aI0
aI0
aaaa(lp814
(lp815
I0
aI0
aI0
aI0
aI0
aI0
aI0
aI0
aI0
aI0
aI0
aI0
aa(lp816
I0
aI0
aI0
aI0
aI0
aI0
aI0
aI0
aI0
aI0
aI0
aI0
aa(lp817
I0
aI0
aI0
aI0
aI0
aI0
aI0
aI0
aI0
aI0
aI0
aI0
aa(lp818
I0
aI0
aI0
aI0
aI0
aI0
aI0
aI0
aI0
aI0
aI0
aI0
aaaa(lp819
(lp820
I0
aI0
aI0
aI0
aI0
aI0
aI0
aI0
aI0
aI0
aI0
aI0
aI0
aI0
aI0
aI0
aI0
a(lp821
(lp822
F0.023402415639794
aI38
aI72
aI2
ag5
aa(lp823
F0.078757530652638
aI38
aI0
aI2
ag7
aa(lp824
F0.42284293889838
aI38
aI68
aI2
ag9
aa(lp825
F0.086343531427019
aI38
aI0
aI2
ag11
aa(lp826
F0.42286867589723
aI36
aI104
aI2
ag13
aa(lp827
F0.12645996523111
aI36
aI0
aI2
ag15
aa(lp828
F0.24253770177211
aI38
aI59
aI2
ag17
aa(lp829
F0.070153695909084
aI38
aI0
aI2
ag19
aa(lp830
F0.38425145304859
aI41
aI85
aI2
ag21
aa(lp831
F0.10157923647262
aI41
aI0
aI2
ag23
aa(lp832
F0.38494054102785
aI38
aI85
aI2
ag25
aa(lp833
F0.070700234392689
aI38
aI0
aI2
ag27
aa(lp834
F0.10242869844751
aI36
aI73
aI2
ag29
aa(lp835
F0.10131066748067
aI36
aI0
aI2
ag31
aa(lp836
F0.21955813445675
aI38
aI78
aI2
ag33
aa(lp837
F0.12545948776119
aI38
aI0
aI2
ag35
aa(lp838
F0.42264094740403
aI36
aI66
aI2
ag37
aa(lp839
F0.062892311626001
aI36
aI0
aI2
ag39
aa(lp840
F0.10959804573349
aI33
aI106
aI2
ag41
aa(lp841
F0.070650101394676
aI33
aI0
aI2
ag43
aa(lp842
F0.26010638524804
aI31
aI70
aI2
ag45
aa(lp843
F0.062719372130687
aI31
aI0
aI2
ag47
aa(lp844
F0.04779792794784
aI0
aI0
aI0
ag49
aaa(lp845
(lp846
F0.39122727799258
aI26
aI53
aI2
ag52
aa(lp847
F0.039050860836142
aI26
aI0
aI2
ag54
aa(lp848
F0.11818571347749
aI26
aI65
aI2
ag56
aa(lp849
F0.03840016835602
aI26
aI0
aI2
ag58
aa(lp850
F0.31497795111272
aI29
aI62
aI2
ag60
aa(lp851
F0.078912393648352
aI29
aI0
aI2
ag62
aa(lp852
F0.094396396686534
aI29
aI70
aI2
ag64
aa(lp853
F0.077739000683323
aI29
aI0
aI2
ag66
aa(lp854
F0.22016187993859
aI31
aI73
aI2
ag68
aa(lp855
F0.070828497889124
aI31
aI0
aI2
ag70
aa(lp856
F0.070747053891864
aI31
aI92
aI2
ag72
aa(lp857
F0.070700369392853
aI31
aI0
aI2
ag74
aa(lp858
F0.25872957278898
aI33
aI89
aI2
ag76
aa(lp859
F0.063227911115519
aI33
aI0
aI2
ag78
aa(lp860
F0.12565016475583
aI33
aI104
aI2
ag80
aa(lp861
F0.078304247166216
aI33
aI0
aI2
ag82
aa(lp862
F0.23583094997184
aI36
aI73
aI2
ag84
aa(lp863
F0.062970883122944
aI36
aI0
aI2
ag86
aa(lp864
F0.078235050668809
aI36
aI99
aI2
ag88
aa(lp865
F0.054487618376243
aI36
aI0
aI2
ag90
aa(lp866
F0.29808609461588
aI36
aI73
aI2
ag92
aa(lp867
F0.070971713385006
aI36
aI0
aI2
ag94
aa(lp868
F0.093382606717114
aI38
aI104
aI2
ag96
aa(lp869
F0.086485263422674
aI38
aI0
aI2
ag98
aa(lp870
F0.24323400475078
aI36
aI71
aI2
ag100
aa(lp871
F0.078341574665046
aI36
aI0
aI2
ag102
aa(lp872
F0.094118607195469
aI33
aI106
aI2
ag104
aa(lp873
F0.09394272920008
aI33
aI0
aI2
ag106
aa(lp874
F0.20456422190318
aI31
aI92
aI2
ag108
aa(lp875
F0.10941020223981
aI31
aI0
aI2
ag110
aa(lp876
F0.084699020032986
aI0
aI0
aI0
ag112
aaaI0
a(lp877
(lp878
F2.5314964170575
aI62
aI99
aI3
ag115
aa(lp879
F1.4044257061446
aI62
aI0
aI3
ag117
aa(lp880
F9.057582741063
aI62
aI70
aI3
ag119
aa(lp881
F2.6818408345748
aI62
aI0
aI3
ag121
aa(lp882
F0.32465430116008
aI0
aI0
aI0
ag123
aaaI0
aI0
aI0
aI0
aI0
aI0
aI0
a(lp883
(lp884
F2.4886355040024
aI57
aI106
aI3
ag126
aa(lp885
F1.4576152290597
aI57
aI0
aI3
ag128
aa(lp886
F4.0537492669379
aI0
aI0
aI0
ag130
aaaI0
aI0
aI0
aI0
a(lp887
(lp888
F0.0
aI32
aI101
aI3
ag133
aa(lp889
F0.13390181450941
aI32
aI0
aI3
ag135
aa(lp890
F0.69943151882392
aI32
aI80
aI3
ag137
aa(lp891
F0.10211531545674
aI32
aI0
aI3
ag139
aa(lp892
F0.064551351209924
aI33
aI96
aI3
ag141
aa(lp893
F0.10982364272699
aI33
aI0
aI3
ag143
aa(lp894
F0.22350969060634
aI32
aI99
aI3
ag145
aa(lp895
F0.12541576426233
aI32
aI0
aI3
ag147
aa(lp896
F0.54125090240434
aI32
aI89
aI3
ag149
aa(lp897
F0.1324529390526
aI32
aI0
aI3
ag151
aa(lp898
F0.3675470609474
aI32
aI94
aI3
ag153
aa(lp899
F0.11776996599018
aI32
aI0
aI3
ag155
aa(lp900
F0.38223003400982
aI33
aI113
aI3
ag157
aa(lp901
F0.16494778008419
aI33
aI0
aI3
ag159
aa(lp902
F0.83505221991581
aI0
aI0
aI0
ag161
aaa(lp903
(lp904
F2.9910333101101
aI40
aI106
aI3
ag164
aa(lp905
F0.086293347428295
aI40
aI0
aI3
ag166
aa(lp906
F2.92426831635
aI41
aI106
aI3
ag168
aa(lp907
F0.12503375627369
aI41
aI0
aI3
ag170
aa(lp908
F0.6676509806025
aI41
aI108
aI3
ag172
aa(lp909
F0.13307837753393
aI41
aI0
aI3
ag174
aa(lp910
F1.0726419117015
aI0
aI0
aI0
ag176
aaa(lp911
(lp912
F0.033774448790325
aI52
aI104
aI3
ag179
aa(lp913
F1.537766909171
aI52
aI0
aI3
ag181
aa(lp914
F0.39951955359334
aI53
aI101
aI3
ag183
aa(lp915
F1.6453579504645
aI53
aI0
aI3
ag185
aa(lp916
F0.3845215010403
aI54
aI106
aI3
ag187
aa(lp917
F0.57968694972402
aI54
aI0
aI3
ag189
aa(lp918
F0.17288649684764
aI54
aI94
aI3
ag191
aa(lp919
F0.51815764605766
aI54
aI0
aI3
ag193
aa(lp920
F0.22013756493936
aI54
aI106
aI3
ag195
aa(lp921
F0.33831766241735
aI54
aI0
aI3
ag197
aa(lp922
F0.18774768940472
aI55
aI101
aI3
ag199
aa(lp923
F1.9721256275498
aI55
aI0
aI3
ag201
aa(lp924
F0.0099999999999909
aI0
aI0
aI0
ag203
aaa(lp925
(lp926
F0.054843107139504
aI53
aI115
aI3
ag206
aa(lp927
F0.00010763849684281
aI48
aI17
aI3
ag208
aa(lp928
F0.039234153330767
aI48
aI0
aI3
ag210
aa(lp929
F0.055088059358127
aI48
aI19
aI3
ag212
aa(lp930
F0.11778429098979
aI48
aI0
aI3
ag214
aa(lp931
F2.6721780973628
aI53
aI0
aI3
ag216
aa(lp932
F1.0275355883771
aI53
aI113
aI3
ag218
aa(lp933
F1.8123695114873
aI53
aI0
aI3
ag220
aa(lp934
F0.18849333938238
aI54
aI89
aI3
ag222
aa(lp935
F0.62735507180344
aI54
aI0
aI3
ag224
aa(lp936
F0.14872952406745
aI54
aI115
aI3
ag226
aa(lp937
F0.5569810199006
aI54
aI0
aI3
ag228
aa(lp938
F0.1568234863264
aI54
aI101
aI3
ag230
aa(lp939
F0.53247711197753
aI54
aI0
aI3
ag232
aa(lp940
F0.0099999999999909
aI0
aI0
aI0
ag234
aaa(lp941
(lp942
F0.0036352355617737
aI55
aI101
aI3
ag237
aa(lp943
F1.1219306350638
aI55
aI0
aI3
ag239
aa(lp944
F0.38438415654446
aI60
aI115
aI3
ag241
aa(lp945
F1.5218350526459
aI60
aI0
aI3
ag243
aa(lp946
F0.96432145176095
aI55
aI111
aI3
ag245
aa(lp947
F1.2257407434702
aI55
aI0
aI3
ag247
aa(lp948
F0.32128946042462
aI60
aI104
aI3
ag249
aa(lp949
F1.2150835032878
aI60
aI0
aI3
ag251
aa(lp950
F0.25815165430652
aI54
aI111
aI3
ag253
aa(lp951
F0.8476333757385
aI54
aI0
aI3
ag255
aa(lp952
F0.13599473119552
aI0
aI0
aI0
ag257
aaaI0
aI0
aI0
aI0
aI0
aI0
aI0
aI0
aI0
aI0
aI0
aI0
aI0
aI0
aI0
aI0
aI0
aI0
aI0
aI0
aI0
aI0
aI0
aI0
aI0
aI0
aI0
aI0
aI0
aI0
aI0
aI0
aI0
aI0
aI0
aI0
aI0
aI0
aI0
aI0
aI0
aI0
aI0
aI0
aI0
aI0
aI0
aI0
aI0
aI0
aI0
aI0
aI0
aI0
aI0
aI0
aI0
aI0
aI0
aI0
aI0
aI0
aa(lp953
(dp954
a(dp955
a(dp956
a(dp957
a(dp958
a(dp959
a(dp960
a(dp961
a(dp962
a(dp963
a(dp964
a(dp965
a(dp966
a(dp967
a(dp968
a(dp969
a(dp970
a(dp971
g277
I51
sg278
I1
sa(dp972
g277
I52
sg278
I0
sa(dp973
a(dp974
g277
I54
sg278
I0
sa(dp975
a(dp976
a(dp977
a(dp978
a(dp979
a(dp980
a(dp981
a(dp982
g277
I64
sg278
I0
sa(dp983
g278
I0
sa(dp984
a(dp985
a(dp986
a(dp987
g277
I71
sg278
I1
sa(dp988
g277
I72
sg278
I1
sa(dp989
g277
I73
sg278
I0
sa(dp990
g277
I74
sg278
I0
sa(dp991
g277
I75
sg278
I0
sa(dp992
a(dp993
a(dp994
a(dp995
a(dp996
a(dp997
a(dp998
a(dp999
a(dp1000
a(dp1001
a(dp1002
a(dp1003
a(dp1004
a(dp1005
a(dp1006
a(dp1007
a(dp1008
a(dp1009
a(dp1010
a(dp1011
a(dp1012
a(dp1013
a(dp1014
a(dp1015
a(dp1016
a(dp1017
a(dp1018
a(dp1019
a(dp1020
a(dp1021
a(dp1022
a(dp1023
a(dp1024
a(dp1025
a(dp1026
a(dp1027
a(dp1028
a(dp1029
a(dp1030
a(dp1031
a(dp1032
a(dp1033
a(dp1034
a(dp1035
a(dp1036
a(dp1037
a(dp1038
a(dp1039
a(dp1040
a(dp1041
a(dp1042
a(dp1043
a(dp1044
a(dp1045
a(dp1046
a(dp1047
a(dp1048
a(dp1049
a(dp1050
a(dp1051
a(dp1052
a(dp1053
aa(lp1054
I60
aI60
aI36
aI36
aa(lp1055
(lp1056
I0
aI2
aI3
aI5
aI7
aI8
aI10
aa(lp1057
I0
aI2
aI3
aI5
aI7
aI8
aI10
aa(lp1058
I0
aI2
aI3
aI5
aI7
aI8
aI10
aa(lp1059
I0
aI1
aI2
aI3
aI4
aI5
aI6
aI7
aI8
aI9
aI10
aI11
aaa(lp1060
(lp1061
(lp1062
I0
aI0
aI0
aI0
aI0
aI0
aI0
aI0
aI0
aI0
aI0
aI0
aa(lp1063
I0
aI0
aI0
aI0
aI0
aI0
aI0
aI0
aI0
aI0
aI0
aI0
aa(lp1064
I0
aI0
aI0
aI0
aI0
aI0
aI0
aI0
aI0
aI0
aI0
aI0
aa(lp1065
I0
aI0
aI0
aI0
aI0
aI0
aI0
aI0
aI0
aI0
aI0
aI0
aaa(lp1066
(lp1067
I0
aI0
aI0
aI0
aI0
aI0
aI0
aI0
aI0
aI0
aI0
aI0
aa(lp1068
I0
aI0
aI0
aI0
aI0
aI0
aI0
aI0
aI0
aI0
aI0
aI0
aa(lp1069
I0
aI0
aI0
aI0
aI0
aI0
aI0
aI0
aI0
aI0
aI0
aI0
aa(lp1070
I0
aI0
aI0
aI0
aI0
aI0
aI0
aI0
aI0
aI0
aI0
aI0
aaa(lp1071
(lp1072
I0
aI0
aI0
aI0
aI0
aI0
aI0
aI0
aI0
aI0
aI0
aI0
aa(lp1073
I0
aI0
aI0
aI0
aI0
aI0
aI0
aI0
aI0
aI0
aI0
aI0
aa(lp1074
I0
aI0
aI0
aI0
aI0
aI0
aI0
aI0
aI0
aI0
aI0
aI0
aa(lp1075
I0
aI0
aI0
aI0
aI0
aI0
aI0
aI0
aI0
aI0
aI0
aI0
aaa(lp1076
(lp1077
I0
aI0
aI0
aI0
aI0
aI0
aI0
aI0
aI0
aI0
aI0
aI0
aa(lp1078
I0
aI0
aI0
aI0
aI0
aI0
aI0
aI0
aI0
aI0
aI0
aI0
aa(lp1079
I0
aI0
aI0
aI0
aI0
aI0
aI0
aI0
aI0
aI0
aI0
aI0
aa(lp1080
I0
aI0
aI0
aI0
aI0
aI0
aI0
aI0
aI0
aI0
aI0
aI0
aaaa(lp1081
(lp1082
I0
aI0
aI0
aI0
aI0
aI0
aI0
aI0
aI0
aI0
aI0
aI0
aa(lp1083
I0
aI0
aI0
aI0
aI0
aI0
aI0
aI0
aI0
aI0
aI0
aI0
aa(lp1084
I0
aI0
aI0
aI0
aI0
aI0
aI0
aI0
aI0
aI0
aI0
aI0
aa(lp1085
I0
aI0
aI0
aI0
aI0
aI0
aI0
aI0
aI0
aI0
aI0
aI0
aaaaI0
aI0
aI0
aI0
aI0
aI0
aI0
aI0
aI0
aI0
aI0
aI0
aI0
aI0
aI0
aI0
aI0
aI0
aI0
aI0
aI0
aI0
aI0
aI0
aI0
aI0
aI0
aI0
a.