(lp0
I0
a(lp1
(lp2
I0
aI0
aI0
aI0
aI0
aI0
aI0
aI0
aI0
aI0
aI0
aI0
aI0
aI0
aI0
aI0
aI0
aI0
aI0
aI0
aI0
aI0
aI0
aI0
aI0
aI0
aI0
aI0
aI0
aI0
aI0
aI0
aI0
aI0
aI0
aI0
aI0
aI0
aI0
aI0
aI0
aI0
aI0
aI0
aI0
aI0
aI0
aI0
aI0
aI0
aI0
aI0
aI0
aI0
aI0
aI0
aI0
aI0
aI0
aI0
aI0
aI0
aI0
aI0
aI0
aI0
aI0
aI0
aI0
aI0
aI0
aI0
aI0
aI0
aI0
aI0
aI0
aI0
aI0
aI0
aI0
aI0
aI0
aI0
aI0
aI0
aI0
aI0
aI0
aI0
aI0
aI0
aI0
aI0
aI0
aI0
aI0
aI0
aI0
aI0
aa(lp3
(dp4
a(dp5
a(dp6
a(dp7
a(dp8
a(dp9
S'playing'
p10
I0
sa(dp11
a(dp12
a(dp13
a(dp14
g10
I0
sa(dp15
a(dp16
a(dp17
a(dp18
a(dp19
a(dp20
a(dp21
a(dp22
g10
I0
sa(dp23
g10
I0
sa(dp24
a(dp25
a(dp26
a(dp27
a(dp28
a(dp29
a(dp30
a(dp31
a(dp32
a(dp33
g10
I0
sa(dp34
g10
I0
sa(dp35
a(dp36
a(dp37
a(dp38
g10
I1
sa(dp39
g10
I1
sa(dp40
g10
I0
sa(dp41
g10
I0
sa(dp42
a(dp43
a(dp44
a(dp45
a(dp46
a(dp47
a(dp48
a(dp49
a(dp50
a(dp51
a(dp52
a(dp53
a(dp54
a(dp55
a(dp56
a(dp57
a(dp58
a(dp59
a(dp60
a(dp61
a(dp62
a(dp63
a(dp64
a(dp65
a(dp66
a(dp67
a(dp68
a(dp69
a(dp70
a(dp71
a(dp72
a(dp73
a(dp74
a(dp75
a(dp76
a(dp77
a(dp78
a(dp79
a(dp80
a(dp81
a(dp82
a(dp83
a(dp84
a(dp85
a(dp86
a(dp87
a(dp88
a(dp89
a(dp90
a(dp91
a(dp92
a(dp93
a(dp94
a(dp95
a(dp96
a(dp97
a(dp98
a(dp99
a(dp100
a(dp101
a(dp102
a(dp103
a(dp104
aa(lp105
I60
aI60
aI36
aI36
aa(lp106
(lp107
I0
aI2
aI3
aI5
aI7
aI8
aI10
aa(lp108
I0
aI2
aI3
aI5
aI7
aI8
aI10
aa(lp109
I0
aI2
aI3
aI5
aI7
aI8
aI10
aa(lp110
I0
aI1
aI2
aI3
aI4
aI5
aI6
aI7
aI8
aI9
aI10
aI11
aaa(lp111
(lp112
(lp113
I0
aI0
aI0
aI0
aI0
aI0
aI0
aI0
aI0
aI0
aI0
aI0
aa(lp114
I0
aI0
aI0
aI0
aI0
aI0
aI0
aI0
aI0
aI0
aI0
aI0
aa(lp115
I0
aI0
aI0
aI0
aI0
aI0
aI0
aI0
aI0
aI0
aI0
aI0
aa(lp116
I0
aI0
aI0
aI0
aI0
aI0
aI0
aI0
aI0
aI0
aI0
aI0
aaa(lp117
(lp118
I0
aI0
aI0
aI0
aI0
aI0
aI0
aI0
aI0
aI0
aI0
aI0
aa(lp119
I0
aI0
aI0
aI0
aI0
aI0
aI0
aI0
aI0
aI0
aI0
aI0
aa(lp120
I0
aI0
aI0
aI0
aI0
aI0
aI0
aI0
aI0
aI0
aI0
aI0
aa(lp121
I0
aI0
aI0
aI0
aI0
aI0
aI0
aI0
aI0
aI0
aI0
aI0
aaa(lp122
(lp123
I0
aI0
aI0
aI0
aI0
aI0
aI0
aI0
aI0
aI0
aI0
aI0
aa(lp124
I0
aI0
aI0
aI0
aI0
aI0
aI0
aI0
aI0
aI0
aI0
aI0
aa(lp125
I0
aI0
aI0
aI0
aI0
aI0
aI0
aI0
aI0
aI0
aI0
aI0
aa(lp126
I0
aI0
aI0
aI0
aI0
aI0
aI0
aI0
aI0
aI0
aI0
aI0
aaa(lp127
(lp128
I0
aI0
aI0
aI0
aI0
aI0
aI0
aI0
aI0
aI0
aI0
aI0
aa(lp129
I0
aI0
aI0
aI0
aI0
aI0
aI0
aI0
aI0
aI0
aI0
aI0
aa(lp130
I0
aI0
aI0
aI0
aI0
aI0
aI0
aI0
aI0
aI0
aI0
aI0
aa(lp131
I0
aI0
aI0
aI0
aI0
aI0
aI0
aI0
aI0
aI0
aI0
aI0
aaaa(lp132
(lp133
I0
aI0
aI0
aI0
aI0
aI0
aI0
aI0
aI0
aI0
aI0
aI0
aa(lp134
I0
aI0
aI0
aI0
aI0
aI0
aI0
aI0
aI0
aI0
aI0
aI0
aa(lp135
I0
aI0
aI0
aI0
aI0
aI0
aI0
aI0
aI0
aI0
aI0
aI0
aa(lp136
I0
aI0
aI0
aI0
aI0
aI0
aI0
aI0
aI0
aI0
aI0
aI0
aaaa(lp137
(lp138
I0
aI0
aI0
aI0
aI0
aI0
aI0
aI0
aI0
a(lp139
(lp140
F0.044387525319962
aI48
aI64
aI0
aS'on'
p141
aa(lp142
F-0.041564434766769
aI51
aI64
aI0
aS'on'
p143
aa(lp144
F0.0080123662949063
aI55
aI64
aI0
aS'on'
p145
aa(lp146
F3.0086706791089
aI48
aI64
aI0
aS'off'
p147
aa(lp148
F0.00037813348876625
aI51
aI64
aI0
aS'off'
p149
aa(lp150
F0.00028954799131498
aI55
aI64
aI0
aS'off'
p151
aa(lp152
F0.00058820248250413
aI67
aI64
aI0
aS'on'
p153
aa(lp154
F7.3451997650409e-05
aI60
aI64
aI0
aS'on'
p155
aa(lp156
F0.00027311399207974
aI63
aI64
aI0
aS'on'
p157
aa(lp158
F2.9257837243049
aI67
aI64
aI0
aS'off'
p159
aa(lp160
F0.0011109254669464
aI60
aI64
aI0
aS'off'
p161
aa(lp162
F0.00024337949253095
aI63
aI64
aI0
aS'off'
p163
aa(lp164
F0.0015397604540794
aI72
aI64
aI0
aS'on'
p165
aa(lp166
F0.00039560998834531
aI75
aI64
aI0
aS'on'
p167
aa(lp168
F0.0004082489879238
aI79
aI64
aI0
aS'on'
p169
aa(lp170
F3.0527504765209
aI72
aI64
aI0
aS'off'
p171
aa(lp172
F0.00034290148960281
aI75
aI64
aI0
aS'off'
p173
aa(lp174
F0.00027020249217458
aI79
aI64
aI0
aS'off'
p175
aa(lp176
F0.00077444397675208
aI74
aI64
aI0
aS'on'
p177
aa(lp178
F6.9211497930155e-05
aI78
aI64
aI0
aS'on'
p179
aa(lp180
F8.7772497408878e-05
aI71
aI64
aI0
aS'on'
p181
aa(lp182
F2.9851147569211
aI74
aI0
aI0
aS'off'
p183
aa(lp184
F0.0
aI78
aI0
aI0
aS'off'
p185
aa(lp186
F0.0
aI71
aI0
aI0
aS'off'
p187
aa(lp188
F0.0099999999999909
aI0
aI0
aI0
aS'timeAfterLastHit'
p189
aaaI0
aI0
aI0
aI0
aI0
aI0
aI0
a(lp190
(lp191
F0.029781484603859
aI36
aI89
aI2
aS'on'
p192
aa(lp193
F0.030344497558303
aI36
aI0
aI2
aS'off'
p194
aa(lp195
F0.64424702429994
aI36
aI111
aI2
aS'on'
p196
aa(lp197
F0.18064598611636
aI36
aI0
aI2
aS'off'
p198
aa(lp199
F0.5877272989843
aI41
aI106
aI2
aS'on'
p200
aa(lp201
F0.14946354454571
aI41
aI0
aI2
aS'off'
p202
aa(lp203
F0.58902213194574
aI46
aI111
aI2
aS'on'
p204
aa(lp205
F0.14082646830298
aI46
aI0
aI2
aS'off'
p206
aa(lp207
F0.5340906305828
aI51
aI115
aI2
aS'on'
p208
aa(lp209
F0.17993926713746
aI51
aI0
aI2
aS'off'
p210
aa(lp211
F0.93391166592255
aI0
aI0
aI0
aS'timeAfterLastHit'
p212
aaa(lp213
(lp214
F0.01159887313861
aI36
aI66
aI2
aS'on'
p215
aa(lp216
F0.032659226655596
aI36
aI0
aI2
aS'off'
p217
aa(lp218
F0.13855015119361
aI46
aI99
aI2
aS'on'
p219
aa(lp220
F0.10229861845119
aI46
aI0
aI2
aS'off'
p221
aa(lp222
F0.39846929712485
aI41
aI104
aI2
aS'on'
p223
aa(lp224
F0.10187161946396
aI41
aI0
aI2
aS'off'
p225
aa(lp226
F0.36827660502468
aI47
aI101
aI2
aS'on'
p227
aa(lp228
F0.13410663350305
aI47
aI0
aI2
aS'off'
p229
aa(lp230
F0.38452706603994
aI46
aI106
aI2
aS'on'
p231
aa(lp232
F0.11711205850997
aI46
aI0
aI2
aS'off'
p233
aa(lp234
F0.39175059782519
aI53
aI108
aI2
aS'on'
p235
aa(lp236
F0.11850792846781
aI53
aI0
aI2
aS'off'
p237
aa(lp238
F0.33686236546055
aI52
aI99
aI2
aS'on'
p239
aa(lp240
F0.10935693124111
aI52
aI0
aI2
aS'off'
p241
aa(lp242
F0.41633496259237
aI46
aI96
aI2
aS'on'
p243
aa(lp244
F0.13319863403058
aI46
aI0
aI2
aS'off'
p245
aa(lp246
F0.63553257955937
aI43
aI111
aI2
aS'on'
p247
aa(lp248
F0.14081787630357
aI43
aI0
aI2
aS'off'
p249
aa(lp250
F0.13362718251756
aI49
aI108
aI2
aS'on'
p251
aa(lp252
F0.14032238581785
aI49
aI0
aI2
aS'off'
p253
aa(lp254
F0.32142966692072
aI48
aI104
aI2
aS'on'
p255
aa(lp256
F0.13327048852807
aI48
aI0
aI2
aS'off'
p257
aa(lp258
F0.39989259608228
aI42
aI111
aI2
aS'on'
p259
aa(lp260
F0.12554603325862
aI42
aI0
aI2
aS'off'
p261
aa(lp262
F0.40062211206032
aI41
aI106
aI2
aS'on'
p263
aa(lp264
F0.14094980579921
aI41
aI0
aI2
aS'off'
p265
aa(lp266
F0.32082195993917
aI47
aI96
aI2
aS'on'
p267
aa(lp268
F0.13374430701379
aI47
aI0
aI2
aS'off'
p269
aa(lp270
F0.32970749317383
aI46
aI106
aI2
aS'on'
p271
aa(lp272
F0.11747386599927
aI46
aI0
aI2
aS'off'
p273
aa(lp274
F0.39280054979372
aI41
aI108
aI2
aS'on'
p275
aa(lp276
F0.27396065033554
aI41
aI0
aI2
aS'off'
p277
aa(lp278
F0.56399887817406
aI0
aI0
aI0
aS'timeAfterLastHit'
p279
aaaI0
aI0
aI0
aI0
aI0
aI0
aI0
aI0
aI0
a(lp280
(lp281
F0.0060721874236833
aI52
aI0
aI3
aS'off'
p282
aa(lp283
F0.018104374408722
aI57
aI69
aI3
aS'on'
p284
aa(lp285
F1.481218530443
aI57
aI0
aI3
aS'off'
p286
aa(lp287
F0.43155260763888
aI60
aI101
aI3
aS'on'
p288
aa(lp289
F1.443611212977
aI60
aI0
aI3
aS'off'
p290
aa(lp291
F2.5756004472412
aI52
aI49
aI3
aS'on'
p292
aa(lp293
F0.5887718194532
aI52
aI0
aI3
aS'off'
p294
aa(lp295
F0.18103769760467
aI52
aI29
aI3
aS'on'
p296
aa(lp297
F0.50955107831419
aI52
aI0
aI3
aS'off'
p298
aa(lp299
F0.15667793233069
aI52
aI14
aI3
aS'on'
p300
aa(lp301
F0.5978021121648
aI52
aI0
aI3
aS'off'
p302
aa(lp303
F0.0099999999999909
aI0
aI0
aI0
aS'timeAfterLastHit'
p304
aaa(lp305
(lp306
F0.48262076672199
aI65
aI99
aI3
aS'on'
p307
aa(lp308
F0.1634400401299
aI65
aI0
aI3
aS'off'
p309
aa(lp310
F0.3532653329712
aI64
aI101
aI3
aS'on'
p311
aa(lp312
F0.1874316604144
aI64
aI0
aI3
aS'off'
p313
aa(lp314
F0.47834226674422
aI63
aI58
aI3
aS'on'
p315
aa(lp316
F0.17259462235597
aI63
aI0
aI3
aS'off'
p317
aa(lp318
F0.32897792169661
aI60
aI99
aI3
aS'on'
p319
aa(lp320
F0.15662545033138
aI60
aI0
aI3
aS'off'
p321
aa(lp322
F0.29047708984308
aI60
aI101
aI3
aS'on'
p323
aa(lp324
F0.24305028025628
aI60
aI0
aI3
aS'off'
p325
aa(lp326
F0.2270198782353
aI55
aI96
aI3
aS'on'
p327
aa(lp328
F0.2737921343396
aI55
aI0
aI3
aS'off'
p329
aa(lp330
F0.30620694737445
aI60
aI106
aI3
aS'on'
p331
aa(lp332
F0.20396721442103
aI60
aI0
aI3
aS'off'
p333
aa(lp334
F0.13218839416459
aI0
aI0
aI0
aS'timeAfterLastHit'
p335
aaaI0
aI0
aI0
a(lp336
(lp337
F0.014260852336889
aI36
aI85
aI3
aS'on'
p338
aa(lp339
F0.040273057885571
aI36
aI0
aI3
aS'off'
p340
aa(lp341
F0.68212501267115
aI36
aI96
aI3
aS'on'
p342
aa(lp343
F0.086138077932844
aI36
aI0
aI3
aS'off'
p344
aa(lp345
F0.11788317548681
aI38
aI66
aI3
aS'on'
p346
aa(lp347
F0.11713309300913
aI38
aI0
aI3
aS'off'
p348
aa(lp349
F0.38350755657066
aI36
aI94
aI3
aS'on'
p350
aa(lp351
F0.093567381211443
aI36
aI0
aI3
aS'off'
p352
aa(lp353
F0.96309837429743
aI36
aI99
aI3
aS'on'
p354
aa(lp355
F0.070564344896979
aI36
aI0
aI3
aS'off'
p356
aa(lp357
F0.40885308281528
aI38
aI101
aI3
aS'on'
p358
aa(lp359
F0.11768998899259
aI38
aI0
aI3
aS'off'
p360
aa(lp361
F0.90490600189321
aI0
aI0
aI0
aS'timeAfterLastHit'
p362
aaa(lp363
(lp364
F3.0066833384744
aI40
aI99
aI3
aS'on'
p365
aa(lp366
F0.094836573173666
aI40
aI0
aI3
aS'off'
p367
aa(lp368
F2.8360703424784
aI41
aI101
aI3
aS'on'
p369
aa(lp370
F0.11032552171207
aI41
aI0
aI3
aS'off'
p371
aa(lp372
F0.95041630667538
aI41
aI111
aI3
aS'on'
p373
aa(lp374
F0.1732155803378
aI41
aI0
aI3
aS'off'
p375
aa(lp376
F0.82845233714824
aI0
aI0
aI0
aS'timeAfterLastHit'
p377
aaa(lp378
(lp379
F0.018972918236386
aI52
aI60
aI3
aS'on'
p380
aa(lp381
F1.5931524425205
aI52
aI0
aI3
aS'off'
p382
aa(lp383
F0.28328806405722
aI53
aI82
aI3
aS'on'
p384
aa(lp385
F1.7871419197391
aI53
aI0
aI3
aS'off'
p386
aa(lp387
F0.26692348004502
aI54
aI78
aI3
aS'on'
p388
aa(lp389
F0.64348725032261
aI54
aI0
aI3
aS'off'
p390
aa(lp391
F0.13277715654283
aI54
aI87
aI3
aS'on'
p392
aa(lp393
F0.55720883539396
aI54
aI0
aI3
aS'off'
p394
aa(lp395
F0.1261125652415
aI54
aI54
aI3
aS'on'
p396
aa(lp397
F0.39203091031663
aI54
aI0
aI3
aS'off'
p398
aa(lp399
F0.11779117898953
aI55
aI78
aI3
aS'on'
p400
aa(lp401
F1.6546605196873
aI55
aI0
aI3
aS'off'
p402
aa(lp403
F0.42645275890743
aI0
aI0
aI0
aS'timeAfterLastHit'
p404
aaa(lp405
(lp406
F0.024911254644394
aI53
aI78
aI3
aS'on'
p407
aa(lp408
F1.7549523696371
aI53
aI0
aI3
aS'off'
p409
aa(lp410
F2.1180038938786
aI53
aI89
aI3
aS'on'
p411
aa(lp412
F1.5761654860268
aI53
aI0
aI3
aS'off'
p413
aa(lp414
F0.56479321616769
aI54
aI106
aI3
aS'on'
p415
aa(lp416
F0.49504523124654
aI54
aI0
aI3
aS'off'
p417
aa(lp418
F0.17189377587715
aI54
aI106
aI3
aS'on'
p419
aa(lp420
F0.5172327190852
aI54
aI0
aI3
aS'off'
p421
aa(lp422
F0.17191041537683
aI54
aI101
aI3
aS'on'
p423
aa(lp424
F0.59509163805978
aI54
aI0
aI3
aS'off'
p425
aa(lp426
F0.0099999999999909
aI0
aI0
aI0
aS'timeAfterLastHit'
p427
aaaI0
aI0
aI0
aI0
aI0
aI0
aI0
aI0
aI0
aI0
aI0
aI0
aI0
aI0
aI0
aI0
aI0
aI0
aI0
aI0
aI0
aI0
aI0
aI0
aI0
aI0
aI0
aI0
aI0
aI0
aI0
aI0
aI0
aI0
aI0
aI0
aI0
aI0
aI0
aI0
aI0
aI0
aI0
aI0
aI0
aI0
aI0
aI0
aI0
aI0
aI0
aI0
aI0
aI0
aI0
aI0
aI0
aI0
aI0
aI0
aI0
aI0
aI0
aa(lp428
(dp429
a(dp430
a(dp431
a(dp432
a(dp433
a(dp434
a(dp435
a(dp436
a(dp437
a(dp438
S'button'
p439
I41
sS'playing'
p440
I0
sa(dp441
a(dp442
a(dp443
a(dp444
a(dp445
a(dp446
a(dp447
a(dp448
g439
I51
sg440
I0
sa(dp449
g439
I52
sg440
I01
sa(dp450
a(dp451
a(dp452
a(dp453
a(dp454
a(dp455
a(dp456
a(dp457
a(dp458
a(dp459
g439
I64
sg440
I0
sa(dp460
g439
I65
sg440
I01
sa(dp461
a(dp462
a(dp463
a(dp464
g439
I71
sg440
I01
sa(dp465
g439
I72
sg440
I01
sa(dp466
g439
I73
sg440
I0
sa(dp467
g439
I74
sg440
I0
sa(dp468
a(dp469
a(dp470
a(dp471
a(dp472
a(dp473
a(dp474
a(dp475
a(dp476
a(dp477
a(dp478
a(dp479
a(dp480
a(dp481
a(dp482
a(dp483
a(dp484
a(dp485
a(dp486
a(dp487
a(dp488
a(dp489
a(dp490
a(dp491
a(dp492
a(dp493
a(dp494
a(dp495
a(dp496
a(dp497
a(dp498
a(dp499
a(dp500
a(dp501
a(dp502
a(dp503
a(dp504
a(dp505
a(dp506
a(dp507
a(dp508
a(dp509
a(dp510
a(dp511
a(dp512
a(dp513
a(dp514
a(dp515
a(dp516
a(dp517
a(dp518
a(dp519
a(dp520
a(dp521
a(dp522
a(dp523
a(dp524
a(dp525
a(dp526
a(dp527
a(dp528
a(dp529
a(dp530
aa(lp531
I60
aI60
aI36
aI36
aa(lp532
(lp533
I0
aI2
aI3
aI5
aI7
aI8
aI10
aa(lp534
I0
aI2
aI3
aI5
aI7
aI8
aI10
aa(lp535
I0
aI2
aI3
aI5
aI7
aI8
aI10
aa(lp536
I0
aI1
aI2
aI3
aI4
aI5
aI6
aI7
aI8
aI9
aI10
aI11
aaa(lp537
(lp538
(lp539
I0
aI0
aI0
aI0
aI0
aI0
aI0
aI0
aI0
aI0
aI0
aI0
aa(lp540
I0
aI0
aI0
aI0
aI0
aI0
aI0
aI0
aI0
aI0
aI0
aI0
aa(lp541
I0
aI0
aI0
aI0
aI0
aI0
aI0
aI0
aI0
aI0
aI0
aI0
aa(lp542
I0
aI0
aI0
aI0
aI0
aI0
aI0
aI0
aI0
aI0
aI0
aI0
aaa(lp543
(lp544
I0
aI0
aI0
aI0
aI0
aI0
aI0
aI0
aI0
aI0
aI0
aI0
aa(lp545
I0
aI0
aI0
aI0
aI0
aI0
aI0
aI0
aI0
aI0
aI0
aI0
aa(lp546
I0
aI0
aI0
aI0
aI0
aI0
aI0
aI0
aI0
aI0
aI0
aI0
aa(lp547
I0
aI0
aI0
aI0
aI0
aI0
aI0
aI0
aI0
aI0
aI0
aI0
aaa(lp548
(lp549
I0
aI0
aI0
aI0
aI0
aI0
aI0
aI0
aI0
aI0
aI0
aI0
aa(lp550
I0
aI0
aI0
aI0
aI0
aI0
aI0
aI0
aI0
aI0
aI0
aI0
aa(lp551
I0
aI0
aI0
aI0
aI0
aI0
aI0
aI0
aI0
aI0
aI0
aI0
aa(lp552
I0
aI0
aI0
aI0
aI0
aI0
aI0
aI0
aI0
aI0
aI0
aI0
aaa(lp553
(lp554
I0
aI0
aI0
aI0
aI0
aI0
aI0
aI0
aI0
aI0
aI0
aI0
aa(lp555
I0
aI0
aI0
aI0
aI0
aI0
aI0
aI0
aI0
aI0
aI0
aI0
aa(lp556
I0
aI0
aI0
aI0
aI0
aI0
aI0
aI0
aI0
aI0
aI0
aI0
aa(lp557
I0
aI0
aI0
aI0
aI0
aI0
aI0
aI0
aI0
aI0
aI0
aI0
aaaa(lp558
(lp559
I0
aI0
aI0
aI0
aI0
aI0
aI0
aI0
aI0
aI0
aI0
aI0
aa(lp560
I0
aI0
aI0
aI0
aI0
aI0
aI0
aI0
aI0
aI0
aI0
aI0
aa(lp561
I0
aI0
aI0
aI0
aI0
aI0
aI0
aI0
aI0
aI0
aI0
aI0
aa(lp562
I0
aI0
aI0
aI0
aI0
aI0
aI0
aI0
aI0
aI0
aI0
aI0
aaaaI0
aI0
aI0
aI0
aI0
aI0
aI0
a(lp563
(lp564
I0
aI0
aI0
aI0
aI0
aI0
aI0
aI0
aI0
aI0
aI0
aI0
aI0
aI0
aI0
aI0
aI0
aI0
aI0
aI0
aI0
aI0
aI0
aI0
aI0
aI0
aI0
aI0
aI0
aI0
aI0
aI0
aI0
aI0
aI0
aI0
aI0
aI0
aI0
aI0
aI0
aI0
aI0
aI0
aI0
aI0
aI0
aI0
aI0
aI0
aI0
aI0
aI0
aI0
aI0
aI0
aI0
aI0
aI0
aI0
aI0
aI0
aI0
aI0
aI0
aI0
aI0
aI0
aI0
aI0
aI0
aI0
aI0
aI0
aI0
aI0
aI0
aI0
aI0
aI0
aI0
aI0
aI0
aI0
aI0
aI0
aI0
aI0
aI0
aI0
aI0
aI0
aI0
aI0
aI0
aI0
aI0
aI0
aI0
aI0
aa(lp565
(dp566
a(dp567
a(dp568
a(dp569
a(dp570
a(dp571
a(dp572
a(dp573
a(dp574
a(dp575
g10
I0
sa(dp576
a(dp577
a(dp578
a(dp579
a(dp580
a(dp581
a(dp582
a(dp583
g10
I0
sa(dp584
g10
I0
sa(dp585
a(dp586
a(dp587
a(dp588
a(dp589
a(dp590
a(dp591
a(dp592
a(dp593
a(dp594
g10
I0
sa(dp595
g10
I0
sa(dp596
a(dp597
a(dp598
a(dp599
g10
I1
sa(dp600
g10
I1
sa(dp601
g10
I0
sa(dp602
g10
I0
sa(dp603
a(dp604
a(dp605
a(dp606
a(dp607
a(dp608
a(dp609
a(dp610
a(dp611
a(dp612
a(dp613
a(dp614
a(dp615
a(dp616
a(dp617
a(dp618
a(dp619
a(dp620
a(dp621
a(dp622
a(dp623
a(dp624
a(dp625
a(dp626
a(dp627
a(dp628
a(dp629
a(dp630
a(dp631
a(dp632
a(dp633
a(dp634
a(dp635
a(dp636
a(dp637
a(dp638
a(dp639
a(dp640
a(dp641
a(dp642
a(dp643
a(dp644
a(dp645
a(dp646
a(dp647
a(dp648
a(dp649
a(dp650
a(dp651
a(dp652
a(dp653
a(dp654
a(dp655
a(dp656
a(dp657
a(dp658
a(dp659
a(dp660
a(dp661
a(dp662
a(dp663
a(dp664
a(dp665
aa(lp666
I60
aI60
aI36
aI36
aa(lp667
(lp668
I0
aI2
aI3
aI5
aI7
aI8
aI10
aa(lp669
I0
aI2
aI3
aI5
aI7
aI8
aI10
aa(lp670
I0
aI2
aI3
aI5
aI7
aI8
aI10
aa(lp671
I0
aI1
aI2
aI3
aI4
aI5
aI6
aI7
aI8
aI9
aI10
aI11
aaa(lp672
(lp673
(lp674
I0
aI0
aI0
aI0
aI0
aI0
aI0
aI0
aI0
aI0
aI0
aI0
aa(lp675
I0
aI0
aI0
aI0
aI0
aI0
aI0
aI0
aI0
aI0
aI0
aI0
aa(lp676
I0
aI0
aI0
aI0
aI0
aI0
aI0
aI0
aI0
aI0
aI0
aI0
aa(lp677
I0
aI0
aI0
aI0
aI0
aI0
aI0
aI0
aI0
aI0
aI0
aI0
aaa(lp678
(lp679
I0
aI0
aI0
aI0
aI0
aI0
aI0
aI0
aI0
aI0
aI0
aI0
aa(lp680
I0
aI0
aI0
aI0
aI0
aI0
aI0
aI0
aI0
aI0
aI0
aI0
aa(lp681
I0
aI0
aI0
aI0
aI0
aI0
aI0
aI0
aI0
aI0
aI0
aI0
aa(lp682
I0
aI0
aI0
aI0
aI0
aI0
aI0
aI0
aI0
aI0
aI0
aI0
aaa(lp683
(lp684
I0
aI0
aI0
aI0
aI0
aI0
aI0
aI0
aI0
aI0
aI0
aI0
aa(lp685
I0
aI0
aI0
aI0
aI0
aI0
aI0
aI0
aI0
aI0
aI0
aI0
aa(lp686
I0
aI0
aI0
aI0
aI0
aI0
aI0
aI0
aI0
aI0
aI0
aI0
aa(lp687
I0
aI0
aI0
aI0
aI0
aI0
aI0
aI0
aI0
aI0
aI0
aI0
aaa(lp688
(lp689
I0
aI0
aI0
aI0
aI0
aI0
aI0
aI0
aI0
aI0
aI0
aI0
aa(lp690
I0
aI0
aI0
aI0
aI0
aI0
aI0
aI0
aI0
aI0
aI0
aI0
aa(lp691
I0
aI0
aI0
aI0
aI0
aI0
aI0
aI0
aI0
aI0
aI0
aI0
aa(lp692
I0
aI0
aI0
aI0
aI0
aI0
aI0
aI0
aI0
aI0
aI0
aI0
aaaa(lp693
(lp694
I0
aI0
aI0
aI0
aI0
aI0
aI0
aI0
aI0
aI0
aI0
aI0
aa(lp695
I0
aI0
aI0
aI0
aI0
aI0
aI0
aI0
aI0
aI0
aI0
aI0
aa(lp696
I0
aI0
aI0
aI0
aI0
aI0
aI0
aI0
aI0
aI0
aI0
aI0
aa(lp697
I0
aI0
aI0
aI0
aI0
aI0
aI0
aI0
aI0
aI0
aI0
aI0
aaaa(lp698
(lp699
I0
aI0
aI0
aI0
aI0
aI0
aI0
aI0
aI0
aI0
aI0
aI0
aI0
aI0
aI0
aI0
aI0
aI0
aI0
aI0
aI0
aI0
aI0
aI0
aI0
aI0
aI0
aI0
aI0
aI0
aI0
aI0
aI0
aI0
aI0
aI0
aI0
aI0
aI0
aI0
aI0
aI0
aI0
aI0
aI0
aI0
aI0
aI0
aI0
aI0
aI0
aI0
aI0
aI0
aI0
aI0
aI0
aI0
aI0
aI0
aI0
aI0
aI0
aI0
aI0
aI0
aI0
aI0
aI0
aI0
aI0
aI0
aI0
aI0
aI0
aI0
aI0
aI0
aI0
aI0
aI0
aI0
aI0
aI0
aI0
aI0
aI0
aI0
aI0
aI0
aI0
aI0
aI0
aI0
aI0
aI0
aI0
aI0
aI0
aI0
aa(lp700
(dp701
a(dp702
a(dp703
a(dp704
a(dp705
a(dp706
a(dp707
a(dp708
a(dp709
a(dp710
g10
I0
sa(dp711
a(dp712
a(dp713
a(dp714
a(dp715
a(dp716
a(dp717
a(dp718
g10
I0
sa(dp719
g10
I0
sa(dp720
a(dp721
a(dp722
a(dp723
a(dp724
a(dp725
a(dp726
a(dp727
a(dp728
a(dp729
g10
I0
sa(dp730
g10
I0
sa(dp731
a(dp732
a(dp733
a(dp734
g10
I1
sa(dp735
g10
I1
sa(dp736
g10
I0
sa(dp737
g10
I0
sa(dp738
a(dp739
a(dp740
a(dp741
a(dp742
a(dp743
a(dp744
a(dp745
a(dp746
a(dp747
a(dp748
a(dp749
a(dp750
a(dp751
a(dp752
a(dp753
a(dp754
a(dp755
a(dp756
a(dp757
a(dp758
a(dp759
a(dp760
a(dp761
a(dp762
a(dp763
a(dp764
a(dp765
a(dp766
a(dp767
a(dp768
a(dp769
a(dp770
a(dp771
a(dp772
a(dp773
a(dp774
a(dp775
a(dp776
a(dp777
a(dp778
a(dp779
a(dp780
a(dp781
a(dp782
a(dp783
a(dp784
a(dp785
a(dp786
a(dp787
a(dp788
a(dp789
a(dp790
a(dp791
a(dp792
a(dp793
a(dp794
a(dp795
a(dp796
a(dp797
a(dp798
a(dp799
a(dp800
aa(lp801
I60
aI60
aI36
aI36
aa(lp802
(lp803
I0
aI2
aI3
aI5
aI7
aI8
aI10
aa(lp804
I0
aI2
aI3
aI5
aI7
aI8
aI10
aa(lp805
I0
aI2
aI3
aI5
aI7
aI8
aI10
aa(lp806
I0
aI1
aI2
aI3
aI4
aI5
aI6
aI7
aI8
aI9
aI10
aI11
aaa(lp807
(lp808
(lp809
I0
aI0
aI0
aI0
aI0
aI0
aI0
aI0
aI0
aI0
aI0
aI0
aa(lp810
I0
aI0
aI0
aI0
aI0
aI0
aI0
aI0
aI0
aI0
aI0
aI0
aa(lp811
I0
aI0
aI0
aI0
aI0
aI0
aI0
aI0
aI0
aI0
aI0
aI0
aa(lp812
I0
aI0
aI0
aI0
aI0
aI0
aI0
aI0
aI0
aI0
aI0
aI0
aaa(lp813
(lp814
I0
aI0
aI0
aI0
aI0
aI0
aI0
aI0
aI0
aI0
aI0
aI0
aa(lp815
I0
aI0
aI0
aI0
aI0
aI0
aI0
aI0
aI0
aI0
aI0
aI0
aa(lp816
I0
aI0
aI0
aI0
aI0
aI0
aI0
aI0
aI0
aI0
aI0
aI0
aa(lp817
I0
aI0
aI0
aI0
aI0
aI0
aI0
aI0
aI0
aI0
aI0
aI0
aaa(lp818
(lp819
I0
aI0
aI0
aI0
aI0
aI0
aI0
aI0
aI0
aI0
aI0
aI0
aa(lp820
I0
aI0
aI0
aI0
aI0
aI0
aI0
aI0
aI0
aI0
aI0
aI0
aa(lp821
I0
aI0
aI0
aI0
aI0
aI0
aI0
aI0
aI0
aI0
aI0
aI0
aa(lp822
I0
aI0
aI0
aI0
aI0
aI0
aI0
aI0
aI0
aI0
aI0
aI0
aaa(lp823
(lp824
I0
aI0
aI0
aI0
aI0
aI0
aI0
aI0
aI0
aI0
aI0
aI0
aa(lp825
I0
aI0
aI0
aI0
aI0
aI0
aI0
aI0
aI0
aI0
aI0
aI0
aa(lp826
I0
aI0
aI0
aI0
aI0
aI0
aI0
aI0
aI0
aI0
aI0
aI0
aa(lp827
I0
aI0
aI0
aI0
aI0
aI0
aI0
aI0
aI0
aI0
aI0
aI0
aaaa(lp828
(lp829
I0
aI0
aI0
aI0
aI0
aI0
aI0
aI0
aI0
aI0
aI0
aI0
aa(lp830
I0
aI0
aI0
aI0
aI0
aI0
aI0
aI0
aI0
aI0
aI0
aI0
aa(lp831
I0
aI0
aI0
aI0
aI0
aI0
aI0
aI0
aI0
aI0
aI0
aI0
aa(lp832
I0
aI0
aI0
aI0
aI0
aI0
aI0
aI0
aI0
aI0
aI0
aI0
aaaa(lp833
(lp834
I0
aI0
aI0
aI0
aI0
aI0
aI0
aI0
aI0
aI0
aI0
aI0
aI0
aI0
aI0
aI0
aI0
aI0
aI0
aI0
aI0
aI0
aI0
aI0
aI0
aI0
aI0
aI0
aI0
aI0
aI0
aI0
aI0
aI0
aI0
aI0
aI0
aI0
aI0
aI0
aI0
aI0
aI0
aI0
aI0
aI0
aI0
aI0
aI0
aI0
aI0
aI0
aI0
aI0
aI0
aI0
aI0
aI0
aI0
aI0
aI0
aI0
aI0
aI0
aI0
aI0
aI0
aI0
aI0
aI0
aI0
aI0
aI0
aI0
aI0
aI0
aI0
aI0
aI0
aI0
aI0
aI0
aI0
aI0
aI0
aI0
aI0
aI0
aI0
aI0
aI0
aI0
aI0
aI0
aI0
aI0
aI0
aI0
aI0
aI0
aa(lp835
(dp836
a(dp837
a(dp838
a(dp839
a(dp840
a(dp841
a(dp842
a(dp843
a(dp844
a(dp845
g10
I0
sa(dp846
a(dp847
a(dp848
a(dp849
a(dp850
a(dp851
a(dp852
a(dp853
g10
I0
sa(dp854
g10
I0
sa(dp855
a(dp856
a(dp857
a(dp858
a(dp859
a(dp860
a(dp861
a(dp862
a(dp863
a(dp864
g10
I0
sa(dp865
g10
I0
sa(dp866
a(dp867
a(dp868
a(dp869
g10
I1
sa(dp870
g10
I1
sa(dp871
g10
I0
sa(dp872
g10
I0
sa(dp873
a(dp874
a(dp875
a(dp876
a(dp877
a(dp878
a(dp879
a(dp880
a(dp881
a(dp882
a(dp883
a(dp884
a(dp885
a(dp886
a(dp887
a(dp888
a(dp889
a(dp890
a(dp891
a(dp892
a(dp893
a(dp894
a(dp895
a(dp896
a(dp897
a(dp898
a(dp899
a(dp900
a(dp901
a(dp902
a(dp903
a(dp904
a(dp905
a(dp906
a(dp907
a(dp908
a(dp909
a(dp910
a(dp911
a(dp912
a(dp913
a(dp914
a(dp915
a(dp916
a(dp917
a(dp918
a(dp919
a(dp920
a(dp921
a(dp922
a(dp923
a(dp924
a(dp925
a(dp926
a(dp927
a(dp928
a(dp929
a(dp930
a(dp931
a(dp932
a(dp933
a(dp934
a(dp935
aa(lp936
I60
aI60
aI36
aI36
aa(lp937
(lp938
I0
aI2
aI3
aI5
aI7
aI8
aI10
aa(lp939
I0
aI2
aI3
aI5
aI7
aI8
aI10
aa(lp940
I0
aI2
aI3
aI5
aI7
aI8
aI10
aa(lp941
I0
aI1
aI2
aI3
aI4
aI5
aI6
aI7
aI8
aI9
aI10
aI11
aaa(lp942
(lp943
(lp944
I0
aI0
aI0
aI0
aI0
aI0
aI0
aI0
aI0
aI0
aI0
aI0
aa(lp945
I0
aI0
aI0
aI0
aI0
aI0
aI0
aI0
aI0
aI0
aI0
aI0
aa(lp946
I0
aI0
aI0
aI0
aI0
aI0
aI0
aI0
aI0
aI0
aI0
aI0
aa(lp947
I0
aI0
aI0
aI0
aI0
aI0
aI0
aI0
aI0
aI0
aI0
aI0
aaa(lp948
(lp949
I0
aI0
aI0
aI0
aI0
aI0
aI0
aI0
aI0
aI0
aI0
aI0
aa(lp950
I0
aI0
aI0
aI0
aI0
aI0
aI0
aI0
aI0
aI0
aI0
aI0
aa(lp951
I0
aI0
aI0
aI0
aI0
aI0
aI0
aI0
aI0
aI0
aI0
aI0
aa(lp952
I0
aI0
aI0
aI0
aI0
aI0
aI0
aI0
aI0
aI0
aI0
aI0
aaa(lp953
(lp954
I0
aI0
aI0
aI0
aI0
aI0
aI0
aI0
aI0
aI0
aI0
aI0
aa(lp955
I0
aI0
aI0
aI0
aI0
aI0
aI0
aI0
aI0
aI0
aI0
aI0
aa(lp956
I0
aI0
aI0
aI0
aI0
aI0
aI0
aI0
aI0
aI0
aI0
aI0
aa(lp957
I0
aI0
aI0
aI0
aI0
aI0
aI0
aI0
aI0
aI0
aI0
aI0
aaa(lp958
(lp959
I0
aI0
aI0
aI0
aI0
aI0
aI0
aI0
aI0
aI0
aI0
aI0
aa(lp960
I0
aI0
aI0
aI0
aI0
aI0
aI0
aI0
aI0
aI0
aI0
aI0
aa(lp961
I0
aI0
aI0
aI0
aI0
aI0
aI0
aI0
aI0
aI0
aI0
aI0
aa(lp962
I0
aI0
aI0
aI0
aI0
aI0
aI0
aI0
aI0
aI0
aI0
aI0
aaaa(lp963
(lp964
I0
aI0
aI0
aI0
aI0
aI0
aI0
aI0
aI0
aI0
aI0
aI0
aa(lp965
I0
aI0
aI0
aI0
aI0
aI0
aI0
aI0
aI0
aI0
aI0
aI0
aa(lp966
I0
aI0
aI0
aI0
aI0
aI0
aI0
aI0
aI0
aI0
aI0
aI0
aa(lp967
I0
aI0
aI0
aI0
aI0
aI0
aI0
aI0
aI0
aI0
aI0
aI0
aaaaI0
aI0
aI0
aI0
aI0
aI0
aI0
aI0
aI0
aI0
aI0
aI0
aI0
aI0
aI0
aI0
aI0
aI0
aI0
a.