(lp0
(dp1
a(dp2
a(dp3
a(dp4
a(dp5
a(dp6
a(dp7
a(dp8
a(dp9
a(dp10
a(dp11
a(dp12
a(dp13
a(dp14
a(dp15
a(dp16
a(dp17
a(dp18
a(dp19
a(dp20
a(dp21
a(dp22
a(dp23
a(dp24
a(dp25
a(dp26
a(dp27
a(dp28
a(dp29
a(dp30
a(dp31
a(dp32
a(dp33
a(dp34
a(dp35
a(dp36
a(dp37
a(dp38
a(dp39
a(dp40
a(dp41
a(dp42
a(dp43
F81.0
I74
sF74.0
I62
sF77.0
I65
sa(dp44
a(dp45
F75.0
I63
sF84.0
I82
sF79.0
I72
sa(dp46
F74.0
I62
sF83.0
I81
sF78.0
I71
sa(dp47
a(dp48
a(dp49
a(dp50
a(dp51
F72.0
I55
sF75.0
I58
sF79.0
I67
sa(dp52
F74.0
I57
sF78.0
I66
sF71.0
I54
sa(dp53
F82.0
I75
sF75.0
I63
sF78.0
I66
sa(dp54
F81.0
I74
sF74.0
I62
sF77.0
I65
sa(dp55
F82.0
I75
sF86.0
I84
sF79.0
I72
sa(dp56
a(dp57
a(dp58
a(dp59
a(dp60
a(dp61
F67.0
I45
sF60.0
I33
sF63.0
I36
sa(dp62
a(dp63
a(dp64
a(dp65
F65.0
I38
sF69.0
I47
sF62.0
I35
sa(dp66
F64.0
I37
sF68.0
I46
sF61.0
I34
sa(dp67
a(dp68
a(dp69
a(dp70
a(dp71
F65.0
I43
sF74.0
I62
sF69.0
I52
sa(dp72
F72.0
I55
sF65.0
I43
sF69.0
I52
sa(dp73
F72.0
I55
sF67.0
I45
sF77.0
I65
sa(dp74
F80.0
I73
sF74.0
I62
sF70.0
I53
sa(dp75
F73.0
I61
sF69.0
I52
sF79.0
I72
sa(dp76
F72.0
I55
sF68.0
I46
sF77.0
I65
sa(dp77
a(dp78
F72.0
I55
sF82.0
I75
sF77.0
I65
sF87.0
I85
sa(dp79
a(dp80
a(dp81
a(dp82
a(dp83
a(dp84
a(dp85
a(dp86
a(dp87
a(dp88
a(dp89
a(dp90
a(dp91
a(dp92
a(dp93
a(dp94
a(dp95
a(dp96
a(dp97
a(dp98
a(dp99
a(dp100
a.