(lp0
I0
a(lp1
(lp2
I0
aI0
aI0
aI0
aI0
aI0
aI0
aI0
aI0
a(lp3
(lp4
F0.044387525319962
aI48
aI64
aI0
aS'on'
p5
aa(lp6
F-0.041564434766769
aI51
aI64
aI0
aS'on'
p7
aa(lp8
F0.0080123662949063
aI55
aI64
aI0
aS'on'
p9
aa(lp10
F3.0086706791089
aI48
aI64
aI0
aS'off'
p11
aa(lp12
F0.00037813348876625
aI51
aI64
aI0
aS'off'
p13
aa(lp14
F0.00028954799131498
aI55
aI64
aI0
aS'off'
p15
aa(lp16
F0.00058820248250413
aI67
aI64
aI0
aS'on'
p17
aa(lp18
F7.3451997650409e-05
aI60
aI64
aI0
aS'on'
p19
aa(lp20
F0.00027311399207974
aI63
aI64
aI0
aS'on'
p21
aa(lp22
F2.9257837243049
aI67
aI64
aI0
aS'off'
p23
aa(lp24
F0.0011109254669464
aI60
aI64
aI0
aS'off'
p25
aa(lp26
F0.00024337949253095
aI63
aI64
aI0
aS'off'
p27
aa(lp28
F0.0015397604540794
aI72
aI64
aI0
aS'on'
p29
aa(lp30
F0.00039560998834531
aI75
aI64
aI0
aS'on'
p31
aa(lp32
F0.0004082489879238
aI79
aI64
aI0
aS'on'
p33
aa(lp34
F3.0527504765209
aI72
aI64
aI0
aS'off'
p35
aa(lp36
F0.00034290148960281
aI75
aI64
aI0
aS'off'
p37
aa(lp38
F0.00027020249217458
aI79
aI64
aI0
aS'off'
p39
aa(lp40
F0.00077444397675208
aI74
aI64
aI0
aS'on'
p41
aa(lp42
F6.9211497930155e-05
aI78
aI64
aI0
aS'on'
p43
aa(lp44
F8.7772497408878e-05
aI71
aI64
aI0
aS'on'
p45
aa(lp46
F2.9851147569211
aI74
aI0
aI0
aS'off'
p47
aa(lp48
F0.0
aI78
aI0
aI0
aS'off'
p49
aa(lp50
F0.0
aI71
aI0
aI0
aS'off'
p51
aa(lp52
F0.0099999999999909
aI0
aI0
aI0
aS'timeAfterLastHit'
p53
aaaI0
aI0
aI0
aI0
aI0
aI0
aI0
a(lp54
(lp55
F0.029781484603859
aI36
aI89
aI2
aS'on'
p56
aa(lp57
F0.030344497558303
aI36
aI0
aI2
aS'off'
p58
aa(lp59
F0.64424702429994
aI36
aI111
aI2
aS'on'
p60
aa(lp61
F0.18064598611636
aI36
aI0
aI2
aS'off'
p62
aa(lp63
F0.5877272989843
aI41
aI106
aI2
aS'on'
p64
aa(lp65
F0.14946354454571
aI41
aI0
aI2
aS'off'
p66
aa(lp67
F0.58902213194574
aI46
aI111
aI2
aS'on'
p68
aa(lp69
F0.14082646830298
aI46
aI0
aI2
aS'off'
p70
aa(lp71
F0.5340906305828
aI51
aI115
aI2
aS'on'
p72
aa(lp73
F0.17993926713746
aI51
aI0
aI2
aS'off'
p74
aa(lp75
F0.93391166592255
aI0
aI0
aI0
aS'timeAfterLastHit'
p76
aaa(lp77
(lp78
F0.01159887313861
aI36
aI66
aI2
aS'on'
p79
aa(lp80
F0.032659226655596
aI36
aI0
aI2
aS'off'
p81
aa(lp82
F0.13855015119361
aI46
aI99
aI2
aS'on'
p83
aa(lp84
F0.10229861845119
aI46
aI0
aI2
aS'off'
p85
aa(lp86
F0.39846929712485
aI41
aI104
aI2
aS'on'
p87
aa(lp88
F0.10187161946396
aI41
aI0
aI2
aS'off'
p89
aa(lp90
F0.36827660502468
aI47
aI101
aI2
aS'on'
p91
aa(lp92
F0.13410663350305
aI47
aI0
aI2
aS'off'
p93
aa(lp94
F0.38452706603994
aI46
aI106
aI2
aS'on'
p95
aa(lp96
F0.11711205850997
aI46
aI0
aI2
aS'off'
p97
aa(lp98
F0.39175059782519
aI53
aI108
aI2
aS'on'
p99
aa(lp100
F0.11850792846781
aI53
aI0
aI2
aS'off'
p101
aa(lp102
F0.33686236546055
aI52
aI99
aI2
aS'on'
p103
aa(lp104
F0.10935693124111
aI52
aI0
aI2
aS'off'
p105
aa(lp106
F0.41633496259237
aI46
aI96
aI2
aS'on'
p107
aa(lp108
F0.13319863403058
aI46
aI0
aI2
aS'off'
p109
aa(lp110
F0.63553257955937
aI43
aI111
aI2
aS'on'
p111
aa(lp112
F0.14081787630357
aI43
aI0
aI2
aS'off'
p113
aa(lp114
F0.13362718251756
aI49
aI108
aI2
aS'on'
p115
aa(lp116
F0.14032238581785
aI49
aI0
aI2
aS'off'
p117
aa(lp118
F0.32142966692072
aI48
aI104
aI2
aS'on'
p119
aa(lp120
F0.13327048852807
aI48
aI0
aI2
aS'off'
p121
aa(lp122
F0.39989259608228
aI42
aI111
aI2
aS'on'
p123
aa(lp124
F0.12554603325862
aI42
aI0
aI2
aS'off'
p125
aa(lp126
F0.40062211206032
aI41
aI106
aI2
aS'on'
p127
aa(lp128
F0.14094980579921
aI41
aI0
aI2
aS'off'
p129
aa(lp130
F0.32082195993917
aI47
aI96
aI2
aS'on'
p131
aa(lp132
F0.13374430701379
aI47
aI0
aI2
aS'off'
p133
aa(lp134
F0.32970749317383
aI46
aI106
aI2
aS'on'
p135
aa(lp136
F0.11747386599927
aI46
aI0
aI2
aS'off'
p137
aa(lp138
F0.39280054979372
aI41
aI108
aI2
aS'on'
p139
aa(lp140
F0.27396065033554
aI41
aI0
aI2
aS'off'
p141
aa(lp142
F0.56399887817406
aI0
aI0
aI0
aS'timeAfterLastHit'
p143
aaaI0
aI0
aI0
aI0
aI0
aI0
aI0
aI0
aI0
a(lp144
(lp145
F0.0060721874236833
aI52
aI0
aI3
aS'off'
p146
aa(lp147
F0.018104374408722
aI57
aI69
aI3
aS'on'
p148
aa(lp149
F1.481218530443
aI57
aI0
aI3
aS'off'
p150
aa(lp151
F0.43155260763888
aI60
aI101
aI3
aS'on'
p152
aa(lp153
F1.443611212977
aI60
aI0
aI3
aS'off'
p154
aa(lp155
F2.5756004472412
aI52
aI49
aI3
aS'on'
p156
aa(lp157
F0.5887718194532
aI52
aI0
aI3
aS'off'
p158
aa(lp159
F0.18103769760467
aI52
aI29
aI3
aS'on'
p160
aa(lp161
F0.50955107831419
aI52
aI0
aI3
aS'off'
p162
aa(lp163
F0.15667793233069
aI52
aI14
aI3
aS'on'
p164
aa(lp165
F0.5978021121648
aI52
aI0
aI3
aS'off'
p166
aa(lp167
F0.0099999999999909
aI0
aI0
aI0
aS'timeAfterLastHit'
p168
aaa(lp169
(lp170
F0.48262076672199
aI65
aI99
aI3
aS'on'
p171
aa(lp172
F0.1634400401299
aI65
aI0
aI3
aS'off'
p173
aa(lp174
F0.3532653329712
aI64
aI101
aI3
aS'on'
p175
aa(lp176
F0.1874316604144
aI64
aI0
aI3
aS'off'
p177
aa(lp178
F0.47834226674422
aI63
aI58
aI3
aS'on'
p179
aa(lp180
F0.17259462235597
aI63
aI0
aI3
aS'off'
p181
aa(lp182
F0.32897792169661
aI60
aI99
aI3
aS'on'
p183
aa(lp184
F0.15662545033138
aI60
aI0
aI3
aS'off'
p185
aa(lp186
F0.29047708984308
aI60
aI101
aI3
aS'on'
p187
aa(lp188
F0.24305028025628
aI60
aI0
aI3
aS'off'
p189
aa(lp190
F0.2270198782353
aI55
aI96
aI3
aS'on'
p191
aa(lp192
F0.2737921343396
aI55
aI0
aI3
aS'off'
p193
aa(lp194
F0.30620694737445
aI60
aI106
aI3
aS'on'
p195
aa(lp196
F0.20396721442103
aI60
aI0
aI3
aS'off'
p197
aa(lp198
F0.13218839416459
aI0
aI0
aI0
aS'timeAfterLastHit'
p199
aaaI0
aI0
aI0
a(lp200
(lp201
F0.014260852336889
aI36
aI85
aI3
aS'on'
p202
aa(lp203
F0.040273057885571
aI36
aI0
aI3
aS'off'
p204
aa(lp205
F0.68212501267115
aI36
aI96
aI3
aS'on'
p206
aa(lp207
F0.086138077932844
aI36
aI0
aI3
aS'off'
p208
aa(lp209
F0.11788317548681
aI38
aI66
aI3
aS'on'
p210
aa(lp211
F0.11713309300913
aI38
aI0
aI3
aS'off'
p212
aa(lp213
F0.38350755657066
aI36
aI94
aI3
aS'on'
p214
aa(lp215
F0.093567381211443
aI36
aI0
aI3
aS'off'
p216
aa(lp217
F0.96309837429743
aI36
aI99
aI3
aS'on'
p218
aa(lp219
F0.070564344896979
aI36
aI0
aI3
aS'off'
p220
aa(lp221
F0.40885308281528
aI38
aI101
aI3
aS'on'
p222
aa(lp223
F0.11768998899259
aI38
aI0
aI3
aS'off'
p224
aa(lp225
F0.90490600189321
aI0
aI0
aI0
aS'timeAfterLastHit'
p226
aaa(lp227
(lp228
F3.0066833384744
aI40
aI99
aI3
aS'on'
p229
aa(lp230
F0.094836573173666
aI40
aI0
aI3
aS'off'
p231
aa(lp232
F2.8360703424784
aI41
aI101
aI3
aS'on'
p233
aa(lp234
F0.11032552171207
aI41
aI0
aI3
aS'off'
p235
aa(lp236
F0.95041630667538
aI41
aI111
aI3
aS'on'
p237
aa(lp238
F0.1732155803378
aI41
aI0
aI3
aS'off'
p239
aa(lp240
F0.82845233714824
aI0
aI0
aI0
aS'timeAfterLastHit'
p241
aaa(lp242
(lp243
F0.018972918236386
aI52
aI60
aI3
aS'on'
p244
aa(lp245
F1.5931524425205
aI52
aI0
aI3
aS'off'
p246
aa(lp247
F0.28328806405722
aI53
aI82
aI3
aS'on'
p248
aa(lp249
F1.7871419197391
aI53
aI0
aI3
aS'off'
p250
aa(lp251
F0.26692348004502
aI54
aI78
aI3
aS'on'
p252
aa(lp253
F0.64348725032261
aI54
aI0
aI3
aS'off'
p254
aa(lp255
F0.13277715654283
aI54
aI87
aI3
aS'on'
p256
aa(lp257
F0.55720883539396
aI54
aI0
aI3
aS'off'
p258
aa(lp259
F0.1261125652415
aI54
aI54
aI3
aS'on'
p260
aa(lp261
F0.39203091031663
aI54
aI0
aI3
aS'off'
p262
aa(lp263
F0.11779117898953
aI55
aI78
aI3
aS'on'
p264
aa(lp265
F1.6546605196873
aI55
aI0
aI3
aS'off'
p266
aa(lp267
F0.42645275890743
aI0
aI0
aI0
aS'timeAfterLastHit'
p268
aaa(lp269
(lp270
F0.024911254644394
aI53
aI78
aI3
aS'on'
p271
aa(lp272
F1.7549523696371
aI53
aI0
aI3
aS'off'
p273
aa(lp274
F2.1180038938786
aI53
aI89
aI3
aS'on'
p275
aa(lp276
F1.5761654860268
aI53
aI0
aI3
aS'off'
p277
aa(lp278
F0.56479321616769
aI54
aI106
aI3
aS'on'
p279
aa(lp280
F0.49504523124654
aI54
aI0
aI3
aS'off'
p281
aa(lp282
F0.17189377587715
aI54
aI106
aI3
aS'on'
p283
aa(lp284
F0.5172327190852
aI54
aI0
aI3
aS'off'
p285
aa(lp286
F0.17191041537683
aI54
aI101
aI3
aS'on'
p287
aa(lp288
F0.59509163805978
aI54
aI0
aI3
aS'off'
p289
aa(lp290
F0.0099999999999909
aI0
aI0
aI0
aS'timeAfterLastHit'
p291
aaaI0
aI0
aI0
aI0
aI0
aI0
aI0
aI0
aI0
aI0
aI0
aI0
aI0
aI0
aI0
aI0
aI0
aI0
aI0
aI0
aI0
aI0
aI0
aI0
aI0
aI0
aI0
aI0
aI0
aI0
aI0
aI0
aI0
aI0
aI0
aI0
aI0
aI0
aI0
aI0
aI0
aI0
aI0
aI0
aI0
aI0
aI0
aI0
aI0
aI0
aI0
aI0
aI0
aI0
aI0
aI0
aI0
aI0
aI0
aI0
aI0
aI0
aI0
aa(lp292
(dp293
a(dp294
a(dp295
a(dp296
a(dp297
a(dp298
a(dp299
a(dp300
a(dp301
a(dp302
S'button'
p303
I41
sS'playing'
p304
I0
sa(dp305
a(dp306
a(dp307
a(dp308
a(dp309
a(dp310
a(dp311
a(dp312
g303
I51
sg304
I0
sa(dp313
g303
I52
sg304
I01
sa(dp314
a(dp315
a(dp316
a(dp317
a(dp318
a(dp319
a(dp320
a(dp321
a(dp322
a(dp323
g303
I64
sg304
I0
sa(dp324
g303
I65
sg304
I01
sa(dp325
a(dp326
a(dp327
a(dp328
g303
I71
sg304
I01
sa(dp329
g303
I72
sg304
I01
sa(dp330
g303
I73
sg304
I0
sa(dp331
g303
I74
sg304
I0
sa(dp332
a(dp333
a(dp334
a(dp335
a(dp336
a(dp337
a(dp338
a(dp339
a(dp340
a(dp341
a(dp342
a(dp343
a(dp344
a(dp345
a(dp346
a(dp347
a(dp348
a(dp349
a(dp350
a(dp351
a(dp352
a(dp353
a(dp354
a(dp355
a(dp356
a(dp357
a(dp358
a(dp359
a(dp360
a(dp361
a(dp362
a(dp363
a(dp364
a(dp365
a(dp366
a(dp367
a(dp368
a(dp369
a(dp370
a(dp371
a(dp372
a(dp373
a(dp374
a(dp375
a(dp376
a(dp377
a(dp378
a(dp379
a(dp380
a(dp381
a(dp382
a(dp383
a(dp384
a(dp385
a(dp386
a(dp387
a(dp388
a(dp389
a(dp390
a(dp391
a(dp392
a(dp393
a(dp394
aa(lp395
I60
aI60
aI36
aI36
aa(lp396
(lp397
I0
aI2
aI3
aI5
aI7
aI8
aI10
aa(lp398
I0
aI2
aI3
aI5
aI7
aI8
aI10
aa(lp399
I0
aI2
aI3
aI5
aI7
aI8
aI10
aa(lp400
I0
aI1
aI2
aI3
aI4
aI5
aI6
aI7
aI8
aI9
aI10
aI11
aaa(lp401
(lp402
(lp403
I0
aI0
aI0
aI0
aI0
aI0
aI0
aI0
aI0
aI0
aI0
aI0
aa(lp404
I0
aI0
aI0
aI0
aI0
aI0
aI0
aI0
aI0
aI0
aI0
aI0
aa(lp405
I0
aI0
aI0
aI0
aI0
aI0
aI0
aI0
aI0
aI0
aI0
aI0
aa(lp406
I0
aI0
aI0
aI0
aI0
aI0
aI0
aI0
aI0
aI0
aI0
aI0
aaa(lp407
(lp408
I0
aI0
aI0
aI0
aI0
aI0
aI0
aI0
aI0
aI0
aI0
aI0
aa(lp409
I0
aI0
aI0
aI0
aI0
aI0
aI0
aI0
aI0
aI0
aI0
aI0
aa(lp410
I0
aI0
aI0
aI0
aI0
aI0
aI0
aI0
aI0
aI0
aI0
aI0
aa(lp411
I0
aI0
aI0
aI0
aI0
aI0
aI0
aI0
aI0
aI0
aI0
aI0
aaa(lp412
(lp413
I0
aI0
aI0
aI0
aI0
aI0
aI0
aI0
aI0
aI0
aI0
aI0
aa(lp414
I0
aI0
aI0
aI0
aI0
aI0
aI0
aI0
aI0
aI0
aI0
aI0
aa(lp415
I0
aI0
aI0
aI0
aI0
aI0
aI0
aI0
aI0
aI0
aI0
aI0
aa(lp416
I0
aI0
aI0
aI0
aI0
aI0
aI0
aI0
aI0
aI0
aI0
aI0
aaa(lp417
(lp418
I0
aI0
aI0
aI0
aI0
aI0
aI0
aI0
aI0
aI0
aI0
aI0
aa(lp419
I0
aI0
aI0
aI0
aI0
aI0
aI0
aI0
aI0
aI0
aI0
aI0
aa(lp420
I0
aI0
aI0
aI0
aI0
aI0
aI0
aI0
aI0
aI0
aI0
aI0
aa(lp421
I0
aI0
aI0
aI0
aI0
aI0
aI0
aI0
aI0
aI0
aI0
aI0
aaaa(lp422
(lp423
I0
aI0
aI0
aI0
aI0
aI0
aI0
aI0
aI0
aI0
aI0
aI0
aa(lp424
I0
aI0
aI0
aI0
aI0
aI0
aI0
aI0
aI0
aI0
aI0
aI0
aa(lp425
I0
aI0
aI0
aI0
aI0
aI0
aI0
aI0
aI0
aI0
aI0
aI0
aa(lp426
I0
aI0
aI0
aI0
aI0
aI0
aI0
aI0
aI0
aI0
aI0
aI0
aaaa(lp427
(lp428
I0
aI0
aI0
aI0
aI0
aI0
aI0
aI0
aI0
a(lp429
(lp430
F0.044387525319962
aI48
aI64
aI0
ag5
aa(lp431
F-0.041564434766769
aI51
aI64
aI0
ag7
aa(lp432
F0.0080123662949063
aI55
aI64
aI0
ag9
aa(lp433
F3.0086706791089
aI48
aI64
aI0
ag11
aa(lp434
F0.00037813348876625
aI51
aI64
aI0
ag13
aa(lp435
F0.00028954799131498
aI55
aI64
aI0
ag15
aa(lp436
F0.00058820248250413
aI67
aI64
aI0
ag17
aa(lp437
F7.3451997650409e-05
aI60
aI64
aI0
ag19
aa(lp438
F0.00027311399207974
aI63
aI64
aI0
ag21
aa(lp439
F2.9257837243049
aI67
aI64
aI0
ag23
aa(lp440
F0.0011109254669464
aI60
aI64
aI0
ag25
aa(lp441
F0.00024337949253095
aI63
aI64
aI0
ag27
aa(lp442
F0.0015397604540794
aI72
aI64
aI0
ag29
aa(lp443
F0.00039560998834531
aI75
aI64
aI0
ag31
aa(lp444
F0.0004082489879238
aI79
aI64
aI0
ag33
aa(lp445
F3.0527504765209
aI72
aI64
aI0
ag35
aa(lp446
F0.00034290148960281
aI75
aI64
aI0
ag37
aa(lp447
F0.00027020249217458
aI79
aI64
aI0
ag39
aa(lp448
F0.00077444397675208
aI74
aI64
aI0
ag41
aa(lp449
F6.9211497930155e-05
aI78
aI64
aI0
ag43
aa(lp450
F8.7772497408878e-05
aI71
aI64
aI0
ag45
aa(lp451
F2.9851147569211
aI74
aI0
aI0
ag47
aa(lp452
F0.0
aI78
aI0
aI0
ag49
aa(lp453
F0.0
aI71
aI0
aI0
ag51
aa(lp454
F0.0099999999999909
aI0
aI0
aI0
ag53
aaaI0
aI0
aI0
aI0
aI0
aI0
aI0
a(lp455
(lp456
F0.029781484603859
aI36
aI89
aI2
ag56
aa(lp457
F0.030344497558303
aI36
aI0
aI2
ag58
aa(lp458
F0.64424702429994
aI36
aI111
aI2
ag60
aa(lp459
F0.18064598611636
aI36
aI0
aI2
ag62
aa(lp460
F0.5877272989843
aI41
aI106
aI2
ag64
aa(lp461
F0.14946354454571
aI41
aI0
aI2
ag66
aa(lp462
F0.58902213194574
aI46
aI111
aI2
ag68
aa(lp463
F0.14082646830298
aI46
aI0
aI2
ag70
aa(lp464
F0.5340906305828
aI51
aI115
aI2
ag72
aa(lp465
F0.17993926713746
aI51
aI0
aI2
ag74
aa(lp466
F0.93391166592255
aI0
aI0
aI0
ag76
aaa(lp467
(lp468
F0.01159887313861
aI36
aI66
aI2
ag79
aa(lp469
F0.032659226655596
aI36
aI0
aI2
ag81
aa(lp470
F0.13855015119361
aI46
aI99
aI2
ag83
aa(lp471
F0.10229861845119
aI46
aI0
aI2
ag85
aa(lp472
F0.39846929712485
aI41
aI104
aI2
ag87
aa(lp473
F0.10187161946396
aI41
aI0
aI2
ag89
aa(lp474
F0.36827660502468
aI47
aI101
aI2
ag91
aa(lp475
F0.13410663350305
aI47
aI0
aI2
ag93
aa(lp476
F0.38452706603994
aI46
aI106
aI2
ag95
aa(lp477
F0.11711205850997
aI46
aI0
aI2
ag97
aa(lp478
F0.39175059782519
aI53
aI108
aI2
ag99
aa(lp479
F0.11850792846781
aI53
aI0
aI2
ag101
aa(lp480
F0.33686236546055
aI52
aI99
aI2
ag103
aa(lp481
F0.10935693124111
aI52
aI0
aI2
ag105
aa(lp482
F0.41633496259237
aI46
aI96
aI2
ag107
aa(lp483
F0.13319863403058
aI46
aI0
aI2
ag109
aa(lp484
F0.63553257955937
aI43
aI111
aI2
ag111
aa(lp485
F0.14081787630357
aI43
aI0
aI2
ag113
aa(lp486
F0.13362718251756
aI49
aI108
aI2
ag115
aa(lp487
F0.14032238581785
aI49
aI0
aI2
ag117
aa(lp488
F0.32142966692072
aI48
aI104
aI2
ag119
aa(lp489
F0.13327048852807
aI48
aI0
aI2
ag121
aa(lp490
F0.39989259608228
aI42
aI111
aI2
ag123
aa(lp491
F0.12554603325862
aI42
aI0
aI2
ag125
aa(lp492
F0.40062211206032
aI41
aI106
aI2
ag127
aa(lp493
F0.14094980579921
aI41
aI0
aI2
ag129
aa(lp494
F0.32082195993917
aI47
aI96
aI2
ag131
aa(lp495
F0.13374430701379
aI47
aI0
aI2
ag133
aa(lp496
F0.32970749317383
aI46
aI106
aI2
ag135
aa(lp497
F0.11747386599927
aI46
aI0
aI2
ag137
aa(lp498
F0.39280054979372
aI41
aI108
aI2
ag139
aa(lp499
F0.27396065033554
aI41
aI0
aI2
ag141
aa(lp500
F0.56399887817406
aI0
aI0
aI0
ag143
aaaI0
aI0
aI0
aI0
aI0
aI0
aI0
aI0
aI0
a(lp501
(lp502
F0.0060721874236833
aI52
aI0
aI3
ag146
aa(lp503
F0.018104374408722
aI57
aI69
aI3
ag148
aa(lp504
F1.481218530443
aI57
aI0
aI3
ag150
aa(lp505
F0.43155260763888
aI60
aI101
aI3
ag152
aa(lp506
F1.443611212977
aI60
aI0
aI3
ag154
aa(lp507
F2.5756004472412
aI52
aI49
aI3
ag156
aa(lp508
F0.5887718194532
aI52
aI0
aI3
ag158
aa(lp509
F0.18103769760467
aI52
aI29
aI3
ag160
aa(lp510
F0.50955107831419
aI52
aI0
aI3
ag162
aa(lp511
F0.15667793233069
aI52
aI14
aI3
ag164
aa(lp512
F0.5978021121648
aI52
aI0
aI3
ag166
aa(lp513
F0.0099999999999909
aI0
aI0
aI0
ag168
aaa(lp514
(lp515
F0.48262076672199
aI65
aI99
aI3
ag171
aa(lp516
F0.1634400401299
aI65
aI0
aI3
ag173
aa(lp517
F0.3532653329712
aI64
aI101
aI3
ag175
aa(lp518
F0.1874316604144
aI64
aI0
aI3
ag177
aa(lp519
F0.47834226674422
aI63
aI58
aI3
ag179
aa(lp520
F0.17259462235597
aI63
aI0
aI3
ag181
aa(lp521
F0.32897792169661
aI60
aI99
aI3
ag183
aa(lp522
F0.15662545033138
aI60
aI0
aI3
ag185
aa(lp523
F0.29047708984308
aI60
aI101
aI3
ag187
aa(lp524
F0.24305028025628
aI60
aI0
aI3
ag189
aa(lp525
F0.2270198782353
aI55
aI96
aI3
ag191
aa(lp526
F0.2737921343396
aI55
aI0
aI3
ag193
aa(lp527
F0.30620694737445
aI60
aI106
aI3
ag195
aa(lp528
F0.20396721442103
aI60
aI0
aI3
ag197
aa(lp529
F0.13218839416459
aI0
aI0
aI0
ag199
aaaI0
aI0
aI0
a(lp530
(lp531
F0.014260852336889
aI36
aI85
aI3
ag202
aa(lp532
F0.040273057885571
aI36
aI0
aI3
ag204
aa(lp533
F0.68212501267115
aI36
aI96
aI3
ag206
aa(lp534
F0.086138077932844
aI36
aI0
aI3
ag208
aa(lp535
F0.11788317548681
aI38
aI66
aI3
ag210
aa(lp536
F0.11713309300913
aI38
aI0
aI3
ag212
aa(lp537
F0.38350755657066
aI36
aI94
aI3
ag214
aa(lp538
F0.093567381211443
aI36
aI0
aI3
ag216
aa(lp539
F0.96309837429743
aI36
aI99
aI3
ag218
aa(lp540
F0.070564344896979
aI36
aI0
aI3
ag220
aa(lp541
F0.40885308281528
aI38
aI101
aI3
ag222
aa(lp542
F0.11768998899259
aI38
aI0
aI3
ag224
aa(lp543
F0.90490600189321
aI0
aI0
aI0
ag226
aaa(lp544
(lp545
F3.0066833384744
aI40
aI99
aI3
ag229
aa(lp546
F0.094836573173666
aI40
aI0
aI3
ag231
aa(lp547
F2.8360703424784
aI41
aI101
aI3
ag233
aa(lp548
F0.11032552171207
aI41
aI0
aI3
ag235
aa(lp549
F0.95041630667538
aI41
aI111
aI3
ag237
aa(lp550
F0.1732155803378
aI41
aI0
aI3
ag239
aa(lp551
F0.82845233714824
aI0
aI0
aI0
ag241
aaa(lp552
(lp553
F0.018972918236386
aI52
aI60
aI3
ag244
aa(lp554
F1.5931524425205
aI52
aI0
aI3
ag246
aa(lp555
F0.28328806405722
aI53
aI82
aI3
ag248
aa(lp556
F1.7871419197391
aI53
aI0
aI3
ag250
aa(lp557
F0.26692348004502
aI54
aI78
aI3
ag252
aa(lp558
F0.64348725032261
aI54
aI0
aI3
ag254
aa(lp559
F0.13277715654283
aI54
aI87
aI3
ag256
aa(lp560
F0.55720883539396
aI54
aI0
aI3
ag258
aa(lp561
F0.1261125652415
aI54
aI54
aI3
ag260
aa(lp562
F0.39203091031663
aI54
aI0
aI3
ag262
aa(lp563
F0.11779117898953
aI55
aI78
aI3
ag264
aa(lp564
F1.6546605196873
aI55
aI0
aI3
ag266
aa(lp565
F0.42645275890743
aI0
aI0
aI0
ag268
aaa(lp566
(lp567
F0.024911254644394
aI53
aI78
aI3
ag271
aa(lp568
F1.7549523696371
aI53
aI0
aI3
ag273
aa(lp569
F2.1180038938786
aI53
aI89
aI3
ag275
aa(lp570
F1.5761654860268
aI53
aI0
aI3
ag277
aa(lp571
F0.56479321616769
aI54
aI106
aI3
ag279
aa(lp572
F0.49504523124654
aI54
aI0
aI3
ag281
aa(lp573
F0.17189377587715
aI54
aI106
aI3
ag283
aa(lp574
F0.5172327190852
aI54
aI0
aI3
ag285
aa(lp575
F0.17191041537683
aI54
aI101
aI3
ag287
aa(lp576
F0.59509163805978
aI54
aI0
aI3
ag289
aa(lp577
F0.0099999999999909
aI0
aI0
aI0
ag291
aaaI0
aI0
aI0
aI0
aI0
aI0
aI0
aI0
aI0
aI0
aI0
aI0
aI0
aI0
aI0
aI0
aI0
aI0
aI0
aI0
aI0
aI0
aI0
aI0
aI0
aI0
aI0
aI0
aI0
aI0
aI0
aI0
aI0
aI0
aI0
aI0
aI0
aI0
aI0
aI0
aI0
aI0
aI0
aI0
aI0
aI0
aI0
aI0
aI0
aI0
aI0
aI0
aI0
aI0
aI0
aI0
aI0
aI0
aI0
aI0
aI0
aI0
aI0
aa(lp578
(dp579
a(dp580
a(dp581
a(dp582
a(dp583
a(dp584
a(dp585
a(dp586
a(dp587
a(dp588
g303
I41
sg304
I0
sa(dp589
a(dp590
a(dp591
a(dp592
a(dp593
a(dp594
a(dp595
a(dp596
g303
I51
sg304
I0
sa(dp597
g303
I52
sg304
I01
sa(dp598
a(dp599
a(dp600
a(dp601
a(dp602
a(dp603
a(dp604
a(dp605
a(dp606
a(dp607
g303
I64
sg304
I0
sa(dp608
g303
I65
sg304
I01
sa(dp609
a(dp610
a(dp611
a(dp612
g303
I71
sg304
I01
sa(dp613
g303
I72
sg304
I01
sa(dp614
g303
I73
sg304
I0
sa(dp615
g303
I74
sg304
I0
sa(dp616
a(dp617
a(dp618
a(dp619
a(dp620
a(dp621
a(dp622
a(dp623
a(dp624
a(dp625
a(dp626
a(dp627
a(dp628
a(dp629
a(dp630
a(dp631
a(dp632
a(dp633
a(dp634
a(dp635
a(dp636
a(dp637
a(dp638
a(dp639
a(dp640
a(dp641
a(dp642
a(dp643
a(dp644
a(dp645
a(dp646
a(dp647
a(dp648
a(dp649
a(dp650
a(dp651
a(dp652
a(dp653
a(dp654
a(dp655
a(dp656
a(dp657
a(dp658
a(dp659
a(dp660
a(dp661
a(dp662
a(dp663
a(dp664
a(dp665
a(dp666
a(dp667
a(dp668
a(dp669
a(dp670
a(dp671
a(dp672
a(dp673
a(dp674
a(dp675
a(dp676
a(dp677
a(dp678
aa(lp679
I60
aI60
aI36
aI36
aa(lp680
(lp681
I0
aI2
aI3
aI5
aI7
aI8
aI10
aa(lp682
I0
aI2
aI3
aI5
aI7
aI8
aI10
aa(lp683
I0
aI2
aI3
aI5
aI7
aI8
aI10
aa(lp684
I0
aI1
aI2
aI3
aI4
aI5
aI6
aI7
aI8
aI9
aI10
aI11
aaa(lp685
(lp686
(lp687
I0
aI0
aI0
aI0
aI0
aI0
aI0
aI0
aI0
aI0
aI0
aI0
aa(lp688
I0
aI0
aI0
aI0
aI0
aI0
aI0
aI0
aI0
aI0
aI0
aI0
aa(lp689
I0
aI0
aI0
aI0
aI0
aI0
aI0
aI0
aI0
aI0
aI0
aI0
aa(lp690
I0
aI0
aI0
aI0
aI0
aI0
aI0
aI0
aI0
aI0
aI0
aI0
aaa(lp691
(lp692
I0
aI0
aI0
aI0
aI0
aI0
aI0
aI0
aI0
aI0
aI0
aI0
aa(lp693
I0
aI0
aI0
aI0
aI0
aI0
aI0
aI0
aI0
aI0
aI0
aI0
aa(lp694
I0
aI0
aI0
aI0
aI0
aI0
aI0
aI0
aI0
aI0
aI0
aI0
aa(lp695
I0
aI0
aI0
aI0
aI0
aI0
aI0
aI0
aI0
aI0
aI0
aI0
aaa(lp696
(lp697
I0
aI0
aI0
aI0
aI0
aI0
aI0
aI0
aI0
aI0
aI0
aI0
aa(lp698
I0
aI0
aI0
aI0
aI0
aI0
aI0
aI0
aI0
aI0
aI0
aI0
aa(lp699
I0
aI0
aI0
aI0
aI0
aI0
aI0
aI0
aI0
aI0
aI0
aI0
aa(lp700
I0
aI0
aI0
aI0
aI0
aI0
aI0
aI0
aI0
aI0
aI0
aI0
aaa(lp701
(lp702
I0
aI0
aI0
aI0
aI0
aI0
aI0
aI0
aI0
aI0
aI0
aI0
aa(lp703
I0
aI0
aI0
aI0
aI0
aI0
aI0
aI0
aI0
aI0
aI0
aI0
aa(lp704
I0
aI0
aI0
aI0
aI0
aI0
aI0
aI0
aI0
aI0
aI0
aI0
aa(lp705
I0
aI0
aI0
aI0
aI0
aI0
aI0
aI0
aI0
aI0
aI0
aI0
aaaa(lp706
(lp707
I0
aI0
aI0
aI0
aI0
aI0
aI0
aI0
aI0
aI0
aI0
aI0
aa(lp708
I0
aI0
aI0
aI0
aI0
aI0
aI0
aI0
aI0
aI0
aI0
aI0
aa(lp709
I0
aI0
aI0
aI0
aI0
aI0
aI0
aI0
aI0
aI0
aI0
aI0
aa(lp710
I0
aI0
aI0
aI0
aI0
aI0
aI0
aI0
aI0
aI0
aI0
aI0
aaaaI0
aI0
aI0
aI0
aI0
aI0
aI0
aI0
aI0
aI0
aI0
aI0
aI0
aI0
aI0
aI0
aI0
aI0
aI0
aI0
aI0
aI0
aI0
aI0
aI0
aI0
aI0
aI0
aI0
a.