(lp0
I0
a(lp1
(lp2
I0
aI0
aI0
aI0
aI0
aI0
aI0
aI0
aI0
aI0
aI0
aI0
aI0
aI0
aI0
aI0
aI0
aI0
aI0
aI0
aI0
aI0
aI0
aI0
aI0
aI0
aI0
aI0
aI0
aI0
aI0
aI0
aI0
aI0
aI0
aI0
aI0
aI0
aI0
aI0
aI0
aI0
aI0
aI0
aI0
aI0
aI0
aI0
aI0
aI0
aI0
aI0
aI0
aI0
aI0
aI0
aI0
aI0
aI0
aI0
aI0
aI0
aI0
aI0
aI0
aI0
aI0
aI0
aI0
aI0
aI0
aI0
aI0
aI0
aI0
aI0
aI0
aI0
aI0
aI0
aI0
aI0
aI0
aI0
aI0
aI0
aI0
aI0
aI0
aI0
aI0
aI0
aI0
aI0
aI0
aI0
aI0
aI0
aI0
aI0
aa(lp3
(dp4
a(dp5
a(dp6
a(dp7
a(dp8
a(dp9
S'playing'
p10
I0
sa(dp11
a(dp12
a(dp13
a(dp14
g10
I0
sa(dp15
a(dp16
a(dp17
a(dp18
a(dp19
a(dp20
a(dp21
a(dp22
g10
I0
sa(dp23
g10
I0
sa(dp24
a(dp25
a(dp26
a(dp27
a(dp28
a(dp29
a(dp30
a(dp31
a(dp32
a(dp33
g10
I0
sa(dp34
g10
I0
sa(dp35
a(dp36
a(dp37
a(dp38
g10
I1
sa(dp39
g10
I1
sa(dp40
g10
I0
sa(dp41
g10
I0
sa(dp42
a(dp43
a(dp44
a(dp45
a(dp46
a(dp47
a(dp48
a(dp49
a(dp50
a(dp51
a(dp52
a(dp53
a(dp54
a(dp55
a(dp56
a(dp57
a(dp58
a(dp59
a(dp60
a(dp61
a(dp62
a(dp63
a(dp64
a(dp65
a(dp66
a(dp67
a(dp68
a(dp69
a(dp70
a(dp71
a(dp72
a(dp73
a(dp74
a(dp75
a(dp76
a(dp77
a(dp78
a(dp79
a(dp80
a(dp81
a(dp82
a(dp83
a(dp84
a(dp85
a(dp86
a(dp87
a(dp88
a(dp89
a(dp90
a(dp91
a(dp92
a(dp93
a(dp94
a(dp95
a(dp96
a(dp97
a(dp98
a(dp99
a(dp100
a(dp101
a(dp102
a(dp103
a(dp104
aa(lp105
I60
aI60
aI36
aI36
aa(lp106
(lp107
I0
aI2
aI3
aI5
aI7
aI8
aI10
aa(lp108
I0
aI2
aI3
aI5
aI7
aI8
aI10
aa(lp109
I0
aI2
aI3
aI5
aI7
aI8
aI10
aa(lp110
I0
aI1
aI2
aI3
aI4
aI5
aI6
aI7
aI8
aI9
aI10
aI11
aaa(lp111
(lp112
(lp113
I0
aI0
aI0
aI0
aI0
aI0
aI0
aI0
aI0
aI0
aI0
aI0
aa(lp114
I0
aI0
aI0
aI0
aI0
aI0
aI0
aI0
aI0
aI0
aI0
aI0
aa(lp115
I0
aI0
aI0
aI0
aI0
aI0
aI0
aI0
aI0
aI0
aI0
aI0
aa(lp116
I0
aI0
aI0
aI0
aI0
aI0
aI0
aI0
aI0
aI0
aI0
aI0
aaa(lp117
(lp118
I0
aI0
aI0
aI0
aI0
aI0
aI0
aI0
aI0
aI0
aI0
aI0
aa(lp119
I0
aI0
aI0
aI0
aI0
aI0
aI0
aI0
aI0
aI0
aI0
aI0
aa(lp120
I0
aI0
aI0
aI0
aI0
aI0
aI0
aI0
aI0
aI0
aI0
aI0
aa(lp121
I0
aI0
aI0
aI0
aI0
aI0
aI0
aI0
aI0
aI0
aI0
aI0
aaa(lp122
(lp123
I0
aI0
aI0
aI0
aI0
aI0
aI0
aI0
aI0
aI0
aI0
aI0
aa(lp124
I0
aI0
aI0
aI0
aI0
aI0
aI0
aI0
aI0
aI0
aI0
aI0
aa(lp125
I0
aI0
aI0
aI0
aI0
aI0
aI0
aI0
aI0
aI0
aI0
aI0
aa(lp126
I0
aI0
aI0
aI0
aI0
aI0
aI0
aI0
aI0
aI0
aI0
aI0
aaa(lp127
(lp128
I0
aI0
aI0
aI0
aI0
aI0
aI0
aI0
aI0
aI0
aI0
aI0
aa(lp129
I0
aI0
aI0
aI0
aI0
aI0
aI0
aI0
aI0
aI0
aI0
aI0
aa(lp130
I0
aI0
aI0
aI0
aI0
aI0
aI0
aI0
aI0
aI0
aI0
aI0
aa(lp131
I0
aI0
aI0
aI0
aI0
aI0
aI0
aI0
aI0
aI0
aI0
aI0
aaaa(lp132
(lp133
I0
aI0
aI0
aI0
aI0
aI0
aI0
aI0
aI0
aI0
aI0
aI0
aa(lp134
I0
aI0
aI0
aI0
aI0
aI0
aI0
aI0
aI0
aI0
aI0
aI0
aa(lp135
I0
aI0
aI0
aI0
aI0
aI0
aI0
aI0
aI0
aI0
aI0
aI0
aa(lp136
I0
aI0
aI0
aI0
aI0
aI0
aI0
aI0
aI0
aI0
aI0
aI0
aaaa(lp137
(lp138
I0
aI0
aI0
aI0
aI0
aI0
a(lp139
(lp140
F0.0039349377148028
aI32
aI111
aI3
aS'on'
p141
aa(lp142
F0.21568749345897
aI32
aI0
aI3
aS'off'
p143
aa(lp144
F0.59716369220769
aI32
aI106
aI3
aS'on'
p145
aa(lp146
F0.13308869153116
aI33
aI111
aI3
aS'on'
p147
aa(lp148
F0.047228626590368
aI32
aI0
aI3
aS'off'
p149
aa(lp150
F0.20417699392056
aI33
aI0
aI3
aS'off'
p151
aa(lp152
F0.56486091266197
aI33
aI108
aI3
aS'on'
p153
aa(lp154
F0.14880364056444
aI32
aI101
aI3
aS'on'
p155
aa(lp156
F0.015911768528895
aI33
aI0
aI3
aS'off'
p157
aa(lp158
F0.25101634802195
aI32
aI0
aI3
aS'off'
p159
aa(lp160
F0.32194492439885
aI32
aI118
aI3
aS'on'
p161
aa(lp162
F0.15672573733536
aI32
aI0
aI3
aS'off'
p163
aa(lp164
F0.29792914211794
aI33
aI115
aI3
aS'on'
p165
aa(lp166
F0.21143175270117
aI33
aI0
aI3
aS'off'
p167
aa(lp168
F0.83009533824588
aI0
aI0
aI0
aS'timeAfterLastHit'
p169
aaa(lp170
(lp171
F0.02677951455189
aI52
aI101
aI3
aS'on'
p172
aa(lp173
F0.48059790087427
aI52
aI0
aI3
aS'off'
p174
aa(lp175
F0.1804861071214
aI57
aI78
aI3
aS'on'
p176
aa(lp177
F0.57287804943189
aI57
aI0
aI3
aS'off'
p178
aa(lp179
F0.15671165082313
aI62
aI75
aI3
aS'on'
p180
aa(lp181
F2.017592342876
aI62
aI0
aI3
aS'off'
p182
aa(lp183
F0.47715828227592
aI52
aI94
aI3
aS'on'
p184
aa(lp185
F0.6359090750484
aI52
aI0
aI3
aS'off'
p186
aa(lp187
F0.19500454968875
aI57
aI66
aI3
aS'on'
p188
aa(lp189
F0.55766323038188
aI57
aI0
aI3
aS'off'
p190
aa(lp191
F0.20404006041645
aI62
aI72
aI3
aS'on'
p192
aa(lp193
F2.0936735886025
aI62
aI0
aI3
aS'off'
p194
aa(lp195
F0.34471916722759
aI52
aI82
aI3
aS'on'
p196
aa(lp197
F0.58054818520031
aI52
aI0
aI3
aS'off'
p198
aa(lp199
F0.16429173410506
aI57
aI72
aI3
aS'on'
p200
aa(lp201
F0.55665486140788
aI57
aI0
aI3
aS'off'
p202
aa(lp203
F0.20460206390635
aI62
aI80
aI3
aS'on'
p204
aa(lp205
F2.0808449064825
aI62
aI0
aI3
aS'off'
p206
aa(lp207
F0.36071444975096
aI65
aI85
aI3
aS'on'
p208
aa(lp209
F0.66588326665442
aI65
aI0
aI3
aS'off'
p210
aa(lp211
F0.10977580472536
aI64
aI80
aI3
aS'on'
p212
aa(lp213
F0.62640396683491
aI64
aI0
aI3
aS'off'
p214
aa(lp215
F0.18001152363649
aI63
aI94
aI3
aS'on'
p216
aa(lp217
F2.0158956059204
aI63
aI0
aI3
aS'off'
p218
aa(lp219
F0.51116011205522
aI0
aI0
aI0
aS'timeAfterLastHit'
p220
aaaI0
aI0
aI0
aI0
aI0
aI0
aI0
aI0
aI0
aI0
aI0
aI0
aI0
aI0
aI0
aI0
aI0
aI0
aI0
aI0
aI0
aI0
aI0
aI0
aI0
aI0
aI0
aI0
aI0
aI0
aI0
aI0
aI0
aI0
aI0
aI0
aI0
aI0
aI0
aI0
aI0
aI0
aI0
aI0
aI0
aI0
aI0
aI0
aI0
aI0
aI0
aI0
aI0
aI0
aI0
aI0
aI0
aI0
aI0
aI0
aI0
aI0
aI0
aI0
aI0
aI0
aI0
aI0
aI0
aI0
aI0
aI0
aI0
aI0
aI0
aI0
aI0
aI0
aI0
aI0
aI0
aI0
aI0
aI0
aI0
aI0
aI0
aI0
aI0
aI0
aI0
aI0
aa(lp221
(dp222
a(dp223
a(dp224
a(dp225
a(dp226
a(dp227
g10
I0
sa(dp228
S'button'
p229
I36
sg10
I01
sa(dp230
g229
I37
sg10
I01
sa(dp231
a(dp232
g10
I0
sa(dp233
a(dp234
a(dp235
a(dp236
a(dp237
a(dp238
a(dp239
a(dp240
g10
I0
sa(dp241
g10
I0
sa(dp242
g10
I1
sa(dp243
a(dp244
a(dp245
a(dp246
a(dp247
a(dp248
a(dp249
a(dp250
a(dp251
g10
I0
sa(dp252
g10
I0
sa(dp253
a(dp254
a(dp255
a(dp256
g10
I0
sa(dp257
g10
I1
sa(dp258
g10
I0
sa(dp259
g10
I0
sa(dp260
g10
I0
sa(dp261
a(dp262
a(dp263
a(dp264
a(dp265
a(dp266
a(dp267
a(dp268
a(dp269
a(dp270
a(dp271
a(dp272
a(dp273
a(dp274
a(dp275
a(dp276
a(dp277
a(dp278
a(dp279
a(dp280
a(dp281
a(dp282
a(dp283
a(dp284
a(dp285
a(dp286
a(dp287
a(dp288
a(dp289
a(dp290
a(dp291
a(dp292
a(dp293
a(dp294
a(dp295
a(dp296
a(dp297
a(dp298
a(dp299
a(dp300
a(dp301
a(dp302
a(dp303
a(dp304
a(dp305
a(dp306
a(dp307
a(dp308
a(dp309
a(dp310
a(dp311
a(dp312
a(dp313
a(dp314
a(dp315
a(dp316
a(dp317
a(dp318
a(dp319
a(dp320
a(dp321
a(dp322
aa(lp323
I60
aI60
aI36
aI36
aa(lp324
(lp325
I0
aI2
aI3
aI5
aI7
aI8
aI10
aa(lp326
I0
aI2
aI3
aI5
aI7
aI8
aI10
aa(lp327
I0
aI2
aI3
aI5
aI7
aI8
aI10
aa(lp328
I0
aI1
aI2
aI3
aI4
aI5
aI6
aI7
aI8
aI9
aI10
aI11
aaa(lp329
(lp330
(lp331
I0
aI0
aI0
aI0
aI0
aI0
aI0
aI0
aI0
aI0
aI0
aI0
aa(lp332
I0
aI0
aI0
aI0
aI0
aI0
aI0
aI0
aI0
aI0
aI0
aI0
aa(lp333
I0
aI0
aI0
aI0
aI0
aI0
aI0
aI0
aI0
aI0
aI0
aI0
aa(lp334
I0
aI0
aI0
aI0
aI0
aI0
aI0
aI0
aI0
aI0
aI0
aI0
aaa(lp335
(lp336
I0
aI0
aI0
aI0
aI0
aI0
aI0
aI0
aI0
aI0
aI0
aI0
aa(lp337
I0
aI0
aI0
aI0
aI0
aI0
aI0
aI0
aI0
aI0
aI0
aI0
aa(lp338
I0
aI0
aI0
aI0
aI0
aI0
aI0
aI0
aI0
aI0
aI0
aI0
aa(lp339
I0
aI0
aI0
aI0
aI0
aI0
aI0
aI0
aI0
aI0
aI0
aI0
aaa(lp340
(lp341
I0
aI0
aI0
aI0
aI0
aI0
aI0
aI0
aI0
aI0
aI0
aI0
aa(lp342
I0
aI0
aI0
aI0
aI0
aI0
aI0
aI0
aI0
aI0
aI0
aI0
aa(lp343
I0
aI0
aI0
aI0
aI0
aI0
aI0
aI0
aI0
aI0
aI0
aI0
aa(lp344
I0
aI0
aI0
aI0
aI0
aI0
aI0
aI0
aI0
aI0
aI0
aI0
aaa(lp345
(lp346
I0
aI0
aI0
aI0
aI0
aI0
aI0
aI0
aI0
aI0
aI0
aI0
aa(lp347
I0
aI0
aI0
aI0
aI0
aI0
aI0
aI0
aI0
aI0
aI0
aI0
aa(lp348
I0
aI0
aI0
aI0
aI0
aI0
aI0
aI0
aI0
aI0
aI0
aI0
aa(lp349
I0
aI0
aI0
aI0
aI0
aI0
aI0
aI0
aI0
aI0
aI0
aI0
aaaa(lp350
(lp351
I0
aI0
aI0
aI0
aI0
aI0
aI0
aI0
aI0
aI0
aI0
aI0
aa(lp352
I0
aI0
aI0
aI0
aI0
aI0
aI0
aI0
aI0
aI0
aI0
aI0
aa(lp353
I0
aI0
aI0
aI0
aI0
aI0
aI0
aI0
aI0
aI0
aI0
aI0
aa(lp354
I0
aI0
aI0
aI0
aI0
aI0
aI0
aI0
aI0
aI0
aI0
aI0
aaaa(lp355
(lp356
I0
aI0
aI0
aI0
aI0
aI0
aI0
aI0
aI0
aI0
aI0
a(lp357
(lp358
F0.0054339289672498
aI41
aI67
aI2
aS'on'
p359
aa(lp360
F0.11458097362993
aI41
aI0
aI2
aS'off'
p361
aa(lp362
F0.1981026210924
aI44
aI58
aI2
aS'on'
p363
aa(lp364
F0.10089045449422
aI44
aI0
aI2
aS'off'
p365
aa(lp366
F0.21914343996832
aI46
aI80
aI2
aS'on'
p367
aa(lp368
F0.12498951527596
aI46
aI0
aI2
aS'off'
p369
aa(lp370
F0.20378173342397
aI48
aI67
aI2
aS'on'
p371
aa(lp372
F0.11740598200413
aI48
aI0
aI2
aS'off'
p373
aa(lp374
F0.21216362517589
aI51
aI94
aI2
aS'on'
p375
aa(lp376
F0.12538262476664
aI51
aI0
aI2
aS'off'
p377
aa(lp378
F0.21182525368204
aI53
aI70
aI2
aS'on'
p379
aa(lp380
F0.11793704498632
aI53
aI0
aI2
aS'off'
p381
aa(lp382
F2.2483628025329
aI0
aI0
aI0
aS'timeAfterLastHit'
p383
aaa(lp384
(lp385
F0.0097802102573041
aI46
aI82
aI2
aS'on'
p386
aa(lp387
F0.10103034618078
aI46
aI0
aI2
aS'off'
p388
aa(lp389
F0.23638679595388
aI48
aI101
aI2
aS'on'
p390
aa(lp391
F0.10104384298756
aI48
aI0
aI2
aS'off'
p392
aa(lp393
F0.18740495291786
aI51
aI67
aI2
aS'on'
p394
aa(lp395
F0.13372165551482
aI51
aI0
aI2
aS'off'
p396
aa(lp397
F0.20537080787471
aI53
aI94
aI2
aS'on'
p398
aa(lp399
F0.085835800942732
aI53
aI0
aI2
aS'off'
p400
aa(lp401
F0.22749258372642
aI56
aI70
aI2
aS'on'
p402
aa(lp403
F0.11758505949547
aI56
aI0
aI2
aS'off'
p404
aa(lp405
F0.20309313144753
aI58
aI101
aI2
aS'on'
p406
aa(lp407
F0.1252582402667
aI58
aI0
aI2
aS'off'
p408
aa(lp409
F2.2659965724342
aI0
aI0
aI0
aS'timeAfterLastHit'
p410
aaaI0
aI0
aI0
aI0
aI0
aI0
aI0
a(lp411
(lp412
F0.024539554120565
aI51
aI70
aI2
aS'on'
p413
aa(lp414
F0.054770925326011
aI51
aI0
aI2
aS'off'
p415
aa(lp416
F0.25214190148472
aI53
aI66
aI2
aS'on'
p417
aa(lp418
F0.063089671122725
aI53
aI0
aI2
aS'off'
p419
aa(lp420
F0.22768634621389
aI55
aI70
aI2
aS'on'
p421
aa(lp422
F0.10938246574005
aI55
aI0
aI2
aS'off'
p423
aa(lp424
F0.25858860729204
aI58
aI60
aI2
aS'on'
p425
aa(lp426
F0.046726039603527
aI58
aI0
aI2
aS'off'
p427
aa(lp428
F0.26644000156375
aI60
aI63
aI2
aS'on'
p429
aa(lp430
F0.047485999588389
aI60
aI0
aI2
aS'off'
p431
aa(lp432
F0.28187202659683
aI63
aI70
aI2
aS'on'
p433
aa(lp434
F0.07030961790224
aI63
aI0
aI2
aS'off'
p435
aa(lp436
F1.2969668434453
aI0
aI0
aI0
aS'timeAfterLastHit'
p437
aaaI0
aI0
aI0
aI0
aI0
aI0
aI0
aI0
aI0
aI0
aI0
aI0
aI0
aI0
aI0
aI0
aI0
aI0
aI0
aI0
aI0
aI0
aI0
aI0
aI0
aI0
aI0
aI0
aI0
aI0
aI0
aI0
aI0
aI0
aI0
aI0
aI0
aI0
aI0
aI0
aI0
aI0
aI0
aI0
aI0
aI0
aI0
aI0
aI0
aI0
aI0
aI0
aI0
aI0
aI0
aI0
aI0
aI0
aI0
aI0
aI0
aI0
aI0
aI0
aI0
aI0
aI0
aI0
aI0
aI0
aI0
aI0
aI0
aI0
aI0
aI0
aI0
aI0
aI0
aa(lp438
(dp439
a(dp440
g10
I0
sa(dp441
a(dp442
g10
I0
sa(dp443
a(dp444
g10
I1
sa(dp445
g10
I0
sa(dp446
g10
I0
sa(dp447
a(dp448
g10
I0
sa(dp449
a(dp450
g229
I43
sg10
I1
sa(dp451
g229
I44
sg10
I1
sa(dp452
a(dp453
a(dp454
a(dp455
a(dp456
g10
I0
sa(dp457
g10
I0
sa(dp458
g10
I0
sa(dp459
g229
I54
sg10
I1
sa(dp460
a(dp461
a(dp462
a(dp463
a(dp464
g10
I0
sa(dp465
a(dp466
a(dp467
g10
I0
sa(dp468
g10
I0
sa(dp469
a(dp470
a(dp471
a(dp472
g10
I1
sa(dp473
g10
I0
sa(dp474
g10
I0
sa(dp475
g10
I0
sa(dp476
g10
I0
sa(dp477
a(dp478
a(dp479
a(dp480
a(dp481
a(dp482
a(dp483
a(dp484
a(dp485
a(dp486
a(dp487
a(dp488
a(dp489
a(dp490
a(dp491
a(dp492
a(dp493
a(dp494
a(dp495
a(dp496
a(dp497
a(dp498
a(dp499
a(dp500
a(dp501
a(dp502
a(dp503
a(dp504
a(dp505
a(dp506
a(dp507
a(dp508
a(dp509
a(dp510
a(dp511
a(dp512
a(dp513
a(dp514
a(dp515
a(dp516
a(dp517
a(dp518
a(dp519
a(dp520
a(dp521
a(dp522
a(dp523
a(dp524
a(dp525
a(dp526
a(dp527
a(dp528
a(dp529
a(dp530
a(dp531
a(dp532
a(dp533
a(dp534
a(dp535
a(dp536
a(dp537
a(dp538
aa(lp539
I60
aI60
aI36
aI36
aa(lp540
(lp541
I0
aI2
aI3
aI5
aI7
aI8
aI10
aa(lp542
I0
aI2
aI3
aI5
aI7
aI8
aI10
aa(lp543
I0
aI2
aI3
aI5
aI7
aI8
aI10
aa(lp544
I0
aI1
aI2
aI3
aI4
aI5
aI6
aI7
aI8
aI9
aI10
aI11
aaa(lp545
(lp546
(lp547
I0
aI0
aI0
aI0
aI0
aI0
aI0
aI0
aI0
aI0
aI0
aI0
aa(lp548
I0
aI0
aI0
aI0
aI0
aI0
aI0
aI0
aI0
aI0
aI0
aI0
aa(lp549
I0
aI0
aI0
aI0
aI0
aI0
aI0
aI0
aI0
aI0
aI0
aI0
aa(lp550
I0
aI0
aI0
aI0
aI0
aI0
aI0
aI0
aI0
aI0
aI0
aI0
aaa(lp551
(lp552
I0
aI0
aI0
aI0
aI0
aI0
aI0
aI0
aI0
aI0
aI0
aI0
aa(lp553
I0
aI0
aI0
aI0
aI0
aI0
aI0
aI0
aI0
aI0
aI0
aI0
aa(lp554
I0
aI0
aI0
aI0
aI0
aI0
aI0
aI0
aI0
aI0
aI0
aI0
aa(lp555
I0
aI0
aI0
aI0
aI0
aI0
aI0
aI0
aI0
aI0
aI0
aI0
aaa(lp556
(lp557
I0
aI0
aI0
aI0
aI0
aI0
aI0
aI0
aI0
aI0
aI0
aI0
aa(lp558
I0
aI0
aI0
aI0
aI0
aI0
aI0
aI0
aI0
aI0
aI0
aI0
aa(lp559
I0
aI0
aI0
aI0
aI0
aI0
aI0
aI0
aI0
aI0
aI0
aI0
aa(lp560
I0
aI0
aI0
aI0
aI0
aI0
aI0
aI0
aI0
aI0
aI0
aI0
aaa(lp561
(lp562
I0
aI0
aI0
aI0
aI0
aI0
aI0
aI0
aI0
aI0
aI0
aI0
aa(lp563
I0
aI0
aI0
aI0
aI0
aI0
aI0
aI0
aI0
aI0
aI0
aI0
aa(lp564
I0
aI0
aI0
aI0
aI0
aI0
aI0
aI0
aI0
aI0
aI0
aI0
aa(lp565
I0
aI0
aI0
aI0
aI0
aI0
aI0
aI0
aI0
aI0
aI0
aI0
aaaa(lp566
(lp567
I0
aI0
aI0
aI0
aI0
aI0
aI0
aI0
aI0
aI0
aI0
aI0
aa(lp568
I0
aI0
aI0
aI0
aI0
aI0
aI0
aI0
aI0
aI0
aI0
aI0
aa(lp569
I0
aI0
aI0
aI0
aI0
aI0
aI0
aI0
aI0
aI0
aI0
aI0
aa(lp570
I0
aI0
aI0
aI0
aI0
aI0
aI0
aI0
aI0
aI0
aI0
aI0
aaaaI0
aI0
aI0
aI0
aI0
aI0
a(lp571
(lp572
I0
aI0
aI0
aI0
aI0
aI0
aI0
aI0
aI0
aI0
aI0
aI0
aI0
aI0
aI0
aI0
aI0
aI0
aI0
aI0
aI0
aI0
aI0
aI0
aI0
aI0
aI0
aI0
aI0
aI0
aI0
aI0
aI0
aI0
aI0
aI0
aI0
aI0
aI0
aI0
aI0
aI0
aI0
aI0
aI0
aI0
aI0
aI0
aI0
aI0
aI0
aI0
aI0
aI0
aI0
aI0
aI0
aI0
aI0
aI0
aI0
aI0
aI0
aI0
aI0
aI0
aI0
aI0
aI0
aI0
aI0
aI0
aI0
aI0
aI0
aI0
aI0
aI0
aI0
aI0
aI0
aI0
aI0
aI0
aI0
aI0
aI0
aI0
aI0
aI0
aI0
aI0
aI0
aI0
aI0
aI0
aI0
aI0
aI0
aI0
aa(lp573
(dp574
a(dp575
a(dp576
a(dp577
a(dp578
a(dp579
a(dp580
a(dp581
a(dp582
a(dp583
g10
I0
sa(dp584
a(dp585
a(dp586
a(dp587
a(dp588
a(dp589
a(dp590
a(dp591
g10
I0
sa(dp592
g10
I0
sa(dp593
a(dp594
a(dp595
a(dp596
a(dp597
a(dp598
a(dp599
a(dp600
a(dp601
a(dp602
g10
I0
sa(dp603
g10
I0
sa(dp604
a(dp605
a(dp606
a(dp607
g10
I1
sa(dp608
g10
I1
sa(dp609
g10
I0
sa(dp610
g10
I0
sa(dp611
a(dp612
a(dp613
a(dp614
a(dp615
a(dp616
a(dp617
a(dp618
a(dp619
a(dp620
a(dp621
a(dp622
a(dp623
a(dp624
a(dp625
a(dp626
a(dp627
a(dp628
a(dp629
a(dp630
a(dp631
a(dp632
a(dp633
a(dp634
a(dp635
a(dp636
a(dp637
a(dp638
a(dp639
a(dp640
a(dp641
a(dp642
a(dp643
a(dp644
a(dp645
a(dp646
a(dp647
a(dp648
a(dp649
a(dp650
a(dp651
a(dp652
a(dp653
a(dp654
a(dp655
a(dp656
a(dp657
a(dp658
a(dp659
a(dp660
a(dp661
a(dp662
a(dp663
a(dp664
a(dp665
a(dp666
a(dp667
a(dp668
a(dp669
a(dp670
a(dp671
a(dp672
a(dp673
aa(lp674
I60
aI60
aI36
aI36
aa(lp675
(lp676
I0
aI2
aI3
aI5
aI7
aI8
aI10
aa(lp677
I0
aI2
aI3
aI5
aI7
aI8
aI10
aa(lp678
I0
aI2
aI3
aI5
aI7
aI8
aI10
aa(lp679
I0
aI1
aI2
aI3
aI4
aI5
aI6
aI7
aI8
aI9
aI10
aI11
aaa(lp680
(lp681
(lp682
I0
aI0
aI0
aI0
aI0
aI0
aI0
aI0
aI0
aI0
aI0
aI0
aa(lp683
I0
aI0
aI0
aI0
aI0
aI0
aI0
aI0
aI0
aI0
aI0
aI0
aa(lp684
I0
aI0
aI0
aI0
aI0
aI0
aI0
aI0
aI0
aI0
aI0
aI0
aa(lp685
I0
aI0
aI0
aI0
aI0
aI0
aI0
aI0
aI0
aI0
aI0
aI0
aaa(lp686
(lp687
I0
aI0
aI0
aI0
aI0
aI0
aI0
aI0
aI0
aI0
aI0
aI0
aa(lp688
I0
aI0
aI0
aI0
aI0
aI0
aI0
aI0
aI0
aI0
aI0
aI0
aa(lp689
I0
aI0
aI0
aI0
aI0
aI0
aI0
aI0
aI0
aI0
aI0
aI0
aa(lp690
I0
aI0
aI0
aI0
aI0
aI0
aI0
aI0
aI0
aI0
aI0
aI0
aaa(lp691
(lp692
I0
aI0
aI0
aI0
aI0
aI0
aI0
aI0
aI0
aI0
aI0
aI0
aa(lp693
I0
aI0
aI0
aI0
aI0
aI0
aI0
aI0
aI0
aI0
aI0
aI0
aa(lp694
I0
aI0
aI0
aI0
aI0
aI0
aI0
aI0
aI0
aI0
aI0
aI0
aa(lp695
I0
aI0
aI0
aI0
aI0
aI0
aI0
aI0
aI0
aI0
aI0
aI0
aaa(lp696
(lp697
I0
aI0
aI0
aI0
aI0
aI0
aI0
aI0
aI0
aI0
aI0
aI0
aa(lp698
I0
aI0
aI0
aI0
aI0
aI0
aI0
aI0
aI0
aI0
aI0
aI0
aa(lp699
I0
aI0
aI0
aI0
aI0
aI0
aI0
aI0
aI0
aI0
aI0
aI0
aa(lp700
I0
aI0
aI0
aI0
aI0
aI0
aI0
aI0
aI0
aI0
aI0
aI0
aaaa(lp701
(lp702
I0
aI0
aI0
aI0
aI0
aI0
aI0
aI0
aI0
aI0
aI0
aI0
aa(lp703
I0
aI0
aI0
aI0
aI0
aI0
aI0
aI0
aI0
aI0
aI0
aI0
aa(lp704
I0
aI0
aI0
aI0
aI0
aI0
aI0
aI0
aI0
aI0
aI0
aI0
aa(lp705
I0
aI0
aI0
aI0
aI0
aI0
aI0
aI0
aI0
aI0
aI0
aI0
aaaa(lp706
(lp707
I0
aI0
aI0
aI0
aI0
aI0
aI0
aI0
aI0
aI0
aI0
aI0
aI0
aI0
aI0
aI0
aI0
aI0
aI0
aI0
aI0
aI0
aI0
aI0
aI0
aI0
aI0
aI0
aI0
aI0
aI0
aI0
aI0
aI0
aI0
aI0
aI0
aI0
aI0
aI0
aI0
aI0
aI0
aI0
aI0
aI0
aI0
aI0
aI0
aI0
aI0
aI0
aI0
aI0
aI0
aI0
aI0
aI0
aI0
aI0
aI0
aI0
aI0
aI0
aI0
aI0
aI0
aI0
aI0
aI0
aI0
aI0
aI0
aI0
aI0
aI0
aI0
aI0
aI0
aI0
aI0
aI0
aI0
aI0
aI0
aI0
aI0
aI0
aI0
aI0
aI0
aI0
aI0
aI0
aI0
aI0
aI0
aI0
aI0
aI0
aa(lp708
(dp709
a(dp710
a(dp711
a(dp712
a(dp713
a(dp714
a(dp715
a(dp716
a(dp717
a(dp718
g10
I0
sa(dp719
a(dp720
a(dp721
a(dp722
a(dp723
a(dp724
a(dp725
a(dp726
g10
I0
sa(dp727
g10
I0
sa(dp728
a(dp729
a(dp730
a(dp731
a(dp732
a(dp733
a(dp734
a(dp735
a(dp736
a(dp737
g10
I0
sa(dp738
g10
I0
sa(dp739
a(dp740
a(dp741
a(dp742
g10
I1
sa(dp743
g10
I1
sa(dp744
g10
I0
sa(dp745
g10
I0
sa(dp746
a(dp747
a(dp748
a(dp749
a(dp750
a(dp751
a(dp752
a(dp753
a(dp754
a(dp755
a(dp756
a(dp757
a(dp758
a(dp759
a(dp760
a(dp761
a(dp762
a(dp763
a(dp764
a(dp765
a(dp766
a(dp767
a(dp768
a(dp769
a(dp770
a(dp771
a(dp772
a(dp773
a(dp774
a(dp775
a(dp776
a(dp777
a(dp778
a(dp779
a(dp780
a(dp781
a(dp782
a(dp783
a(dp784
a(dp785
a(dp786
a(dp787
a(dp788
a(dp789
a(dp790
a(dp791
a(dp792
a(dp793
a(dp794
a(dp795
a(dp796
a(dp797
a(dp798
a(dp799
a(dp800
a(dp801
a(dp802
a(dp803
a(dp804
a(dp805
a(dp806
a(dp807
a(dp808
aa(lp809
I60
aI60
aI36
aI36
aa(lp810
(lp811
I0
aI2
aI3
aI5
aI7
aI8
aI10
aa(lp812
I0
aI2
aI3
aI5
aI7
aI8
aI10
aa(lp813
I0
aI2
aI3
aI5
aI7
aI8
aI10
aa(lp814
I0
aI1
aI2
aI3
aI4
aI5
aI6
aI7
aI8
aI9
aI10
aI11
aaa(lp815
(lp816
(lp817
I0
aI0
aI0
aI0
aI0
aI0
aI0
aI0
aI0
aI0
aI0
aI0
aa(lp818
I0
aI0
aI0
aI0
aI0
aI0
aI0
aI0
aI0
aI0
aI0
aI0
aa(lp819
I0
aI0
aI0
aI0
aI0
aI0
aI0
aI0
aI0
aI0
aI0
aI0
aa(lp820
I0
aI0
aI0
aI0
aI0
aI0
aI0
aI0
aI0
aI0
aI0
aI0
aaa(lp821
(lp822
I0
aI0
aI0
aI0
aI0
aI0
aI0
aI0
aI0
aI0
aI0
aI0
aa(lp823
I0
aI0
aI0
aI0
aI0
aI0
aI0
aI0
aI0
aI0
aI0
aI0
aa(lp824
I0
aI0
aI0
aI0
aI0
aI0
aI0
aI0
aI0
aI0
aI0
aI0
aa(lp825
I0
aI0
aI0
aI0
aI0
aI0
aI0
aI0
aI0
aI0
aI0
aI0
aaa(lp826
(lp827
I0
aI0
aI0
aI0
aI0
aI0
aI0
aI0
aI0
aI0
aI0
aI0
aa(lp828
I0
aI0
aI0
aI0
aI0
aI0
aI0
aI0
aI0
aI0
aI0
aI0
aa(lp829
I0
aI0
aI0
aI0
aI0
aI0
aI0
aI0
aI0
aI0
aI0
aI0
aa(lp830
I0
aI0
aI0
aI0
aI0
aI0
aI0
aI0
aI0
aI0
aI0
aI0
aaa(lp831
(lp832
I0
aI0
aI0
aI0
aI0
aI0
aI0
aI0
aI0
aI0
aI0
aI0
aa(lp833
I0
aI0
aI0
aI0
aI0
aI0
aI0
aI0
aI0
aI0
aI0
aI0
aa(lp834
I0
aI0
aI0
aI0
aI0
aI0
aI0
aI0
aI0
aI0
aI0
aI0
aa(lp835
I0
aI0
aI0
aI0
aI0
aI0
aI0
aI0
aI0
aI0
aI0
aI0
aaaa(lp836
(lp837
I0
aI0
aI0
aI0
aI0
aI0
aI0
aI0
aI0
aI0
aI0
aI0
aa(lp838
I0
aI0
aI0
aI0
aI0
aI0
aI0
aI0
aI0
aI0
aI0
aI0
aa(lp839
I0
aI0
aI0
aI0
aI0
aI0
aI0
aI0
aI0
aI0
aI0
aI0
aa(lp840
I0
aI0
aI0
aI0
aI0
aI0
aI0
aI0
aI0
aI0
aI0
aI0
aaaa(lp841
(lp842
I0
aI0
aI0
aI0
aI0
aI0
aI0
aI0
aI0
aI0
aI0
aI0
aI0
aI0
aI0
aI0
aI0
aI0
aI0
aI0
aI0
aI0
aI0
aI0
aI0
aI0
aI0
aI0
aI0
aI0
aI0
aI0
aI0
aI0
aI0
aI0
aI0
aI0
aI0
aI0
aI0
aI0
aI0
aI0
aI0
aI0
aI0
aI0
aI0
aI0
aI0
aI0
aI0
aI0
aI0
aI0
aI0
aI0
aI0
aI0
aI0
aI0
aI0
aI0
aI0
aI0
aI0
aI0
aI0
aI0
aI0
aI0
aI0
aI0
aI0
aI0
aI0
aI0
aI0
aI0
aI0
aI0
aI0
aI0
aI0
aI0
aI0
aI0
aI0
aI0
aI0
aI0
aI0
aI0
aI0
aI0
aI0
aI0
aI0
aI0
aa(lp843
(dp844
a(dp845
a(dp846
a(dp847
a(dp848
a(dp849
a(dp850
a(dp851
a(dp852
a(dp853
g10
I0
sa(dp854
a(dp855
a(dp856
a(dp857
a(dp858
a(dp859
a(dp860
a(dp861
g10
I0
sa(dp862
g10
I0
sa(dp863
a(dp864
a(dp865
a(dp866
a(dp867
a(dp868
a(dp869
a(dp870
a(dp871
a(dp872
g10
I0
sa(dp873
g10
I0
sa(dp874
a(dp875
a(dp876
a(dp877
g10
I1
sa(dp878
g10
I1
sa(dp879
g10
I0
sa(dp880
g10
I0
sa(dp881
a(dp882
a(dp883
a(dp884
a(dp885
a(dp886
a(dp887
a(dp888
a(dp889
a(dp890
a(dp891
a(dp892
a(dp893
a(dp894
a(dp895
a(dp896
a(dp897
a(dp898
a(dp899
a(dp900
a(dp901
a(dp902
a(dp903
a(dp904
a(dp905
a(dp906
a(dp907
a(dp908
a(dp909
a(dp910
a(dp911
a(dp912
a(dp913
a(dp914
a(dp915
a(dp916
a(dp917
a(dp918
a(dp919
a(dp920
a(dp921
a(dp922
a(dp923
a(dp924
a(dp925
a(dp926
a(dp927
a(dp928
a(dp929
a(dp930
a(dp931
a(dp932
a(dp933
a(dp934
a(dp935
a(dp936
a(dp937
a(dp938
a(dp939
a(dp940
a(dp941
a(dp942
a(dp943
aa(lp944
I60
aI60
aI36
aI36
aa(lp945
(lp946
I0
aI2
aI3
aI5
aI7
aI8
aI10
aa(lp947
I0
aI2
aI3
aI5
aI7
aI8
aI10
aa(lp948
I0
aI2
aI3
aI5
aI7
aI8
aI10
aa(lp949
I0
aI1
aI2
aI3
aI4
aI5
aI6
aI7
aI8
aI9
aI10
aI11
aaa(lp950
(lp951
(lp952
I0
aI0
aI0
aI0
aI0
aI0
aI0
aI0
aI0
aI0
aI0
aI0
aa(lp953
I0
aI0
aI0
aI0
aI0
aI0
aI0
aI0
aI0
aI0
aI0
aI0
aa(lp954
I0
aI0
aI0
aI0
aI0
aI0
aI0
aI0
aI0
aI0
aI0
aI0
aa(lp955
I0
aI0
aI0
aI0
aI0
aI0
aI0
aI0
aI0
aI0
aI0
aI0
aaa(lp956
(lp957
I0
aI0
aI0
aI0
aI0
aI0
aI0
aI0
aI0
aI0
aI0
aI0
aa(lp958
I0
aI0
aI0
aI0
aI0
aI0
aI0
aI0
aI0
aI0
aI0
aI0
aa(lp959
I0
aI0
aI0
aI0
aI0
aI0
aI0
aI0
aI0
aI0
aI0
aI0
aa(lp960
I0
aI0
aI0
aI0
aI0
aI0
aI0
aI0
aI0
aI0
aI0
aI0
aaa(lp961
(lp962
I0
aI0
aI0
aI0
aI0
aI0
aI0
aI0
aI0
aI0
aI0
aI0
aa(lp963
I0
aI0
aI0
aI0
aI0
aI0
aI0
aI0
aI0
aI0
aI0
aI0
aa(lp964
I0
aI0
aI0
aI0
aI0
aI0
aI0
aI0
aI0
aI0
aI0
aI0
aa(lp965
I0
aI0
aI0
aI0
aI0
aI0
aI0
aI0
aI0
aI0
aI0
aI0
aaa(lp966
(lp967
I0
aI0
aI0
aI0
aI0
aI0
aI0
aI0
aI0
aI0
aI0
aI0
aa(lp968
I0
aI0
aI0
aI0
aI0
aI0
aI0
aI0
aI0
aI0
aI0
aI0
aa(lp969
I0
aI0
aI0
aI0
aI0
aI0
aI0
aI0
aI0
aI0
aI0
aI0
aa(lp970
I0
aI0
aI0
aI0
aI0
aI0
aI0
aI0
aI0
aI0
aI0
aI0
aaaa(lp971
(lp972
I0
aI0
aI0
aI0
aI0
aI0
aI0
aI0
aI0
aI0
aI0
aI0
aa(lp973
I0
aI0
aI0
aI0
aI0
aI0
aI0
aI0
aI0
aI0
aI0
aI0
aa(lp974
I0
aI0
aI0
aI0
aI0
aI0
aI0
aI0
aI0
aI0
aI0
aI0
aa(lp975
I0
aI0
aI0
aI0
aI0
aI0
aI0
aI0
aI0
aI0
aI0
aI0
aaaaI0
aI0
aI0
aI0
aI0
aI0
aI0
aI0
aI0
aI0
aI0
aI0
aI0
aI0
aI0
aI0
aI0
aI0
aI0
a.