(lp0
I0
a(lp1
(lp2
I0
aI0
aI0
aI0
aI0
aI0
aI0
aI0
aI0
aI0
aI0
aI0
aI0
aI0
aI0
aI0
aI0
a(lp3
(lp4
F0.023402415639794
aI38
aI72
aI2
aS'on'
p5
aa(lp6
F0.078757530652638
aI38
aI0
aI2
aS'off'
p7
aa(lp8
F0.42284293889838
aI38
aI68
aI2
aS'on'
p9
aa(lp10
F0.086343531427019
aI38
aI0
aI2
aS'off'
p11
aa(lp12
F0.42286867589723
aI36
aI104
aI2
aS'on'
p13
aa(lp14
F0.12645996523111
aI36
aI0
aI2
aS'off'
p15
aa(lp16
F0.24253770177211
aI38
aI59
aI2
aS'on'
p17
aa(lp18
F0.070153695909084
aI38
aI0
aI2
aS'off'
p19
aa(lp20
F0.38425145304859
aI41
aI85
aI2
aS'on'
p21
aa(lp22
F0.10157923647262
aI41
aI0
aI2
aS'off'
p23
aa(lp24
F0.38494054102785
aI38
aI85
aI2
aS'on'
p25
aa(lp26
F0.070700234392689
aI38
aI0
aI2
aS'off'
p27
aa(lp28
F0.10242869844751
aI36
aI73
aI2
aS'on'
p29
aa(lp30
F0.10131066748067
aI36
aI0
aI2
aS'off'
p31
aa(lp32
F0.21955813445675
aI38
aI78
aI2
aS'on'
p33
aa(lp34
F0.12545948776119
aI38
aI0
aI2
aS'off'
p35
aa(lp36
F0.42264094740403
aI36
aI66
aI2
aS'on'
p37
aa(lp38
F0.062892311626001
aI36
aI0
aI2
aS'off'
p39
aa(lp40
F0.10959804573349
aI33
aI106
aI2
aS'on'
p41
aa(lp42
F0.070650101394676
aI33
aI0
aI2
aS'off'
p43
aa(lp44
F0.26010638524804
aI31
aI70
aI2
aS'on'
p45
aa(lp46
F0.062719372130687
aI31
aI0
aI2
aS'off'
p47
aa(lp48
F0.04779792794784
aI0
aI0
aI0
aS'timeAfterLastHit'
p49
aaa(lp50
(lp51
F0.39122727799258
aI26
aI53
aI2
aS'on'
p52
aa(lp53
F0.039050860836142
aI26
aI0
aI2
aS'off'
p54
aa(lp55
F0.11818571347749
aI26
aI65
aI2
aS'on'
p56
aa(lp57
F0.03840016835602
aI26
aI0
aI2
aS'off'
p58
aa(lp59
F0.31497795111272
aI29
aI62
aI2
aS'on'
p60
aa(lp61
F0.078912393648352
aI29
aI0
aI2
aS'off'
p62
aa(lp63
F0.094396396686534
aI29
aI70
aI2
aS'on'
p64
aa(lp65
F0.077739000683323
aI29
aI0
aI2
aS'off'
p66
aa(lp67
F0.22016187993859
aI31
aI73
aI2
aS'on'
p68
aa(lp69
F0.070828497889124
aI31
aI0
aI2
aS'off'
p70
aa(lp71
F0.070747053891864
aI31
aI92
aI2
aS'on'
p72
aa(lp73
F0.070700369392853
aI31
aI0
aI2
aS'off'
p74
aa(lp75
F0.25872957278898
aI33
aI89
aI2
aS'on'
p76
aa(lp77
F0.063227911115519
aI33
aI0
aI2
aS'off'
p78
aa(lp79
F0.12565016475583
aI33
aI104
aI2
aS'on'
p80
aa(lp81
F0.078304247166216
aI33
aI0
aI2
aS'off'
p82
aa(lp83
F0.23583094997184
aI36
aI73
aI2
aS'on'
p84
aa(lp85
F0.062970883122944
aI36
aI0
aI2
aS'off'
p86
aa(lp87
F0.078235050668809
aI36
aI99
aI2
aS'on'
p88
aa(lp89
F0.054487618376243
aI36
aI0
aI2
aS'off'
p90
aa(lp91
F0.29808609461588
aI36
aI73
aI2
aS'on'
p92
aa(lp93
F0.070971713385006
aI36
aI0
aI2
aS'off'
p94
aa(lp95
F0.093382606717114
aI38
aI104
aI2
aS'on'
p96
aa(lp97
F0.086485263422674
aI38
aI0
aI2
aS'off'
p98
aa(lp99
F0.24323400475078
aI36
aI71
aI2
aS'on'
p100
aa(lp101
F0.078341574665046
aI36
aI0
aI2
aS'off'
p102
aa(lp103
F0.094118607195469
aI33
aI106
aI2
aS'on'
p104
aa(lp105
F0.09394272920008
aI33
aI0
aI2
aS'off'
p106
aa(lp107
F0.20456422190318
aI31
aI92
aI2
aS'on'
p108
aa(lp109
F0.10941020223981
aI31
aI0
aI2
aS'off'
p110
aa(lp111
F0.084699020032986
aI0
aI0
aI0
aS'timeAfterLastHit'
p112
aaaI0
a(lp113
(lp114
F2.5314964170575
aI62
aI99
aI3
aS'on'
p115
aa(lp116
F1.4044257061446
aI62
aI0
aI3
aS'off'
p117
aa(lp118
F9.057582741063
aI62
aI70
aI3
aS'on'
p119
aa(lp120
F2.6818408345748
aI62
aI0
aI3
aS'off'
p121
aa(lp122
F0.32465430116008
aI0
aI0
aI0
aS'timeAfterLastHit'
p123
aaaI0
aI0
aI0
aI0
aI0
aI0
aI0
a(lp124
(lp125
F2.4886355040024
aI57
aI106
aI3
aS'on'
p126
aa(lp127
F1.4576152290597
aI57
aI0
aI3
aS'off'
p128
aa(lp129
F4.0537492669379
aI0
aI0
aI0
aS'timeAfterLastHit'
p130
aaaI0
aI0
aI0
aI0
a(lp131
(lp132
F0.0
aI32
aI101
aI3
aS'on'
p133
aa(lp134
F0.13390181450941
aI32
aI0
aI3
aS'off'
p135
aa(lp136
F0.69943151882392
aI32
aI80
aI3
aS'on'
p137
aa(lp138
F0.10211531545674
aI32
aI0
aI3
aS'off'
p139
aa(lp140
F0.064551351209924
aI33
aI96
aI3
aS'on'
p141
aa(lp142
F0.10982364272699
aI33
aI0
aI3
aS'off'
p143
aa(lp144
F0.22350969060634
aI32
aI99
aI3
aS'on'
p145
aa(lp146
F0.12541576426233
aI32
aI0
aI3
aS'off'
p147
aa(lp148
F0.54125090240434
aI32
aI89
aI3
aS'on'
p149
aa(lp150
F0.1324529390526
aI32
aI0
aI3
aS'off'
p151
aa(lp152
F0.3675470609474
aI32
aI94
aI3
aS'on'
p153
aa(lp154
F0.11776996599018
aI32
aI0
aI3
aS'off'
p155
aa(lp156
F0.38223003400982
aI33
aI113
aI3
aS'on'
p157
aa(lp158
F0.16494778008419
aI33
aI0
aI3
aS'off'
p159
aa(lp160
F0.83505221991581
aI0
aI0
aI0
aS'timeAfterLastHit'
p161
aaa(lp162
(lp163
F2.9910333101101
aI40
aI106
aI3
aS'on'
p164
aa(lp165
F0.086293347428295
aI40
aI0
aI3
aS'off'
p166
aa(lp167
F2.92426831635
aI41
aI106
aI3
aS'on'
p168
aa(lp169
F0.12503375627369
aI41
aI0
aI3
aS'off'
p170
aa(lp171
F0.6676509806025
aI41
aI108
aI3
aS'on'
p172
aa(lp173
F0.13307837753393
aI41
aI0
aI3
aS'off'
p174
aa(lp175
F1.0726419117015
aI0
aI0
aI0
aS'timeAfterLastHit'
p176
aaa(lp177
(lp178
F0.033774448790325
aI52
aI104
aI3
aS'on'
p179
aa(lp180
F1.537766909171
aI52
aI0
aI3
aS'off'
p181
aa(lp182
F0.39951955359334
aI53
aI101
aI3
aS'on'
p183
aa(lp184
F1.6453579504645
aI53
aI0
aI3
aS'off'
p185
aa(lp186
F0.3845215010403
aI54
aI106
aI3
aS'on'
p187
aa(lp188
F0.57968694972402
aI54
aI0
aI3
aS'off'
p189
aa(lp190
F0.17288649684764
aI54
aI94
aI3
aS'on'
p191
aa(lp192
F0.51815764605766
aI54
aI0
aI3
aS'off'
p193
aa(lp194
F0.22013756493936
aI54
aI106
aI3
aS'on'
p195
aa(lp196
F0.33831766241735
aI54
aI0
aI3
aS'off'
p197
aa(lp198
F0.18774768940472
aI55
aI101
aI3
aS'on'
p199
aa(lp200
F1.9721256275498
aI55
aI0
aI3
aS'off'
p201
aa(lp202
F0.0099999999999909
aI0
aI0
aI0
aS'timeAfterLastHit'
p203
aaa(lp204
(lp205
F0.054843107139504
aI53
aI115
aI3
aS'on'
p206
aa(lp207
F0.00010763849684281
aI48
aI17
aI3
aS'on'
p208
aa(lp209
F0.039234153330767
aI48
aI0
aI3
aS'off'
p210
aa(lp211
F0.055088059358127
aI48
aI19
aI3
aS'on'
p212
aa(lp213
F0.11778429098979
aI48
aI0
aI3
aS'off'
p214
aa(lp215
F2.6721780973628
aI53
aI0
aI3
aS'off'
p216
aa(lp217
F1.0275355883771
aI53
aI113
aI3
aS'on'
p218
aa(lp219
F1.8123695114873
aI53
aI0
aI3
aS'off'
p220
aa(lp221
F0.18849333938238
aI54
aI89
aI3
aS'on'
p222
aa(lp223
F0.62735507180344
aI54
aI0
aI3
aS'off'
p224
aa(lp225
F0.14872952406745
aI54
aI115
aI3
aS'on'
p226
aa(lp227
F0.5569810199006
aI54
aI0
aI3
aS'off'
p228
aa(lp229
F0.1568234863264
aI54
aI101
aI3
aS'on'
p230
aa(lp231
F0.53247711197753
aI54
aI0
aI3
aS'off'
p232
aa(lp233
F0.0099999999999909
aI0
aI0
aI0
aS'timeAfterLastHit'
p234
aaa(lp235
(lp236
F0.0036352355617737
aI55
aI101
aI3
aS'on'
p237
aa(lp238
F1.1219306350638
aI55
aI0
aI3
aS'off'
p239
aa(lp240
F0.38438415654446
aI60
aI115
aI3
aS'on'
p241
aa(lp242
F1.5218350526459
aI60
aI0
aI3
aS'off'
p243
aa(lp244
F0.96432145176095
aI55
aI111
aI3
aS'on'
p245
aa(lp246
F1.2257407434702
aI55
aI0
aI3
aS'off'
p247
aa(lp248
F0.32128946042462
aI60
aI104
aI3
aS'on'
p249
aa(lp250
F1.2150835032878
aI60
aI0
aI3
aS'off'
p251
aa(lp252
F0.25815165430652
aI54
aI111
aI3
aS'on'
p253
aa(lp254
F0.8476333757385
aI54
aI0
aI3
aS'off'
p255
aa(lp256
F0.13599473119552
aI0
aI0
aI0
aS'timeAfterLastHit'
p257
aaaI0
aI0
aI0
aI0
aI0
aI0
aI0
aI0
aI0
aI0
aI0
aI0
aI0
aI0
aI0
aI0
aI0
aI0
aI0
aI0
aI0
aI0
aI0
aI0
aI0
aI0
aI0
aI0
aI0
aI0
aI0
aI0
aI0
aI0
aI0
aI0
aI0
aI0
aI0
aI0
aI0
aI0
aI0
aI0
aI0
aI0
aI0
aI0
aI0
aI0
aI0
aI0
aI0
aI0
aI0
aI0
aI0
aI0
aI0
aI0
aI0
aI0
aa(lp258
(dp259
a(dp260
a(dp261
a(dp262
a(dp263
a(dp264
a(dp265
a(dp266
a(dp267
a(dp268
a(dp269
a(dp270
a(dp271
a(dp272
a(dp273
a(dp274
a(dp275
a(dp276
S'button'
p277
I51
sS'playing'
p278
I1
sa(dp279
g277
I52
sg278
I0
sa(dp280
a(dp281
g277
I54
sg278
I0
sa(dp282
a(dp283
a(dp284
a(dp285
a(dp286
a(dp287
a(dp288
a(dp289
g277
I64
sg278
I0
sa(dp290
g278
I0
sa(dp291
a(dp292
a(dp293
a(dp294
g277
I71
sg278
I1
sa(dp295
g277
I72
sg278
I1
sa(dp296
g277
I73
sg278
I0
sa(dp297
g277
I74
sg278
I0
sa(dp298
g277
I75
sg278
I0
sa(dp299
a(dp300
a(dp301
a(dp302
a(dp303
a(dp304
a(dp305
a(dp306
a(dp307
a(dp308
a(dp309
a(dp310
a(dp311
a(dp312
a(dp313
a(dp314
a(dp315
a(dp316
a(dp317
a(dp318
a(dp319
a(dp320
a(dp321
a(dp322
a(dp323
a(dp324
a(dp325
a(dp326
a(dp327
a(dp328
a(dp329
a(dp330
a(dp331
a(dp332
a(dp333
a(dp334
a(dp335
a(dp336
a(dp337
a(dp338
a(dp339
a(dp340
a(dp341
a(dp342
a(dp343
a(dp344
a(dp345
a(dp346
a(dp347
a(dp348
a(dp349
a(dp350
a(dp351
a(dp352
a(dp353
a(dp354
a(dp355
a(dp356
a(dp357
a(dp358
a(dp359
a(dp360
aa(lp361
I60
aI60
aI36
aI36
aa(lp362
(lp363
I0
aI2
aI3
aI5
aI7
aI8
aI10
aa(lp364
I0
aI2
aI3
aI5
aI7
aI8
aI10
aa(lp365
I0
aI2
aI3
aI5
aI7
aI8
aI10
aa(lp366
I0
aI1
aI2
aI3
aI4
aI5
aI6
aI7
aI8
aI9
aI10
aI11
aaa(lp367
(lp368
(lp369
I0
aI0
aI0
aI0
aI0
aI0
aI0
aI0
aI0
aI0
aI0
aI0
aa(lp370
I0
aI0
aI0
aI0
aI0
aI0
aI0
aI0
aI0
aI0
aI0
aI0
aa(lp371
I0
aI0
aI0
aI0
aI0
aI0
aI0
aI0
aI0
aI0
aI0
aI0
aa(lp372
I0
aI0
aI0
aI0
aI0
aI0
aI0
aI0
aI0
aI0
aI0
aI0
aaa(lp373
(lp374
I0
aI0
aI0
aI0
aI0
aI0
aI0
aI0
aI0
aI0
aI0
aI0
aa(lp375
I0
aI0
aI0
aI0
aI0
aI0
aI0
aI0
aI0
aI0
aI0
aI0
aa(lp376
I0
aI0
aI0
aI0
aI0
aI0
aI0
aI0
aI0
aI0
aI0
aI0
aa(lp377
I0
aI0
aI0
aI0
aI0
aI0
aI0
aI0
aI0
aI0
aI0
aI0
aaa(lp378
(lp379
I0
aI0
aI0
aI0
aI0
aI0
aI0
aI0
aI0
aI0
aI0
aI0
aa(lp380
I0
aI0
aI0
aI0
aI0
aI0
aI0
aI0
aI0
aI0
aI0
aI0
aa(lp381
I0
aI0
aI0
aI0
aI0
aI0
aI0
aI0
aI0
aI0
aI0
aI0
aa(lp382
I0
aI0
aI0
aI0
aI0
aI0
aI0
aI0
aI0
aI0
aI0
aI0
aaa(lp383
(lp384
I0
aI0
aI0
aI0
aI0
aI0
aI0
aI0
aI0
aI0
aI0
aI0
aa(lp385
I0
aI0
aI0
aI0
aI0
aI0
aI0
aI0
aI0
aI0
aI0
aI0
aa(lp386
I0
aI0
aI0
aI0
aI0
aI0
aI0
aI0
aI0
aI0
aI0
aI0
aa(lp387
I0
aI0
aI0
aI0
aI0
aI0
aI0
aI0
aI0
aI0
aI0
aI0
aaaa(lp388
(lp389
I0
aI0
aI0
aI0
aI0
aI0
aI0
aI0
aI0
aI0
aI0
aI0
aa(lp390
I0
aI0
aI0
aI0
aI0
aI0
aI0
aI0
aI0
aI0
aI0
aI0
aa(lp391
I0
aI0
aI0
aI0
aI0
aI0
aI0
aI0
aI0
aI0
aI0
aI0
aa(lp392
I0
aI0
aI0
aI0
aI0
aI0
aI0
aI0
aI0
aI0
aI0
aI0
aaaa(lp393
(lp394
I0
aI0
aI0
aI0
aI0
aI0
aI0
aI0
aI0
aI0
aI0
aI0
aI0
a(lp395
(lp396
F0.006743741036189
aI65
aI92
aI3
aS'on'
p397
aa(lp398
F0.088319921213042
aI65
aI0
aI3
aS'off'
p399
aa(lp400
F0.61995168252724
aI64
aI101
aI3
aS'on'
p401
aa(lp402
F0.10184602795016
aI64
aI0
aI3
aS'off'
p403
aa(lp404
F0.64411785631637
aI63
aI94
aI3
aS'on'
p405
aa(lp406
F0.078422270167721
aI63
aI0
aI3
aS'off'
p407
aa(lp408
F6.4561659595747
aI65
aI73
aI3
aS'on'
p409
aa(lp410
F0.094261012709467
aI65
aI0
aI3
aS'off'
p411
aa(lp412
F0.58808334647074
aI64
aI96
aI3
aS'on'
p413
aa(lp414
F0.10995014522268
aI64
aI0
aI3
aS'off'
p415
aa(lp416
F0.6430360323302
aI63
aI85
aI3
aS'on'
p417
aa(lp418
F0.086858833901715
aI63
aI0
aI3
aS'off'
p419
aa(lp420
F2.4877425953691
aI58
aI122
aI3
aS'on'
p421
aa(lp422
F0.12525091876705
aI58
aI0
aI3
aS'off'
p423
aa(lp424
F3.8692496564436
aI0
aI0
aI0
aS'timeAfterLastHit'
p425
aaaI0
aI0
aI0
aI0
aI0
aI0
aI0
aI0
aI0
aI0
aI0
aI0
aI0
aI0
aI0
aI0
aI0
aI0
aI0
aI0
aI0
aI0
aI0
aI0
aI0
aI0
aI0
aI0
aI0
aI0
aI0
aI0
aI0
aI0
aI0
aI0
aI0
aI0
aI0
aI0
aI0
aI0
aI0
aI0
aI0
aI0
aI0
aI0
aI0
aI0
aI0
aI0
aI0
aI0
aI0
aI0
aI0
aI0
aI0
aI0
aI0
aI0
aI0
aI0
aI0
aI0
aI0
aI0
aI0
aI0
aI0
aI0
aI0
aI0
aI0
aI0
aI0
aI0
aI0
aI0
aI0
aI0
aI0
aI0
aI0
aI0
aa(lp426
(dp427
a(dp428
a(dp429
a(dp430
a(dp431
a(dp432
a(dp433
a(dp434
a(dp435
a(dp436
a(dp437
a(dp438
a(dp439
a(dp440
S'button'
p441
I45
sS'playing'
p442
I01
sa(dp443
a(dp444
a(dp445
a(dp446
g442
I0
sa(dp447
g442
I1
sa(dp448
a(dp449
g442
I0
sa(dp450
a(dp451
a(dp452
a(dp453
a(dp454
a(dp455
a(dp456
a(dp457
g442
I0
sa(dp458
a(dp459
a(dp460
a(dp461
a(dp462
g442
I1
sa(dp463
g442
I1
sa(dp464
g442
I0
sa(dp465
g442
I0
sa(dp466
g442
I0
sa(dp467
a(dp468
a(dp469
a(dp470
a(dp471
a(dp472
a(dp473
a(dp474
a(dp475
a(dp476
a(dp477
a(dp478
a(dp479
a(dp480
a(dp481
a(dp482
a(dp483
a(dp484
a(dp485
a(dp486
a(dp487
a(dp488
a(dp489
a(dp490
a(dp491
a(dp492
a(dp493
a(dp494
a(dp495
a(dp496
a(dp497
a(dp498
a(dp499
a(dp500
a(dp501
a(dp502
a(dp503
a(dp504
a(dp505
a(dp506
a(dp507
a(dp508
a(dp509
a(dp510
a(dp511
a(dp512
a(dp513
a(dp514
a(dp515
a(dp516
a(dp517
a(dp518
a(dp519
a(dp520
a(dp521
a(dp522
a(dp523
a(dp524
a(dp525
a(dp526
a(dp527
a(dp528
aa(lp529
I60
aI60
aI36
aI36
aa(lp530
(lp531
I0
aI2
aI3
aI5
aI7
aI8
aI10
aa(lp532
I0
aI2
aI3
aI5
aI7
aI8
aI10
aa(lp533
I0
aI2
aI3
aI5
aI7
aI8
aI10
aa(lp534
I0
aI1
aI2
aI3
aI4
aI5
aI6
aI7
aI8
aI9
aI10
aI11
aaa(lp535
(lp536
(lp537
I0
aI0
aI0
aI0
aI0
aI0
aI0
aI0
aI0
aI0
aI0
aI0
aa(lp538
I0
aI0
aI0
aI0
aI0
aI0
aI0
aI0
aI0
aI0
aI0
aI0
aa(lp539
I0
aI0
aI0
aI0
aI0
aI0
aI0
aI0
aI0
aI0
aI0
aI0
aa(lp540
I0
aI0
aI0
aI0
aI0
aI0
aI0
aI0
aI0
aI0
aI0
aI0
aaa(lp541
(lp542
I0
aI0
aI0
aI0
aI0
aI0
aI0
aI0
aI0
aI0
aI0
aI0
aa(lp543
I0
aI0
aI0
aI0
aI0
aI0
aI0
aI0
aI0
aI0
aI0
aI0
aa(lp544
I0
aI0
aI0
aI0
aI0
aI0
aI0
aI0
aI0
aI0
aI0
aI0
aa(lp545
I0
aI0
aI0
aI0
aI0
aI0
aI0
aI0
aI0
aI0
aI0
aI0
aaa(lp546
(lp547
I0
aI0
aI0
aI0
aI0
aI0
aI0
aI0
aI0
aI0
aI0
aI0
aa(lp548
I0
aI0
aI0
aI0
aI0
aI0
aI0
aI0
aI0
aI0
aI0
aI0
aa(lp549
I0
aI0
aI0
aI0
aI0
aI0
aI0
aI0
aI0
aI0
aI0
aI0
aa(lp550
I0
aI0
aI0
aI0
aI0
aI0
aI0
aI0
aI0
aI0
aI0
aI0
aaa(lp551
(lp552
I0
aI0
aI0
aI0
aI0
aI0
aI0
aI0
aI0
aI0
aI0
aI0
aa(lp553
I0
aI0
aI0
aI0
aI0
aI0
aI0
aI0
aI0
aI0
aI0
aI0
aa(lp554
I0
aI0
aI0
aI0
aI0
aI0
aI0
aI0
aI0
aI0
aI0
aI0
aa(lp555
I0
aI0
aI0
aI0
aI0
aI0
aI0
aI0
aI0
aI0
aI0
aI0
aaaa(lp556
(lp557
I0
aI0
aI0
aI0
aI0
aI0
aI0
aI0
aI0
aI0
aI0
aI0
aa(lp558
I0
aI0
aI0
aI0
aI0
aI0
aI0
aI0
aI0
aI0
aI0
aI0
aa(lp559
I0
aI0
aI0
aI0
aI0
aI0
aI0
aI0
aI0
aI0
aI0
aI0
aa(lp560
I0
aI0
aI0
aI0
aI0
aI0
aI0
aI0
aI0
aI0
aI0
aI0
aaaa(lp561
(lp562
I0
aI0
aI0
aI0
aI0
aI0
aI0
aI0
aI0
a(lp563
(lp564
F0.037933033705485
aI38
aI94
aI2
aS'on'
p565
aa(lp566
F0.087226595380343
aI38
aI0
aI2
aS'off'
p567
aa(lp568
F0.38365761055684
aI38
aI87
aI2
aS'on'
p569
aa(lp570
F0.11726900651956
aI38
aI0
aI2
aS'off'
p571
aa(lp572
F0.75264637055989
aI38
aI87
aI2
aS'on'
p573
aa(lp574
F0.1094847042441
aI38
aI0
aI2
aS'off'
p575
aa(lp576
F0.58715027899598
aI33
aI94
aI2
aS'on'
p577
aa(lp578
F0.10294995894401
aI33
aI0
aI2
aS'off'
p579
aa(lp580
F0.32040544443407
aI33
aI78
aI2
aS'on'
p581
aa(lp582
F0.10949746475308
aI33
aI0
aI2
aS'off'
p583
aa(lp584
F0.70649300843797
aI33
aI82
aI2
aS'on'
p585
aa(lp586
F0.13363876101175
aI33
aI0
aI2
aS'off'
p587
aa(lp588
F0.58745186300621
aI31
aI96
aI2
aS'on'
p589
aa(lp590
F0.12598569523834
aI31
aI0
aI2
aS'off'
p591
aa(lp592
F0.35367005095213
aI31
aI73
aI2
aS'on'
p593
aa(lp594
F0.13333288553258
aI31
aI0
aI2
aS'off'
p595
aa(lp596
F0.72154025648706
aI31
aI101
aI2
aS'on'
p597
aa(lp598
F0.11801730998377
aI31
aI0
aI2
aS'off'
p599
aa(lp600
F0.5874708395022
aI30
aI99
aI2
aS'on'
p601
aa(lp602
F0.109998554708
aI30
aI0
aI2
aS'off'
p603
aa(lp604
F0.37774058024479
aI30
aI94
aI2
aS'on'
p605
aa(lp606
F0.11816569297662
aI30
aI0
aI2
aS'off'
p607
aa(lp608
F0.66634800715656
aI30
aI115
aI2
aS'on'
p609
aa(lp610
F0.13265182103714
aI30
aI0
aI2
aS'off'
p611
aa(lp612
F0.51927420563152
aI0
aI0
aI0
aS'timeAfterLastHit'
p613
aaa(lp614
(lp615
F0.36094682071416
aI27
aI92
aI2
aS'on'
p616
aa(lp617
F0.12551477476154
aI27
aI0
aI2
aS'off'
p618
aa(lp619
F0.40010729856658
aI31
aI101
aI2
aS'on'
p620
aa(lp621
F0.10993351773141
aI31
aI0
aI2
aS'off'
p622
aa(lp623
F0.36020473026656
aI32
aI106
aI2
aS'on'
p624
aa(lp625
F0.11756820849769
aI32
aI0
aI2
aS'off'
p626
aa(lp627
F0.35374222644896
aI34
aI101
aI2
aS'on'
p628
aa(lp629
F0.12627049274306
aI34
aI0
aI2
aS'off'
p630
aa(lp631
F0.38403478405235
aI36
aI101
aI2
aS'on'
p632
aa(lp633
F0.10181830345027
aI36
aI0
aI2
aS'off'
p634
aa(lp635
F0.41532753712818
aI36
aI106
aI2
aS'on'
p636
aa(lp637
F0.094002454708971
aI36
aI0
aI2
aS'off'
p638
aa(lp639
F0.078000954672461
aI38
aI106
aI2
aS'on'
p640
aa(lp641
F0.078813330641424
aI38
aI0
aI2
aS'off'
p642
aa(lp643
F0.22708602525381
aI36
aI89
aI2
aS'on'
p644
aa(lp645
F0.10238470492914
aI36
aI0
aI2
aS'off'
p646
aa(lp647
F0.08629922442924
aI34
aI104
aI2
aS'on'
p648
aa(lp649
F0.10188353246849
aI34
aI0
aI2
aS'off'
p650
aa(lp651
F0.211078834207
aI32
aI104
aI2
aS'on'
p652
aa(lp653
F0.10985454272304
aI32
aI0
aI2
aS'off'
p654
aa(lp655
F0.05512770160567
aI0
aI0
aI0
aS'timeAfterLastHit'
p656
aaaI0
aI0
a(lp657
(lp658
F0.006743741036189
aI65
aI92
aI3
ag397
aa(lp659
F0.088319921213042
aI65
aI0
aI3
ag399
aa(lp660
F0.61995168252724
aI64
aI101
aI3
ag401
aa(lp661
F0.10184602795016
aI64
aI0
aI3
ag403
aa(lp662
F0.64411785631637
aI63
aI94
aI3
ag405
aa(lp663
F0.078422270167721
aI63
aI0
aI3
ag407
aa(lp664
F6.4561659595747
aI65
aI73
aI3
ag409
aa(lp665
F0.094261012709467
aI65
aI0
aI3
ag411
aa(lp666
F0.58808334647074
aI64
aI96
aI3
ag413
aa(lp667
F0.10995014522268
aI64
aI0
aI3
ag415
aa(lp668
F0.6430360323302
aI63
aI85
aI3
ag417
aa(lp669
F0.086858833901715
aI63
aI0
aI3
ag419
aa(lp670
F2.4877425953691
aI58
aI122
aI3
ag421
aa(lp671
F0.12525091876705
aI58
aI0
aI3
ag423
aa(lp672
F3.8692496564436
aI0
aI0
aI0
ag425
aaaI0
aI0
aI0
aI0
aI0
aI0
aI0
aI0
aI0
aI0
aI0
aI0
aI0
aI0
aI0
aI0
aI0
aI0
aI0
aI0
aI0
aI0
aI0
aI0
aI0
aI0
aI0
aI0
aI0
aI0
aI0
aI0
aI0
aI0
aI0
aI0
aI0
aI0
aI0
aI0
aI0
aI0
aI0
aI0
aI0
aI0
aI0
aI0
aI0
aI0
aI0
aI0
aI0
aI0
aI0
aI0
aI0
aI0
aI0
aI0
aI0
aI0
aI0
aI0
aI0
aI0
aI0
aI0
aI0
aI0
aI0
aI0
aI0
aI0
aI0
aI0
aI0
aI0
aI0
aI0
aI0
aI0
aI0
aI0
aI0
aI0
aa(lp673
(dp674
a(dp675
a(dp676
a(dp677
a(dp678
a(dp679
a(dp680
a(dp681
a(dp682
a(dp683
g441
I41
sg442
I0
sa(dp684
g441
I42
sg442
I1
sa(dp685
a(dp686
a(dp687
g441
I45
sg442
I0
sa(dp688
a(dp689
a(dp690
a(dp691
g442
I0
sa(dp692
g442
I0
sa(dp693
a(dp694
g442
I0
sa(dp695
a(dp696
a(dp697
a(dp698
a(dp699
a(dp700
a(dp701
a(dp702
g442
I0
sa(dp703
a(dp704
a(dp705
a(dp706
a(dp707
g442
I1
sa(dp708
g442
I1
sa(dp709
g442
I0
sa(dp710
g442
I0
sa(dp711
g442
I1
sa(dp712
a(dp713
a(dp714
a(dp715
a(dp716
a(dp717
a(dp718
a(dp719
a(dp720
a(dp721
a(dp722
a(dp723
a(dp724
a(dp725
a(dp726
a(dp727
a(dp728
a(dp729
a(dp730
a(dp731
a(dp732
a(dp733
a(dp734
a(dp735
a(dp736
a(dp737
a(dp738
a(dp739
a(dp740
a(dp741
a(dp742
a(dp743
a(dp744
a(dp745
a(dp746
a(dp747
a(dp748
a(dp749
a(dp750
a(dp751
a(dp752
a(dp753
a(dp754
a(dp755
a(dp756
a(dp757
a(dp758
a(dp759
a(dp760
a(dp761
a(dp762
a(dp763
a(dp764
a(dp765
a(dp766
a(dp767
a(dp768
a(dp769
a(dp770
a(dp771
a(dp772
a(dp773
aa(lp774
I60
aI60
aI36
aI36
aa(lp775
(lp776
I0
aI2
aI3
aI5
aI7
aI8
aI10
aa(lp777
I0
aI2
aI3
aI5
aI7
aI8
aI10
aa(lp778
I0
aI2
aI3
aI5
aI7
aI8
aI10
aa(lp779
I0
aI1
aI2
aI3
aI4
aI5
aI6
aI7
aI8
aI9
aI10
aI11
aaa(lp780
(lp781
(lp782
I0
aI0
aI0
aI0
aI0
aI0
aI0
aI0
aI0
aI0
aI0
aI0
aa(lp783
I0
aI0
aI0
aI0
aI0
aI0
aI0
aI0
aI0
aI0
aI0
aI0
aa(lp784
I0
aI0
aI0
aI0
aI0
aI0
aI0
aI0
aI0
aI0
aI0
aI0
aa(lp785
I0
aI0
aI0
aI0
aI0
aI0
aI0
aI0
aI0
aI0
aI0
aI0
aaa(lp786
(lp787
I0
aI0
aI0
aI0
aI0
aI0
aI0
aI0
aI0
aI0
aI0
aI0
aa(lp788
I0
aI0
aI0
aI0
aI0
aI0
aI0
aI0
aI0
aI0
aI0
aI0
aa(lp789
I0
aI0
aI0
aI0
aI0
aI0
aI0
aI0
aI0
aI0
aI0
aI0
aa(lp790
I0
aI0
aI0
aI0
aI0
aI0
aI0
aI0
aI0
aI0
aI0
aI0
aaa(lp791
(lp792
I0
aI0
aI0
aI0
aI0
aI0
aI0
aI0
aI0
aI0
aI0
aI0
aa(lp793
I0
aI0
aI0
aI0
aI0
aI0
aI0
aI0
aI0
aI0
aI0
aI0
aa(lp794
I0
aI0
aI0
aI0
aI0
aI0
aI0
aI0
aI0
aI0
aI0
aI0
aa(lp795
I0
aI0
aI0
aI0
aI0
aI0
aI0
aI0
aI0
aI0
aI0
aI0
aaa(lp796
(lp797
I0
aI0
aI0
aI0
aI0
aI0
aI0
aI0
aI0
aI0
aI0
aI0
aa(lp798
I0
aI0
aI0
aI0
aI0
aI0
aI0
aI0
aI0
aI0
aI0
aI0
aa(lp799
I0
aI0
aI0
aI0
aI0
aI0
aI0
aI0
aI0
aI0
aI0
aI0
aa(lp800
I0
aI0
aI0
aI0
aI0
aI0
aI0
aI0
aI0
aI0
aI0
aI0
aaaa(lp801
(lp802
I0
aI0
aI0
aI0
aI0
aI0
aI0
aI0
aI0
aI0
aI0
aI0
aa(lp803
I0
aI0
aI0
aI0
aI0
aI0
aI0
aI0
aI0
aI0
aI0
aI0
aa(lp804
I0
aI0
aI0
aI0
aI0
aI0
aI0
aI0
aI0
aI0
aI0
aI0
aa(lp805
I0
aI0
aI0
aI0
aI0
aI0
aI0
aI0
aI0
aI0
aI0
aI0
aaaaI0
aI0
aI0
aI0
aI0
aI0
aI0
aI0
aI0
aI0
aI0
aI0
aI0
aI0
aI0
aI0
aI0
aI0
aI0
aI0
aI0
aI0
aI0
aI0
aI0
aI0
aI0
aI0
a.