(lp0
I0
a(lp1
(lp2
I0
aI0
aI0
aI0
aI0
aI0
aI0
aI0
aI0
a(lp3
(lp4
F0.019494670629683
aI40
aI101
aI3
aS'on'
p5
aa(lp6
F0.039334114218036
aI40
aI0
aI3
aS'off'
p7
aa(lp8
F0.65029636661893
aI40
aI108
aI3
aS'on'
p9
aa(lp10
F0.11791444448681
aI40
aI0
aI3
aS'off'
p11
aa(lp12
F3.1729604040465
aI0
aI0
aI0
aS'timeAfterLastHit'
p13
aaa(lp14
(lp15
F0.0014172911642163
aI41
aI70
aI3
aS'on'
p16
aa(lp17
F0.039295827898059
aI41
aI0
aI3
aS'off'
p18
aa(lp19
F0.62797932978447
aI41
aI106
aI3
aS'on'
p20
aa(lp21
F0.093541213712342
aI41
aI0
aI3
aS'off'
p22
aa(lp23
F3.2377663374409
aI0
aI0
aI0
aS'timeAfterLastHit'
p24
aaaI0
aI0
aI0
aI0
aI0
aI0
a(lp25
(lp26
F0.014929455518541
aI36
aI104
aI3
aS'on'
p27
aa(lp28
F0.10663602753993
aI36
aI0
aI3
aS'off'
p29
aa(lp30
F0.59515249826381
aI36
aI99
aI3
aS'on'
p31
aa(lp32
F0.14879910306536
aI36
aI0
aI3
aS'off'
p33
aa(lp34
F0.094411588685944
aI38
aI92
aI3
aS'on'
p35
aa(lp36
F0.14955154804284
aI38
aI0
aI3
aS'off'
p37
aa(lp38
F0.33758468143969
aI36
aI108
aI3
aS'on'
p39
aa(lp40
F0.16466974759169
aI36
aI0
aI3
aS'off'
p41
aa(lp42
F0.88720285555974
aI36
aI104
aI3
aS'on'
p43
aa(lp44
F0.14134853428732
aI36
aI0
aI3
aS'off'
p45
aa(lp46
F0.32167801441301
aI38
aI115
aI3
aS'on'
p47
aa(lp48
F0.40053796356369
aI38
aI0
aI3
aS'off'
p49
aa(lp50
F0.63749798202844
aI0
aI0
aI0
aS'timeAfterLastHit'
p51
aaa(lp52
(lp53
F0.040832704306013
aI52
aI70
aI3
aS'on'
p54
aa(lp55
F0.55165683079395
aI52
aI0
aI3
aS'off'
p56
aa(lp57
F0.16511561357765
aI53
aI72
aI3
aS'on'
p58
aa(lp59
F0.52563537683636
aI53
aI0
aI3
aS'off'
p60
aa(lp61
F0.20384569342605
aI54
aI62
aI3
aS'on'
p62
aa(lp63
F0.3689326690037
aI54
aI0
aI3
aS'off'
p64
aa(lp65
F0.094118985194655
aI55
aI5
aI3
aS'on'
p66
aa(lp67
F0.87868994331438
aI55
aI0
aI3
aS'off'
p68
aa(lp69
F0.15755391130369
aI55
aI92
aI3
aS'on'
p70
aa(lp71
F1.0036182722433
aI55
aI0
aI3
aS'off'
p72
aa(lp73
F0.010000000000218
aI0
aI0
aI0
aS'timeAfterLastHit'
p74
aaaI0
aI0
aI0
aI0
aI0
aI0
a(lp75
(lp76
F0.045128595829055
aI36
aI43
aI2
aS'on'
p77
aa(lp78
F0.049601881188892
aI36
aI0
aI2
aS'off'
p79
aa(lp80
F0.60323926802209
aI36
aI54
aI2
aS'on'
p81
aa(lp82
F0.17234636486364
aI36
aI0
aI2
aS'off'
p83
aa(lp84
F0.61959497053465
aI41
aI66
aI2
aS'on'
p85
aa(lp86
F0.13337153602515
aI41
aI0
aI2
aS'off'
p87
aa(lp88
F0.65881306336587
aI46
aI62
aI2
aS'on'
p89
aa(lp90
F0.14923371605255
aI46
aI0
aI2
aS'off'
p91
aa(lp92
F0.57966851472452
aI51
aI80
aI2
aS'on'
p93
aa(lp94
F0.1815074105906
aI51
aI0
aI2
aS'off'
p95
aa(lp96
F0.80749467880298
aI0
aI0
aI0
aS'timeAfterLastHit'
p97
aaaI0
aI0
aI0
aI0
aI0
aI0
aI0
a(lp98
(lp99
F0.027724999189388
aI36
aI73
aI3
aS'on'
p100
aa(lp101
F0.02673971780672
aI36
aI0
aI3
aS'off'
p102
aa(lp103
F0.67571223986221
aI36
aI70
aI3
aS'on'
p104
aa(lp105
F0.10934476324121
aI36
aI0
aI3
aS'off'
p106
aa(lp107
F0.14917119455441
aI38
aI72
aI3
aS'on'
p108
aa(lp109
F0.10993241822376
aI38
aI0
aI3
aS'off'
p110
aa(lp111
F0.41398175966236
aI36
aI58
aI3
aS'on'
p112
aa(lp113
F0.11022910921491
aI36
aI0
aI3
aS'off'
p114
aa(lp115
F0.86238322779894
aI36
aI87
aI3
aS'on'
p116
aa(lp117
F0.093733209206562
aI36
aI0
aI3
aS'off'
p118
aa(lp119
F0.37692597826674
aI38
aI101
aI3
aS'on'
p120
aa(lp121
F0.12531038476544
aI38
aI0
aI3
aS'off'
p122
aa(lp123
F0.91881099820733
aI0
aI0
aI0
aS'timeAfterLastHit'
p124
aaa(lp125
(lp126
F0.020907419919979
aI41
aI80
aI3
aS'on'
p127
aa(lp128
F0.050942847755778
aI41
aI0
aI3
aS'off'
p129
aa(lp130
F0.73698330953619
aI41
aI96
aI3
aS'on'
p131
aa(lp132
F0.10196409296128
aI41
aI0
aI3
aS'off'
p133
aa(lp134
F0.62645135033023
aI41
aI85
aI3
aS'on'
p135
aa(lp136
F0.078502802160472
aI41
aI0
aI3
aS'off'
p137
aa(lp138
F1.3151818408045
aI40
aI89
aI3
aS'on'
p139
aa(lp140
F0.08578667894335
aI40
aI0
aI3
aS'off'
p141
aa(lp142
F0.98327965758824
aI0
aI0
aI0
aS'timeAfterLastHit'
p143
aaaI0
aI0
aI0
aI0
aI0
aI0
aI0
aI0
aI0
aI0
aI0
aI0
aI0
aI0
aI0
aI0
aI0
aI0
aI0
aI0
aI0
aI0
aI0
aI0
aI0
aI0
aI0
aI0
aI0
aI0
aI0
aI0
aI0
aI0
aI0
aI0
aI0
aI0
aI0
aI0
aI0
aI0
aI0
aI0
aI0
aI0
aI0
aI0
aI0
aI0
aI0
aI0
aI0
aI0
aI0
aI0
aI0
aI0
aI0
aI0
aI0
aI0
aI0
aI0
aI0
aa(lp144
(dp145
a(dp146
S'playing'
p147
I0
sa(dp148
a(dp149
a(dp150
g147
I0
sa(dp151
a(dp152
a(dp153
a(dp154
a(dp155
S'button'
p156
I41
sg147
I0
sa(dp157
g156
I42
sg147
I0
sa(dp158
g147
I0
sa(dp159
g147
I0
sa(dp160
a(dp161
a(dp162
a(dp163
a(dp164
g156
I51
sg147
I0
sa(dp165
g156
I52
sg147
I0
sa(dp166
a(dp167
a(dp168
a(dp169
a(dp170
a(dp171
a(dp172
g156
I61
sg147
I0
sa(dp173
g147
I0
sa(dp174
g147
I0
sa(dp175
a(dp176
a(dp177
a(dp178
a(dp179
a(dp180
g156
I71
sg147
I01
sa(dp181
g156
I72
sg147
I01
sa(dp182
g147
I0
sa(dp183
a(dp184
a(dp185
a(dp186
a(dp187
a(dp188
a(dp189
g147
I0
sa(dp190
g147
I0
sa(dp191
a(dp192
g147
I0
sa(dp193
a(dp194
a(dp195
a(dp196
a(dp197
a(dp198
a(dp199
a(dp200
a(dp201
a(dp202
a(dp203
a(dp204
a(dp205
a(dp206
a(dp207
a(dp208
a(dp209
a(dp210
a(dp211
a(dp212
a(dp213
a(dp214
a(dp215
a(dp216
a(dp217
a(dp218
a(dp219
a(dp220
a(dp221
a(dp222
a(dp223
a(dp224
a(dp225
a(dp226
a(dp227
a(dp228
a(dp229
a(dp230
a(dp231
a(dp232
a(dp233
a(dp234
a(dp235
a(dp236
a(dp237
a(dp238
a(dp239
a(dp240
a(dp241
a(dp242
a(dp243
a(dp244
a(dp245
a(dp246
aa(lp247
I60
aI60
aI36
aI36
aa(lp248
(lp249
I0
aI2
aI3
aI5
aI7
aI8
aI10
aa(lp250
I0
aI2
aI3
aI5
aI7
aI8
aI10
aa(lp251
I0
aI2
aI3
aI5
aI7
aI8
aI10
aa(lp252
I0
aI1
aI2
aI3
aI4
aI5
aI6
aI7
aI8
aI9
aI10
aI11
aaa(lp253
(lp254
(lp255
I0
aI0
aI0
aI0
aI0
aI0
aI0
aI0
aI0
aI0
aI0
aI0
aa(lp256
I0
aI0
aI0
aI0
aI0
aI0
aI0
aI0
aI0
aI0
aI0
aI0
aa(lp257
I0
aI0
aI0
aI0
aI0
aI0
aI0
aI0
aI0
aI0
aI0
aI0
aa(lp258
I0
aI0
aI0
aI0
aI0
aI0
aI0
aI0
aI0
aI0
aI0
aI0
aaa(lp259
(lp260
I0
aI0
aI0
aI0
aI0
aI0
aI0
aI0
aI0
aI0
aI0
aI0
aa(lp261
I0
aI0
aI0
aI0
aI0
aI0
aI0
aI0
aI0
aI0
aI0
aI0
aa(lp262
I0
aI0
aI0
aI0
aI0
aI0
aI0
aI0
aI0
aI0
aI0
aI0
aa(lp263
I0
aI0
aI0
aI0
aI0
aI0
aI0
aI0
aI0
aI0
aI0
aI0
aaa(lp264
(lp265
I0
aI0
aI0
aI0
aI0
aI0
aI0
aI0
aI0
aI0
aI0
aI0
aa(lp266
I0
aI0
aI0
aI0
aI0
aI0
aI0
aI0
aI0
aI0
aI0
aI0
aa(lp267
I0
aI0
aI0
aI0
aI0
aI0
aI0
aI0
aI0
aI0
aI0
aI0
aa(lp268
I0
aI0
aI0
aI0
aI0
aI0
aI0
aI0
aI0
aI0
aI0
aI0
aaa(lp269
(lp270
I0
aI0
aI0
aI0
aI0
aI0
aI0
aI0
aI0
aI0
aI0
aI0
aa(lp271
I0
aI0
aI0
aI0
aI0
aI0
aI0
aI0
aI0
aI0
aI0
aI0
aa(lp272
I0
aI0
aI0
aI0
aI0
aI0
aI0
aI0
aI0
aI0
aI0
aI0
aa(lp273
I0
aI0
aI0
aI0
aI0
aI0
aI0
aI0
aI0
aI0
aI0
aI0
aaaa(lp274
(lp275
I0
aI0
aI0
aI0
aI0
aI0
aI0
aI0
aI0
aI0
aI0
aI0
aa(lp276
I0
aI0
aI0
aI0
aI0
aI0
aI0
aI0
aI0
aI0
aI0
aI0
aa(lp277
I0
aI0
aI0
aI0
aI0
aI0
aI0
aI0
aI0
aI0
aI0
aI0
aa(lp278
I0
aI0
aI0
aI0
aI0
aI0
aI0
aI0
aI0
aI0
aI0
aI0
aaaa(lp279
(lp280
I0
aI0
aI0
aI0
aI0
aI0
aI0
aI0
aI0
a(lp281
(lp282
F0.0
aI60
aI62
aI1
aS'on'
p283
aa(lp284
F0.15427548821344
aI60
aI0
aI1
aS'off'
p285
aa(lp286
F0.51239117845322
aI70
aI15
aI1
aS'on'
p287
aa(lp288
F0.11168438208506
aI70
aI0
aI1
aS'off'
p289
aa(lp290
F0.22164895124827
aI72
aI42
aI1
aS'on'
p291
aa(lp292
F0.099718848756083
aI72
aI0
aI1
aS'off'
p293
aa(lp294
F0.23361448457725
aI70
aI13
aI1
aS'on'
p295
aa(lp296
F0.055303953092334
aI70
aI0
aI1
aS'off'
p297
aa(lp298
F0.278029380241
aI68
aI30
aI1
aS'on'
p299
aa(lp300
F0.055764529254247
aI68
aI0
aI1
aS'off'
p301
aa(lp302
F0.27756880407909
aI70
aI17
aI1
aS'on'
p303
aa(lp304
F0.055437413351683
aI70
aI0
aI1
aS'off'
p305
aa(lp306
F0.61122925331498
aI68
aI37
aI1
aS'on'
p307
aa(lp308
F0.099929479421462
aI68
aI0
aI1
aS'off'
p309
aa(lp310
F0.5667371872452
aI67
aI63
aI1
aS'on'
p311
aa(lp312
F0.11091619427816
aI67
aI0
aI1
aS'off'
p313
aa(lp314
F0.55575047238851
aI63
aI27
aI1
aS'on'
p315
aa(lp316
F0.056291614316706
aI63
aI0
aI1
aS'off'
p317
aa(lp318
F0.61037505234996
aI65
aI18
aI1
aS'on'
p319
aa(lp320
F0.11083116601094
aI65
aI0
aI1
aS'off'
p321
aa(lp322
F0.55583550065573
aI67
aI37
aI1
aS'on'
p323
aa(lp324
F0.055698167129322
aI67
aI0
aI1
aS'off'
p325
aa(lp326
F0.61096849953735
aI62
aI65
aI1
aS'on'
p327
aa(lp328
F0.1218651195029
aI62
aI0
aI1
aS'off'
p329
aa(lp330
F0.54480154716377
aI63
aI32
aI1
aS'on'
p331
aa(lp332
F0.11098680654004
aI63
aI0
aI1
aS'off'
p333
aa(lp334
F0.55567986012663
aI58
aI56
aI1
aS'on'
p335
aa(lp336
F0.14546234193767
aI58
aI0
aI1
aS'off'
p337
aa(lp338
F0.52120432472899
aI0
aI0
aI0
aS'timeAfterLastHit'
p339
aaaI0
aI0
aI0
aI0
aI0
aI0
aI0
a(lp340
(lp341
F0.052229667840038
aI24
aI66
aI2
aS'on'
p342
aa(lp343
F0.16725553435845
aI24
aI0
aI2
aS'off'
p344
aa(lp345
F0.5211804675273
aI26
aI70
aI2
aS'on'
p346
aa(lp347
F0.15578072168182
aI26
aI0
aI2
aS'off'
p348
aa(lp349
F0.51148019129664
aI27
aI49
aI2
aS'on'
p350
aa(lp351
F0.15526279632365
aI27
aI0
aI2
aS'off'
p352
aa(lp353
F0.50091458461236
aI29
aI73
aI2
aS'on'
p354
aa(lp355
F0.20027909063276
aI29
aI0
aI2
aS'off'
p356
aa(lp357
F0.46798512484065
aI31
aI67
aI2
aS'on'
p358
aa(lp359
F0.16680809363015
aI31
aI0
aI2
aS'off'
p360
aa(lp361
F0.45518333769655
aI32
aI37
aI2
aS'on'
p362
aa(lp363
F0.088648073506533
aI32
aI0
aI2
aS'off'
p364
aa(lp365
F0.55699231605308
aI0
aI0
aI0
aS'timeAfterLastHit'
p366
aaaI0
aI0
aI0
aI0
aI0
aI0
aI0
a(lp367
(lp368
F0.0011483490466162
aI60
aI66
aI1
aS'on'
p369
aa(lp370
F0.11975105676652
aI60
aI0
aI1
aS'off'
p371
aa(lp372
F0.566812787868
aI63
aI63
aI1
aS'on'
p373
aa(lp374
F0.16117614559903
aI63
aI0
aI1
aS'off'
p375
aa(lp376
F0.60969223655229
aI67
aI50
aI1
aS'on'
p377
aa(lp378
F0.057485834928457
aI67
aI0
aI1
aS'off'
p379
aa(lp380
F0.46032758200795
aI65
aI68
aI1
aS'on'
p381
aa(lp382
F0.10386763282008
aI65
aI0
aI1
aS'off'
p383
aa(lp384
F5.9179398994113
aI60
aI63
aI1
aS'on'
p385
aa(lp386
F0.17304154642807
aI60
aI0
aI1
aS'off'
p387
aa(lp388
F0.53127411806418
aI63
aI22
aI1
aS'on'
p389
aa(lp390
F0.057028544463492
aI63
aI0
aI1
aS'off'
p391
aa(lp392
F0.71401388710592
aI67
aI8
aI1
aS'on'
p393
aa(lp394
F0.058330223913799
aI67
aI0
aI1
aS'off'
p395
aa(lp396
F0.45984310760878
aI65
aI65
aI1
aS'on'
p397
aa(lp398
F0.12739166214897
aI65
aI0
aI1
aS'off'
p399
aa(lp400
F2.8565931925991
aI63
aI58
aI1
aS'on'
p401
aa(lp402
F0.15003750922597
aI63
aI0
aI1
aS'off'
p403
aa(lp404
F1.3925118175182
aI62
aI72
aI1
aS'on'
p405
aa(lp406
F0.10378254400007
aI62
aI0
aI1
aS'off'
p407
aa(lp408
F1.3779503219232
aI0
aI0
aI0
aS'timeAfterLastHit'
p409
aaaI0
aI0
aI0
aI0
aI0
aI0
aI0
a(lp410
(lp411
F0.0018557647754278
aI60
aI54
aI1
aS'on'
p412
aa(lp413
F0.14819820542175
aI60
aI0
aI1
aS'off'
p414
aa(lp415
F0.56496236206158
aI63
aI51
aI1
aS'on'
p416
aa(lp417
F0.057561929242183
aI63
aI0
aI1
aS'off'
p418
aa(lp419
F0.70016202407282
aI67
aI9
aI1
aS'on'
p420
aa(lp421
F0.057631425235741
aI67
aI0
aI1
aS'off'
p422
aa(lp423
F0.47326094388063
aI65
aI49
aI1
aS'on'
p424
aa(lp425
F0.057959119052384
aI65
aI0
aI1
aS'off'
p426
aa(lp427
F5.998500265212
aI60
aI46
aI1
aS'on'
p428
aa(lp429
F0.057931994582077
aI60
aI0
aI1
aS'off'
p430
aa(lp431
F0.64546275054067
aI63
aI23
aI1
aS'on'
p432
aa(lp433
F0.057536201078619
aI63
aI0
aI1
aS'off'
p434
aa(lp435
F0.74876473596692
aI67
aI15
aI1
aS'on'
p436
aa(lp437
F0.057841214821337
aI67
aI0
aI1
aS'off'
p438
aa(lp439
F0.54188993445882
aI65
aI56
aI1
aS'on'
p440
aa(lp441
F0.05807373953985
aI65
aI0
aI1
aS'off'
p442
aa(lp443
F2.7250662160059
aI63
aI47
aI1
aS'on'
p444
aa(lp445
F0.16044123895654
aI63
aI0
aI1
aS'off'
p446
aa(lp447
F1.405081833502
aI62
aI59
aI1
aS'on'
p448
aa(lp449
F0.18391567076469
aI62
aI0
aI1
aS'off'
p450
aa(lp451
F1.2979024308281
aI0
aI0
aI0
aS'timeAfterLastHit'
p452
aaa(lp453
(lp454
F0.047550249099686
aI60
aI7
aI1
aS'on'
p455
aa(lp456
F0.12753026493897
aI60
aI0
aI1
aS'off'
p457
aa(lp458
F0.56436942722166
aI63
aI22
aI1
aS'on'
p459
aa(lp460
F0.14894994703104
aI63
aI0
aI1
aS'off'
p461
aa(lp462
F0.56344752338941
aI67
aI16
aI1
aS'on'
p463
aa(lp464
F0.16072893100704
aI67
aI0
aI1
aS'off'
p465
aa(lp466
F0.33458547570513
aI65
aI51
aI1
aS'on'
p467
aa(lp468
F0.16138955809379
aI65
aI0
aI1
aS'off'
p469
aa(lp470
F5.8372587706945
aI60
aI42
aI1
aS'on'
p471
aa(lp472
F0.057182243921488
aI60
aI0
aI1
aS'off'
p473
aa(lp474
F0.71077732511117
aI63
aI48
aI1
aS'on'
p475
aa(lp476
F0.14916290363362
aI63
aI0
aI1
aS'off'
p477
aa(lp478
F0.5996471726603
aI67
aI7
aI1
aS'on'
p479
aa(lp480
F0.057245857366979
aI67
aI0
aI1
aS'off'
p481
aa(lp482
F0.4853727730324
aI65
aI43
aI1
aS'on'
p483
aa(lp484
F0.13843949013017
aI65
aI0
aI1
aS'off'
p485
aa(lp486
F2.8470103723168
aI63
aI31
aI1
aS'on'
p487
aa(lp488
F0.19624589859154
aI63
aI0
aI1
aS'off'
p489
aa(lp490
F1.3340692371596
aI62
aI13
aI1
aS'on'
p491
aa(lp492
F0.10414556834235
aI62
aI0
aI1
aS'off'
p493
aa(lp494
F1.3748910105523
aI0
aI0
aI0
aS'timeAfterLastHit'
p495
aaaI0
aI0
aI0
aI0
aI0
aI0
a(lp496
(lp497
F0.0
aI36
aI73
aI2
aS'on'
p498
aa(lp499
F0.16209079920759
aI36
aI0
aI2
aS'off'
p500
aa(lp501
F0.33790920079241
aI39
aI59
aI2
aS'on'
p502
aa(lp503
F0.13853119929422
aI39
aI0
aI2
aS'off'
p504
aa(lp505
F0.36146880070578
aI48
aI57
aI2
aS'on'
p506
aa(lp507
F0.11458383574262
aI48
aI0
aI2
aS'off'
p508
aa(lp509
F0.63541616425738
aI36
aI92
aI2
aS'on'
p510
aa(lp511
F0.17258552453217
aI36
aI0
aI2
aS'off'
p512
aa(lp513
F0.57741447546783
aI46
aI49
aI2
aS'on'
p514
aa(lp515
F0.057899207801711
aI46
aI0
aI2
aS'off'
p516
aa(lp517
F0.44210079219829
aI48
aI70
aI2
aS'on'
p518
aa(lp519
F0.13879452204748
aI48
aI0
aI2
aS'off'
p520
aa(lp521
F0.86120547795252
aI0
aI0
aI0
aS'timeAfterLastHit'
p522
aaa(lp523
(lp524
F0.0
aI46
aI31
aI2
aS'on'
p525
aa(lp526
F0.057994099399821
aI46
aI0
aI2
aS'off'
p527
aa(lp528
F0.69200590060018
aI44
aI36
aI2
aS'on'
p529
aa(lp530
F0.057959810598504
aI44
aI0
aI2
aS'off'
p531
aa(lp532
F0.6920401894015
aI43
aI19
aI2
aS'on'
p533
aa(lp534
F0.057541301782976
aI43
aI0
aI2
aS'off'
p535
aa(lp536
F0.69245869821702
aI41
aI54
aI2
aS'on'
p537
aa(lp538
F0.068885697392147
aI41
aI0
aI2
aS'off'
p539
aa(lp540
F0.68111430260785
aI39
aI78
aI2
aS'on'
p541
aa(lp542
F0.12736741398282
aI39
aI0
aI2
aS'off'
p543
aa(lp544
F0.37263258601718
aI38
aI66
aI2
aS'on'
p545
aa(lp546
F0.12749574646716
aI38
aI0
aI2
aS'off'
p547
aa(lp548
F0.37250425353284
aI0
aI0
aI0
aS'timeAfterLastHit'
p549
aaa(lp550
(lp551
F0.0
aI41
aI73
aI3
aS'on'
p552
aa(lp553
F0.34546006914763
aI41
aI0
aI3
aS'off'
p554
aa(lp555
F0.40453993085237
aI40
aI71
aI3
aS'on'
p556
aa(lp557
F0.17322590737331
aI40
aI0
aI3
aS'off'
p558
aa(lp559
F0.076774092626692
aI36
aI56
aI3
aS'on'
p560
aa(lp561
F0.13846759245553
aI36
aI0
aI3
aS'off'
p562
aa(lp563
F0.36153240754447
aI40
aI75
aI3
aS'on'
p564
aa(lp565
F0.18422577199681
aI40
aI0
aI3
aS'off'
p566
aa(lp567
F0.31577422800319
aI0
aI0
aI0
aS'timeAfterLastHit'
p568
aaa(lp569
(lp570
F0.0
aI41
aI89
aI3
aS'on'
p571
aa(lp572
F0.2672438899715
aI41
aI0
aI3
aS'off'
p573
aa(lp574
F0.4827561100285
aI40
aI69
aI3
aS'on'
p575
aa(lp576
F0.14960580597233
aI40
aI0
aI3
aS'off'
p577
aa(lp578
F0.10039419402767
aI36
aI73
aI3
aS'on'
p579
aa(lp580
F0.13805738880228
aI36
aI0
aI3
aS'off'
p581
aa(lp582
F0.36194261119772
aI40
aI72
aI3
aS'on'
p583
aa(lp584
F0.16156584953103
aI40
aI0
aI3
aS'off'
p585
aa(lp586
F0.33843415046897
aI41
aI101
aI3
aS'on'
p587
aa(lp588
F0.10423174513608
aI41
aI0
aI3
aS'off'
p589
aa(lp590
F0.14576825486392
aI41
aI85
aI3
aS'on'
p591
aa(lp592
F0.15037308534829
aI41
aI0
aI3
aS'off'
p593
aa(lp594
F0.34962691465171
aI40
aI80
aI3
aS'on'
p595
aa(lp596
F0.15043154523278
aI40
aI0
aI3
aS'off'
p597
aa(lp598
F0.099568454767223
aI36
aI96
aI3
aS'on'
p599
aa(lp600
F0.11502134005627
aI36
aI0
aI3
aS'off'
p601
aa(lp602
F0.38497865994373
aI40
aI89
aI3
aS'on'
p603
aa(lp604
F0.16109573682945
aI40
aI0
aI3
aS'off'
p605
aa(lp606
F0.33890426317055
aI0
aI0
aI0
aS'timeAfterLastHit'
p607
aaa(lp608
(lp609
F0.0
aI41
aI94
aI3
aS'on'
p610
aa(lp611
F0.18511987082456
aI41
aI0
aI3
aS'off'
p612
aa(lp613
F0.56488012917544
aI40
aI65
aI3
aS'on'
p614
aa(lp615
F0.13714021787735
aI40
aI0
aI3
aS'off'
p616
aa(lp617
F0.11285978212265
aI36
aI73
aI3
aS'on'
p618
aa(lp619
F0.12599255176031
aI36
aI0
aI3
aS'off'
p620
aa(lp621
F0.37400744823969
aI40
aI96
aI3
aS'on'
p622
aa(lp623
F0.18442611779119
aI40
aI0
aI3
aS'off'
p624
aa(lp625
F0.31557388220881
aI45
aI73
aI3
aS'on'
p626
aa(lp627
F0.13820869647941
aI45
aI0
aI3
aS'off'
p628
aa(lp629
F0.61179130352059
aI45
aI96
aI3
aS'on'
p630
aa(lp631
F0.1153076115736
aI45
aI0
aI3
aS'off'
p632
aa(lp633
F0.6346923884264
aI45
aI78
aI3
aS'on'
p634
aa(lp635
F0.11532531427679
aI45
aI0
aI3
aS'off'
p636
aa(lp637
F0.38467468572321
aI0
aI0
aI0
aS'timeAfterLastHit'
p638
aaaI0
aI0
aI0
aI0
aI0
aI0
aI0
aI0
aI0
aI0
aI0
aI0
aI0
aI0
aI0
aI0
aI0
aI0
aI0
aI0
aI0
aI0
aI0
aI0
aI0
aI0
aI0
aI0
aI0
aI0
aI0
aI0
aI0
aI0
aI0
aI0
aI0
aI0
aI0
aI0
aI0
aI0
aI0
aI0
aI0
aI0
aI0
aI0
aI0
aI0
aI0
aI0
aI0
aI0
aa(lp639
(dp640
a(dp641
a(dp642
a(dp643
a(dp644
a(dp645
a(dp646
a(dp647
a(dp648
a(dp649
S'button'
p650
I41
sS'playing'
p651
I01
sa(dp652
a(dp653
a(dp654
a(dp655
a(dp656
a(dp657
a(dp658
a(dp659
g650
I51
sg651
I01
sa(dp660
a(dp661
a(dp662
a(dp663
a(dp664
a(dp665
a(dp666
a(dp667
g650
I61
sg651
I0
sa(dp668
a(dp669
a(dp670
a(dp671
a(dp672
a(dp673
a(dp674
a(dp675
g650
I71
sg651
I0
sa(dp676
g650
I72
sg651
I0
sa(dp677
a(dp678
a(dp679
a(dp680
a(dp681
a(dp682
a(dp683
g650
I81
sg651
I0
sa(dp684
g650
I82
sg651
I0
sa(dp685
g650
I83
sg651
I1
sa(dp686
g650
I84
sg651
I0
sa(dp687
g650
I85
sg651
I0
sa(dp688
a(dp689
a(dp690
a(dp691
a(dp692
a(dp693
a(dp694
a(dp695
a(dp696
a(dp697
a(dp698
a(dp699
a(dp700
a(dp701
a(dp702
a(dp703
a(dp704
a(dp705
a(dp706
a(dp707
a(dp708
a(dp709
a(dp710
a(dp711
a(dp712
a(dp713
a(dp714
a(dp715
a(dp716
a(dp717
a(dp718
a(dp719
a(dp720
a(dp721
a(dp722
a(dp723
a(dp724
a(dp725
a(dp726
a(dp727
a(dp728
a(dp729
a(dp730
a(dp731
a(dp732
a(dp733
a(dp734
a(dp735
a(dp736
a(dp737
a(dp738
a(dp739
a(dp740
a(dp741
aa(lp742
I60
aI60
aI36
aI36
aa(lp743
(lp744
I0
aI2
aI3
aI5
aI7
aI8
aI10
aa(lp745
I0
aI2
aI3
aI5
aI7
aI8
aI10
aa(lp746
I0
aI2
aI3
aI5
aI7
aI8
aI10
aa(lp747
I0
aI1
aI2
aI3
aI4
aI5
aI6
aI7
aI8
aI9
aI10
aI11
aaa(lp748
(lp749
(lp750
I0
aI0
aI0
aI0
aI0
aI0
aI0
aI0
aI0
aI0
aI0
aI0
aa(lp751
I0
aI0
aI0
aI0
aI0
aI0
aI0
aI0
aI0
aI0
aI0
aI0
aa(lp752
I0
aI0
aI0
aI0
aI0
aI0
aI0
aI0
aI0
aI0
aI0
aI0
aa(lp753
I0
aI0
aI0
aI0
aI0
aI0
aI0
aI0
aI0
aI0
aI0
aI0
aaa(lp754
(lp755
I0
aI0
aI0
aI0
aI0
aI0
aI0
aI0
aI0
aI0
aI0
aI0
aa(lp756
I0
aI0
aI0
aI0
aI0
aI0
aI0
aI0
aI0
aI0
aI0
aI0
aa(lp757
I0
aI0
aI0
aI0
aI0
aI0
aI0
aI0
aI0
aI0
aI0
aI0
aa(lp758
I0
aI0
aI0
aI0
aI0
aI0
aI0
aI0
aI0
aI0
aI0
aI0
aaa(lp759
(lp760
I0
aI0
aI0
aI0
aI0
aI0
aI0
aI0
aI0
aI0
aI0
aI0
aa(lp761
I0
aI0
aI0
aI0
aI0
aI0
aI0
aI0
aI0
aI0
aI0
aI0
aa(lp762
I0
aI0
aI0
aI0
aI0
aI0
aI0
aI0
aI0
aI0
aI0
aI0
aa(lp763
I0
aI0
aI0
aI0
aI0
aI0
aI0
aI0
aI0
aI0
aI0
aI0
aaa(lp764
(lp765
I0
aI0
aI0
aI0
aI0
aI0
aI0
aI0
aI0
aI0
aI0
aI0
aa(lp766
I0
aI0
aI0
aI0
aI0
aI0
aI0
aI0
aI0
aI0
aI0
aI0
aa(lp767
I0
aI0
aI0
aI0
aI0
aI0
aI0
aI0
aI0
aI0
aI0
aI0
aa(lp768
I0
aI0
aI0
aI0
aI0
aI0
aI0
aI0
aI0
aI0
aI0
aI0
aaaa(lp769
(lp770
I0
aI0
aI0
aI0
aI0
aI0
aI0
aI0
aI0
aI0
aI0
aI0
aa(lp771
I0
aI0
aI0
aI0
aI0
aI0
aI0
aI0
aI0
aI0
aI0
aI0
aa(lp772
I0
aI0
aI0
aI0
aI0
aI0
aI0
aI0
aI0
aI0
aI0
aI0
aa(lp773
I0
aI0
aI0
aI0
aI0
aI0
aI0
aI0
aI0
aI0
aI0
aI0
aaaa(lp774
(lp775
I0
aI0
aI0
aI0
aI0
aI0
aI0
aI0
aI0
a(lp776
(lp777
F0.0
aI60
aI62
aI1
ag283
aa(lp778
F0.15427548821344
aI60
aI0
aI1
ag285
aa(lp779
F0.51239117845322
aI70
aI15
aI1
ag287
aa(lp780
F0.11168438208506
aI70
aI0
aI1
ag289
aa(lp781
F0.22164895124827
aI72
aI42
aI1
ag291
aa(lp782
F0.099718848756083
aI72
aI0
aI1
ag293
aa(lp783
F0.23361448457725
aI70
aI13
aI1
ag295
aa(lp784
F0.055303953092334
aI70
aI0
aI1
ag297
aa(lp785
F0.278029380241
aI68
aI30
aI1
ag299
aa(lp786
F0.055764529254247
aI68
aI0
aI1
ag301
aa(lp787
F0.27756880407909
aI70
aI17
aI1
ag303
aa(lp788
F0.055437413351683
aI70
aI0
aI1
ag305
aa(lp789
F0.61122925331498
aI68
aI37
aI1
ag307
aa(lp790
F0.099929479421462
aI68
aI0
aI1
ag309
aa(lp791
F0.5667371872452
aI67
aI63
aI1
ag311
aa(lp792
F0.11091619427816
aI67
aI0
aI1
ag313
aa(lp793
F0.55575047238851
aI63
aI27
aI1
ag315
aa(lp794
F0.056291614316706
aI63
aI0
aI1
ag317
aa(lp795
F0.61037505234996
aI65
aI18
aI1
ag319
aa(lp796
F0.11083116601094
aI65
aI0
aI1
ag321
aa(lp797
F0.55583550065573
aI67
aI37
aI1
ag323
aa(lp798
F0.055698167129322
aI67
aI0
aI1
ag325
aa(lp799
F0.61096849953735
aI62
aI65
aI1
ag327
aa(lp800
F0.1218651195029
aI62
aI0
aI1
ag329
aa(lp801
F0.54480154716377
aI63
aI32
aI1
ag331
aa(lp802
F0.11098680654004
aI63
aI0
aI1
ag333
aa(lp803
F0.55567986012663
aI58
aI56
aI1
ag335
aa(lp804
F0.14546234193767
aI58
aI0
aI1
ag337
aa(lp805
F0.52120432472899
aI0
aI0
aI0
ag339
aaaI0
aI0
aI0
aI0
aI0
aI0
aI0
a(lp806
(lp807
F0.052229667840038
aI24
aI66
aI2
ag342
aa(lp808
F0.16725553435845
aI24
aI0
aI2
ag344
aa(lp809
F0.5211804675273
aI26
aI70
aI2
ag346
aa(lp810
F0.15578072168182
aI26
aI0
aI2
ag348
aa(lp811
F0.51148019129664
aI27
aI49
aI2
ag350
aa(lp812
F0.15526279632365
aI27
aI0
aI2
ag352
aa(lp813
F0.50091458461236
aI29
aI73
aI2
ag354
aa(lp814
F0.20027909063276
aI29
aI0
aI2
ag356
aa(lp815
F0.46798512484065
aI31
aI67
aI2
ag358
aa(lp816
F0.16680809363015
aI31
aI0
aI2
ag360
aa(lp817
F0.45518333769655
aI32
aI37
aI2
ag362
aa(lp818
F0.088648073506533
aI32
aI0
aI2
ag364
aa(lp819
F0.55699231605308
aI0
aI0
aI0
ag366
aaa(lp820
(lp821
F0.33333333333333
aI24
aI48
aI2
aS'on'
p822
aa(lp823
F0.057636505196115
aI24
aI0
aI2
aS'off'
p824
aa(lp825
F0.85903016147055
aI26
aI63
aI2
aS'on'
p826
aa(lp827
F0.14927419271498
aI26
aI0
aI2
aS'off'
p828
aa(lp829
F0.35072580728502
aI27
aI72
aI2
aS'on'
p830
aa(lp831
F0.081221463263546
aI27
aI0
aI2
aS'off'
p832
aa(lp833
F0.66877853673645
aI29
aI78
aI2
aS'on'
p834
aa(lp835
F0.13871095767422
aI29
aI0
aI2
aS'off'
p836
aa(lp837
F0.61128904232578
aI31
aI71
aI2
aS'on'
p838
aa(lp839
F0.12655007944522
aI31
aI0
aI2
aS'off'
p840
aa(lp841
F0.37344992055478
aI32
aI92
aI2
aS'on'
p842
aa(lp843
F0.13806894846562
aI32
aI0
aI2
aS'off'
p844
aa(lp845
F0.11193105153438
aI0
aI0
aI0
aS'timeAfterLastHit'
p846
aaaI0
aI0
aI0
aI0
aI0
aI0
a(lp847
(lp848
F0.0011483490466162
aI60
aI66
aI1
ag369
aa(lp849
F0.11975105676652
aI60
aI0
aI1
ag371
aa(lp850
F0.566812787868
aI63
aI63
aI1
ag373
aa(lp851
F0.16117614559903
aI63
aI0
aI1
ag375
aa(lp852
F0.60969223655229
aI67
aI50
aI1
ag377
aa(lp853
F0.057485834928457
aI67
aI0
aI1
ag379
aa(lp854
F0.46032758200795
aI65
aI68
aI1
ag381
aa(lp855
F0.10386763282008
aI65
aI0
aI1
ag383
aa(lp856
F5.9179398994113
aI60
aI63
aI1
ag385
aa(lp857
F0.17304154642807
aI60
aI0
aI1
ag387
aa(lp858
F0.53127411806418
aI63
aI22
aI1
ag389
aa(lp859
F0.057028544463492
aI63
aI0
aI1
ag391
aa(lp860
F0.71401388710592
aI67
aI8
aI1
ag393
aa(lp861
F0.058330223913799
aI67
aI0
aI1
ag395
aa(lp862
F0.45984310760878
aI65
aI65
aI1
ag397
aa(lp863
F0.12739166214897
aI65
aI0
aI1
ag399
aa(lp864
F2.8565931925991
aI63
aI58
aI1
ag401
aa(lp865
F0.15003750922597
aI63
aI0
aI1
ag403
aa(lp866
F1.3925118175182
aI62
aI72
aI1
ag405
aa(lp867
F0.10378254400007
aI62
aI0
aI1
ag407
aa(lp868
F1.3779503219232
aI0
aI0
aI0
ag409
aaaI0
aI0
aI0
aI0
aI0
aI0
aI0
a(lp869
(lp870
F0.0018557647754278
aI60
aI54
aI1
ag412
aa(lp871
F0.14819820542175
aI60
aI0
aI1
ag414
aa(lp872
F0.56496236206158
aI63
aI51
aI1
ag416
aa(lp873
F0.057561929242183
aI63
aI0
aI1
ag418
aa(lp874
F0.70016202407282
aI67
aI9
aI1
ag420
aa(lp875
F0.057631425235741
aI67
aI0
aI1
ag422
aa(lp876
F0.47326094388063
aI65
aI49
aI1
ag424
aa(lp877
F0.057959119052384
aI65
aI0
aI1
ag426
aa(lp878
F5.998500265212
aI60
aI46
aI1
ag428
aa(lp879
F0.057931994582077
aI60
aI0
aI1
ag430
aa(lp880
F0.64546275054067
aI63
aI23
aI1
ag432
aa(lp881
F0.057536201078619
aI63
aI0
aI1
ag434
aa(lp882
F0.74876473596692
aI67
aI15
aI1
ag436
aa(lp883
F0.057841214821337
aI67
aI0
aI1
ag438
aa(lp884
F0.54188993445882
aI65
aI56
aI1
ag440
aa(lp885
F0.05807373953985
aI65
aI0
aI1
ag442
aa(lp886
F2.7250662160059
aI63
aI47
aI1
ag444
aa(lp887
F0.16044123895654
aI63
aI0
aI1
ag446
aa(lp888
F1.405081833502
aI62
aI59
aI1
ag448
aa(lp889
F0.18391567076469
aI62
aI0
aI1
ag450
aa(lp890
F1.2979024308281
aI0
aI0
aI0
ag452
aaa(lp891
(lp892
F0.047550249099686
aI60
aI7
aI1
ag455
aa(lp893
F0.12753026493897
aI60
aI0
aI1
ag457
aa(lp894
F0.56436942722166
aI63
aI22
aI1
ag459
aa(lp895
F0.14894994703104
aI63
aI0
aI1
ag461
aa(lp896
F0.56344752338941
aI67
aI16
aI1
ag463
aa(lp897
F0.16072893100704
aI67
aI0
aI1
ag465
aa(lp898
F0.33458547570513
aI65
aI51
aI1
ag467
aa(lp899
F0.16138955809379
aI65
aI0
aI1
ag469
aa(lp900
F5.8372587706945
aI60
aI42
aI1
ag471
aa(lp901
F0.057182243921488
aI60
aI0
aI1
ag473
aa(lp902
F0.71077732511117
aI63
aI48
aI1
ag475
aa(lp903
F0.14916290363362
aI63
aI0
aI1
ag477
aa(lp904
F0.5996471726603
aI67
aI7
aI1
ag479
aa(lp905
F0.057245857366979
aI67
aI0
aI1
ag481
aa(lp906
F0.4853727730324
aI65
aI43
aI1
ag483
aa(lp907
F0.13843949013017
aI65
aI0
aI1
ag485
aa(lp908
F2.8470103723168
aI63
aI31
aI1
ag487
aa(lp909
F0.19624589859154
aI63
aI0
aI1
ag489
aa(lp910
F1.3340692371596
aI62
aI13
aI1
ag491
aa(lp911
F0.10414556834235
aI62
aI0
aI1
ag493
aa(lp912
F1.3748910105523
aI0
aI0
aI0
ag495
aaaI0
aI0
aI0
aI0
aI0
aI0
a(lp913
(lp914
F0.0
aI36
aI73
aI2
ag498
aa(lp915
F0.16209079920759
aI36
aI0
aI2
ag500
aa(lp916
F0.33790920079241
aI39
aI59
aI2
ag502
aa(lp917
F0.13853119929422
aI39
aI0
aI2
ag504
aa(lp918
F0.36146880070578
aI48
aI57
aI2
ag506
aa(lp919
F0.11458383574262
aI48
aI0
aI2
ag508
aa(lp920
F0.63541616425738
aI36
aI92
aI2
ag510
aa(lp921
F0.17258552453217
aI36
aI0
aI2
ag512
aa(lp922
F0.57741447546783
aI46
aI49
aI2
ag514
aa(lp923
F0.057899207801711
aI46
aI0
aI2
ag516
aa(lp924
F0.44210079219829
aI48
aI70
aI2
ag518
aa(lp925
F0.13879452204748
aI48
aI0
aI2
ag520
aa(lp926
F0.86120547795252
aI0
aI0
aI0
ag522
aaa(lp927
(lp928
F0.0
aI46
aI31
aI2
ag525
aa(lp929
F0.057994099399821
aI46
aI0
aI2
ag527
aa(lp930
F0.69200590060018
aI44
aI36
aI2
ag529
aa(lp931
F0.057959810598504
aI44
aI0
aI2
ag531
aa(lp932
F0.6920401894015
aI43
aI19
aI2
ag533
aa(lp933
F0.057541301782976
aI43
aI0
aI2
ag535
aa(lp934
F0.69245869821702
aI41
aI54
aI2
ag537
aa(lp935
F0.068885697392147
aI41
aI0
aI2
ag539
aa(lp936
F0.68111430260785
aI39
aI78
aI2
ag541
aa(lp937
F0.12736741398282
aI39
aI0
aI2
ag543
aa(lp938
F0.37263258601718
aI38
aI66
aI2
ag545
aa(lp939
F0.12749574646716
aI38
aI0
aI2
ag547
aa(lp940
F0.37250425353284
aI0
aI0
aI0
ag549
aaa(lp941
(lp942
F0.0
aI41
aI73
aI3
ag552
aa(lp943
F0.34546006914763
aI41
aI0
aI3
ag554
aa(lp944
F0.40453993085237
aI40
aI71
aI3
ag556
aa(lp945
F0.17322590737331
aI40
aI0
aI3
ag558
aa(lp946
F0.076774092626692
aI36
aI56
aI3
ag560
aa(lp947
F0.13846759245553
aI36
aI0
aI3
ag562
aa(lp948
F0.36153240754447
aI40
aI75
aI3
ag564
aa(lp949
F0.18422577199681
aI40
aI0
aI3
ag566
aa(lp950
F0.31577422800319
aI0
aI0
aI0
ag568
aaa(lp951
(lp952
F0.0
aI41
aI89
aI3
ag571
aa(lp953
F0.2672438899715
aI41
aI0
aI3
ag573
aa(lp954
F0.4827561100285
aI40
aI69
aI3
ag575
aa(lp955
F0.14960580597233
aI40
aI0
aI3
ag577
aa(lp956
F0.10039419402767
aI36
aI73
aI3
ag579
aa(lp957
F0.13805738880228
aI36
aI0
aI3
ag581
aa(lp958
F0.36194261119772
aI40
aI72
aI3
ag583
aa(lp959
F0.16156584953103
aI40
aI0
aI3
ag585
aa(lp960
F0.33843415046897
aI41
aI101
aI3
ag587
aa(lp961
F0.10423174513608
aI41
aI0
aI3
ag589
aa(lp962
F0.14576825486392
aI41
aI85
aI3
ag591
aa(lp963
F0.15037308534829
aI41
aI0
aI3
ag593
aa(lp964
F0.34962691465171
aI40
aI80
aI3
ag595
aa(lp965
F0.15043154523278
aI40
aI0
aI3
ag597
aa(lp966
F0.099568454767223
aI36
aI96
aI3
ag599
aa(lp967
F0.11502134005627
aI36
aI0
aI3
ag601
aa(lp968
F0.38497865994373
aI40
aI89
aI3
ag603
aa(lp969
F0.16109573682945
aI40
aI0
aI3
ag605
aa(lp970
F0.33890426317055
aI0
aI0
aI0
ag607
aaa(lp971
(lp972
F0.0
aI41
aI94
aI3
ag610
aa(lp973
F0.18511987082456
aI41
aI0
aI3
ag612
aa(lp974
F0.56488012917544
aI40
aI65
aI3
ag614
aa(lp975
F0.13714021787735
aI40
aI0
aI3
ag616
aa(lp976
F0.11285978212265
aI36
aI73
aI3
ag618
aa(lp977
F0.12599255176031
aI36
aI0
aI3
ag620
aa(lp978
F0.37400744823969
aI40
aI96
aI3
ag622
aa(lp979
F0.18442611779119
aI40
aI0
aI3
ag624
aa(lp980
F0.31557388220881
aI45
aI73
aI3
ag626
aa(lp981
F0.13820869647941
aI45
aI0
aI3
ag628
aa(lp982
F0.61179130352059
aI45
aI96
aI3
ag630
aa(lp983
F0.1153076115736
aI45
aI0
aI3
ag632
aa(lp984
F0.6346923884264
aI45
aI78
aI3
ag634
aa(lp985
F0.11532531427679
aI45
aI0
aI3
ag636
aa(lp986
F0.38467468572321
aI0
aI0
aI0
ag638
aaaI0
aI0
aI0
aI0
aI0
aI0
aI0
aI0
aI0
aI0
aI0
aI0
aI0
aI0
aI0
aI0
aI0
aI0
aI0
aI0
aI0
aI0
aI0
aI0
aI0
aI0
aI0
aI0
aI0
aI0
aI0
aI0
aI0
aI0
aI0
aI0
aI0
aI0
aI0
aI0
aI0
aI0
aI0
aI0
aI0
aI0
aI0
aI0
aI0
aI0
aI0
aI0
aI0
aI0
aa(lp987
(dp988
a(dp989
a(dp990
a(dp991
a(dp992
a(dp993
a(dp994
a(dp995
a(dp996
a(dp997
g650
I31
sg651
I1
sa(dp998
a(dp999
a(dp1000
a(dp1001
a(dp1002
a(dp1003
a(dp1004
a(dp1005
g650
I41
sg651
I1
sa(dp1006
g650
I42
sg651
I0
sa(dp1007
a(dp1008
a(dp1009
a(dp1010
a(dp1011
a(dp1012
a(dp1013
g650
I51
sg651
I0
sa(dp1014
a(dp1015
a(dp1016
a(dp1017
a(dp1018
a(dp1019
a(dp1020
a(dp1021
g650
I61
sg651
I0
sa(dp1022
g650
I62
sg651
I0
sa(dp1023
a(dp1024
a(dp1025
a(dp1026
a(dp1027
a(dp1028
a(dp1029
g650
I71
sg651
I0
sa(dp1030
g650
I72
sg651
I0
sa(dp1031
g650
I73
sg651
I1
sa(dp1032
g650
I74
sg651
I0
sa(dp1033
g650
I75
sg651
I0
sa(dp1034
a(dp1035
a(dp1036
a(dp1037
a(dp1038
a(dp1039
a(dp1040
a(dp1041
a(dp1042
a(dp1043
a(dp1044
a(dp1045
a(dp1046
a(dp1047
a(dp1048
a(dp1049
a(dp1050
a(dp1051
a(dp1052
a(dp1053
a(dp1054
a(dp1055
a(dp1056
a(dp1057
a(dp1058
a(dp1059
a(dp1060
a(dp1061
a(dp1062
a(dp1063
a(dp1064
a(dp1065
a(dp1066
a(dp1067
a(dp1068
a(dp1069
a(dp1070
a(dp1071
a(dp1072
a(dp1073
a(dp1074
a(dp1075
a(dp1076
a(dp1077
a(dp1078
a(dp1079
a(dp1080
a(dp1081
a(dp1082
a(dp1083
a(dp1084
a(dp1085
a(dp1086
a(dp1087
aa(lp1088
I60
aI60
aI36
aI36
aa(lp1089
(lp1090
I0
aI2
aI3
aI5
aI7
aI8
aI10
aa(lp1091
I0
aI2
aI3
aI5
aI7
aI8
aI10
aa(lp1092
I0
aI2
aI3
aI5
aI7
aI8
aI10
aa(lp1093
I0
aI1
aI2
aI3
aI4
aI5
aI6
aI7
aI8
aI9
aI10
aI11
aaa(lp1094
(lp1095
(lp1096
I0
aI0
aI0
aI0
aI0
aI0
aI0
aI0
aI0
aI0
aI0
aI0
aa(lp1097
I0
aI0
aI0
aI0
aI0
aI0
aI0
aI0
aI0
aI0
aI0
aI0
aa(lp1098
I0
aI0
aI0
aI0
aI0
aI0
aI0
aI0
aI0
aI0
aI0
aI0
aa(lp1099
I0
aI0
aI0
aI0
aI0
aI0
aI0
aI0
aI0
aI0
aI0
aI0
aaa(lp1100
(lp1101
I0
aI0
aI0
aI0
aI0
aI0
aI0
aI0
aI0
aI0
aI0
aI0
aa(lp1102
I0
aI0
aI0
aI0
aI0
aI0
aI0
aI0
aI0
aI0
aI0
aI0
aa(lp1103
I0
aI0
aI0
aI0
aI0
aI0
aI0
aI0
aI0
aI0
aI0
aI0
aa(lp1104
I0
aI0
aI0
aI0
aI0
aI0
aI0
aI0
aI0
aI0
aI0
aI0
aaa(lp1105
(lp1106
I0
aI0
aI0
aI0
aI0
aI0
aI0
aI0
aI0
aI0
aI0
aI0
aa(lp1107
I0
aI0
aI0
aI0
aI0
aI0
aI0
aI0
aI0
aI0
aI0
aI0
aa(lp1108
I0
aI0
aI0
aI0
aI0
aI0
aI0
aI0
aI0
aI0
aI0
aI0
aa(lp1109
I0
aI0
aI0
aI0
aI0
aI0
aI0
aI0
aI0
aI0
aI0
aI0
aaa(lp1110
(lp1111
I0
aI0
aI0
aI0
aI0
aI0
aI0
aI0
aI0
aI0
aI0
aI0
aa(lp1112
I0
aI0
aI0
aI0
aI0
aI0
aI0
aI0
aI0
aI0
aI0
aI0
aa(lp1113
I0
aI0
aI0
aI0
aI0
aI0
aI0
aI0
aI0
aI0
aI0
aI0
aa(lp1114
I0
aI0
aI0
aI0
aI0
aI0
aI0
aI0
aI0
aI0
aI0
aI0
aaaa(lp1115
(lp1116
I0
aI0
aI0
aI0
aI0
aI0
aI0
aI0
aI0
aI0
aI0
aI0
aa(lp1117
I0
aI0
aI0
aI0
aI0
aI0
aI0
aI0
aI0
aI0
aI0
aI0
aa(lp1118
I0
aI0
aI0
aI0
aI0
aI0
aI0
aI0
aI0
aI0
aI0
aI0
aa(lp1119
I0
aI0
aI0
aI0
aI0
aI0
aI0
aI0
aI0
aI0
aI0
aI0
aaaa(lp1120
(lp1121
I0
aI0
aI0
aI0
aI0
aI0
aI0
aI0
aI0
aI0
aI0
aI0
aI0
aI0
aI0
aI0
aI0
aI0
aI0
aI0
aI0
aI0
aI0
aI0
aI0
aI0
aI0
aI0
aI0
aI0
aI0
aI0
aI0
aI0
aI0
a(lp1122
(lp1123
F0.5
aI42
aI111
aI3
aS'on'
p1124
aa(lp1125
F0.052478661999885
aI42
aI0
aI3
aS'off'
p1126
aa(lp1127
F0.94752133800012
aI42
aI111
aI3
aS'on'
p1128
aa(lp1129
F0.051767901999938
aI42
aI0
aI3
aS'off'
p1130
aa(lp1131
F0.94823209800006
aI42
aI111
aI3
aS'on'
p1132
aa(lp1133
F0.052402216000246
aI42
aI0
aI3
aS'off'
p1134
aa(lp1135
F0.94759778399975
aI42
aI104
aI3
aS'on'
p1136
aa(lp1137
F0.051859824000076
aI42
aI0
aI3
aS'off'
p1138
aa(lp1139
F0.94814017599992
aI42
aI101
aI3
aS'on'
p1140
aa(lp1141
F0.052669528000024
aI42
aI0
aI3
aS'off'
p1142
aa(lp1143
F0.94733047199998
aI42
aI118
aI3
aS'on'
p1144
aa(lp1145
F0.052388969999811
aI42
aI0
aI3
aS'off'
p1146
aa(lp1147
F0.78094436333352
aI42
aI115
aI3
aS'on'
p1148
aa(lp1149
F0.051955418000034
aI42
aI0
aI3
aS'off'
p1150
aa(lp1151
F0.36471124866663
aI42
aI120
aI3
aS'on'
p1152
aa(lp1153
F0.052124205999917
aI42
aI0
aI3
aS'off'
p1154
aa(lp1155
F0.69787579400008
aI42
aI118
aI3
aS'on'
p1156
aa(lp1157
F0.052720373999819
aI42
aI0
aI3
aS'off'
p1158
aa(lp1159
F0.44727962600018
aI0
aI0
aI0
aS'timeAfterLastHit'
p1160
aaaI0
aI0
aI0
aI0
aI0
aI0
aI0
aI0
aI0
aI0
a(lp1161
(lp1162
F0.0
aI36
aI72
aI3
aS'on'
p1163
aa(lp1164
F0.052157033999947
aI36
aI0
aI3
aS'off'
p1165
aa(lp1166
F0.28117629933339
aI36
aI54
aI3
aS'on'
p1167
aa(lp1168
F0.052081193999811
aI36
aI0
aI3
aS'off'
p1169
aa(lp1170
F0.28125213933352
aI36
aI69
aI3
aS'on'
p1171
aa(lp1172
F0.052681339999936
aI36
aI0
aI3
aS'off'
p1173
aa(lp1174
F0.2806519933334
aI40
aI80
aI3
aS'on'
p1175
aa(lp1176
F0.13610685799995
aI40
aI0
aI3
aS'off'
p1177
aa(lp1178
F0.19722647533338
aI36
aI63
aI3
aS'on'
p1179
aa(lp1180
F0.052373967999984
aI36
aI0
aI3
aS'off'
p1181
aa(lp1182
F0.28095936533335
aI36
aI62
aI3
aS'on'
p1183
aa(lp1184
F0.051832970000078
aI36
aI0
aI3
aS'off'
p1185
aa(lp1186
F0.28150036333326
aI36
aI89
aI3
aS'on'
p1187
aa(lp1188
F0.12611447799986
aI36
aI0
aI3
aS'off'
p1189
aa(lp1190
F0.20721885533347
aI36
aI61
aI3
aS'on'
p1191
aa(lp1192
F0.062447296000073
aI36
aI0
aI3
aS'off'
p1193
aa(lp1194
F0.27088603733326
aI36
aI85
aI3
aS'on'
p1195
aa(lp1196
F0.12592503199994
aI36
aI0
aI3
aS'off'
p1197
aa(lp1198
F0.20740830133339
aI40
aI70
aI3
aS'on'
p1199
aa(lp1200
F0.12575146000017
aI40
aI0
aI3
aS'off'
p1201
aa(lp1202
F0.20758187333316
aI36
aI73
aI3
aS'on'
p1203
aa(lp1204
F0.13632308600017
aI36
aI0
aI3
aS'off'
p1205
aa(lp1206
F0.19701024733316
aI36
aI70
aI3
aS'on'
p1207
aa(lp1208
F0.135369244
aI36
aI0
aI3
aS'off'
p1209
aa(lp1210
F0.19796408933333
aI0
aI0
aI0
aS'timeAfterLastHit'
p1211
aaa(lp1212
(lp1213
F0.0
aI36
aI68
aI3
aS'on'
p1214
aa(lp1215
F0.10379799199995
aI36
aI0
aI3
aS'off'
p1216
aa(lp1217
F0.22953534133338
aI36
aI65
aI3
aS'on'
p1218
aa(lp1219
F0.052496624000014
aI36
aI0
aI3
aS'off'
p1220
aa(lp1221
F0.28083670933332
aI36
aI73
aI3
aS'on'
p1222
aa(lp1223
F0.11573132600006
aI36
aI0
aI3
aS'off'
p1224
aa(lp1225
F0.21760200733327
aI40
aI68
aI3
aS'on'
p1226
aa(lp1227
F0.1251464999998
aI40
aI0
aI3
aS'off'
p1228
aa(lp1229
F0.20818683333353
aI36
aI72
aI3
aS'on'
p1230
aa(lp1231
F0.10448532400005
aI36
aI0
aI3
aS'off'
p1232
aa(lp1233
F0.22884800933328
aI36
aI60
aI3
aS'on'
p1234
aa(lp1235
F0.052329565999798
aI36
aI0
aI3
aS'off'
p1236
aa(lp1237
F0.28100376733354
aI36
aI75
aI3
aS'on'
p1238
aa(lp1239
F0.050622762000103
aI36
aI0
aI3
aS'off'
p1240
aa(lp1241
F0.28271057133323
aI42
aI78
aI3
aS'on'
p1242
aa(lp1243
F0.1146040399999
aI42
aI0
aI3
aS'off'
p1244
aa(lp1245
F0.052062626666763
aI42
aI104
aI3
aS'on'
p1246
aa(lp1247
F0.14521342000012
aI42
aI0
aI3
aS'off'
p1248
aa(lp1249
F0.021453246666548
aI42
aI108
aI3
aS'on'
p1250
aa(lp1251
F0.12576715599994
aI42
aI0
aI3
aS'off'
p1252
aa(lp1253
F0.2075661773334
aI42
aI99
aI3
aS'on'
p1254
aa(lp1255
F0.16731069799994
aI42
aI0
aI3
aS'off'
p1256
aa(lp1257
F0.1660226353334
aI42
aI89
aI3
aS'on'
p1258
aa(lp1259
F0.11485668400019
aI42
aI0
aI3
aS'off'
p1260
aa(lp1261
F0.21847664933315
aI42
aI99
aI3
aS'on'
p1262
aa(lp1263
F0.12518114399995
aI42
aI0
aI3
aS'off'
p1264
aa(lp1265
F0.20815218933338
aI0
aI0
aI0
aS'timeAfterLastHit'
p1266
aaaI0
aI0
aI0
aI0
aI0
aI0
aI0
aI0
aI0
aI0
aI0
aI0
aI0
aI0
aI0
aI0
aI0
aI0
aI0
aI0
aI0
aI0
aI0
aI0
aI0
aI0
aI0
aI0
aI0
aI0
aI0
aI0
aI0
aI0
aI0
aI0
aI0
aI0
aI0
aI0
aI0
aI0
aI0
aI0
aI0
aI0
aI0
aI0
aI0
aI0
aI0
aI0
aa(lp1267
(dp1268
a(dp1269
a(dp1270
a(dp1271
a(dp1272
a(dp1273
a(dp1274
a(dp1275
a(dp1276
a(dp1277
S'playing'
p1278
I0
sa(dp1279
a(dp1280
a(dp1281
a(dp1282
a(dp1283
a(dp1284
a(dp1285
a(dp1286
g1278
I0
sa(dp1287
a(dp1288
a(dp1289
a(dp1290
a(dp1291
a(dp1292
a(dp1293
a(dp1294
a(dp1295
a(dp1296
a(dp1297
a(dp1298
a(dp1299
a(dp1300
a(dp1301
a(dp1302
g1278
I1
sa(dp1303
g1278
I0
sa(dp1304
S'button'
p1305
I73
sg1278
I1
sa(dp1306
a(dp1307
a(dp1308
a(dp1309
a(dp1310
a(dp1311
g1278
I1
sa(dp1312
g1278
I0
sa(dp1313
g1278
I1
sa(dp1314
g1278
I0
sa(dp1315
g1278
I0
sa(dp1316
g1305
I86
sg1278
I0
sa(dp1317
g1305
I87
sg1278
I0
sa(dp1318
a(dp1319
a(dp1320
a(dp1321
a(dp1322
a(dp1323
a(dp1324
a(dp1325
a(dp1326
a(dp1327
a(dp1328
a(dp1329
a(dp1330
a(dp1331
a(dp1332
a(dp1333
a(dp1334
a(dp1335
a(dp1336
a(dp1337
a(dp1338
a(dp1339
a(dp1340
a(dp1341
a(dp1342
a(dp1343
a(dp1344
a(dp1345
a(dp1346
a(dp1347
a(dp1348
a(dp1349
a(dp1350
a(dp1351
a(dp1352
a(dp1353
a(dp1354
a(dp1355
a(dp1356
a(dp1357
a(dp1358
a(dp1359
a(dp1360
a(dp1361
a(dp1362
a(dp1363
a(dp1364
a(dp1365
a(dp1366
a(dp1367
a(dp1368
a(dp1369
aa(lp1370
I60
aI60
aI36
aI36
aa(lp1371
(lp1372
I0
aI2
aI3
aI5
aI7
aI8
aI10
aa(lp1373
I0
aI2
aI3
aI5
aI7
aI8
aI10
aa(lp1374
I0
aI2
aI3
aI5
aI7
aI8
aI10
aa(lp1375
I0
aI1
aI2
aI3
aI4
aI5
aI6
aI7
aI8
aI9
aI10
aI11
aaa(lp1376
(lp1377
(lp1378
I0
aI0
aI0
aI0
aI0
aI0
aI0
aI0
aI0
aI0
aI0
aI0
aa(lp1379
I0
aI0
aI0
aI0
aI0
aI0
aI0
aI0
aI0
aI0
aI0
aI0
aa(lp1380
I0
aI0
aI0
aI0
aI0
aI0
aI0
aI0
aI0
aI0
aI0
aI0
aa(lp1381
I0
aI0
aI0
aI0
aI0
aI0
aI0
aI0
aI0
aI0
aI0
aI0
aaa(lp1382
(lp1383
I0
aI0
aI0
aI0
aI0
aI0
aI0
aI0
aI0
aI0
aI0
aI0
aa(lp1384
I0
aI0
aI0
aI0
aI0
aI0
aI0
aI0
aI0
aI0
aI0
aI0
aa(lp1385
I0
aI0
aI0
aI0
aI0
aI0
aI0
aI0
aI0
aI0
aI0
aI0
aa(lp1386
I0
aI0
aI0
aI0
aI0
aI0
aI0
aI0
aI0
aI0
aI0
aI0
aaa(lp1387
(lp1388
I0
aI0
aI0
aI0
aI0
aI0
aI0
aI0
aI0
aI0
aI0
aI0
aa(lp1389
I0
aI0
aI0
aI0
aI0
aI0
aI0
aI0
aI0
aI0
aI0
aI0
aa(lp1390
I0
aI0
aI0
aI0
aI0
aI0
aI0
aI0
aI0
aI0
aI0
aI0
aa(lp1391
I0
aI0
aI0
aI0
aI0
aI0
aI0
aI0
aI0
aI0
aI0
aI0
aaa(lp1392
(lp1393
I0
aI0
aI0
aI0
aI0
aI0
aI0
aI0
aI0
aI0
aI0
aI0
aa(lp1394
I0
aI0
aI0
aI0
aI0
aI0
aI0
aI0
aI0
aI0
aI0
aI0
aa(lp1395
I0
aI0
aI0
aI0
aI0
aI0
aI0
aI0
aI0
aI0
aI0
aI0
aa(lp1396
I0
aI0
aI0
aI0
aI0
aI0
aI0
aI0
aI0
aI0
aI0
aI0
aaaa(lp1397
(lp1398
I0
aI0
aI0
aI0
aI0
aI0
aI0
aI0
aI0
aI0
aI0
aI0
aa(lp1399
I0
aI0
aI0
aI0
aI0
aI0
aI0
aI0
aI0
aI0
aI0
aI0
aa(lp1400
I0
aI0
aI0
aI0
aI0
aI0
aI0
aI0
aI0
aI0
aI0
aI0
aa(lp1401
I0
aI0
aI0
aI0
aI0
aI0
aI0
aI0
aI0
aI0
aI0
aI0
aaaa(lp1402
(lp1403
I0
ag776
aI0
aI0
a(lp1404
(lp1405
F0.40606034799976
aI46
aI111
aI2
aS'on'
p1406
aa(lp1407
F0.13666616800037
aI46
aI0
aI2
aS'off'
p1408
aa(lp1409
F0.501575538
aI44
aI113
aI2
aS'on'
p1410
aa(lp1411
F0.14540735999981
aI44
aI0
aI2
aS'off'
p1412
aa(lp1413
F0.47928606400001
aI43
aI118
aI2
aS'on'
p1414
aa(lp1415
F0.12602512400008
aI43
aI0
aI2
aS'off'
p1416
aa(lp1417
F0.84493059599981
aI50
aI111
aI2
aS'on'
p1418
aa(lp1419
F0.15662016000033
aI50
aI0
aI2
aS'off'
p1420
aa(lp1421
F0.54337946199985
aI51
aI118
aI2
aS'on'
p1422
aa(lp1423
F0.16787741400003
aI51
aI0
aI2
aS'off'
p1424
aa(lp1425
F0.49217176599996
aI0
aI0
aI0
aS'timeAfterLastHit'
p1426
aaa(lp1427
(lp1428
F0.10625162199995
aI34
aI65
aI2
aS'on'
p1429
aa(lp1430
F0.324044598
aI36
aI69
aI2
aS'on'
p1431
aa(lp1432
F0.093786366000131
aI34
aI0
aI2
aS'off'
p1433
aa(lp1434
F0.14614060999975
aI38
aI9
aI2
aS'on'
p1435
aa(lp1436
F0.16778417800015
aI36
aI0
aI2
aS'off'
p1437
aa(lp1438
F0.18803414000013
aI39
aI53
aI2
aS'on'
p1439
aa(lp1440
F0.041848187999676
aI38
aI0
aI2
aS'off'
p1441
aa(lp1442
F0.24111120199996
aI38
aI56
aI2
aS'on'
p1443
aa(lp1444
F0.072569244000078
aI39
aI0
aI2
aS'off'
p1445
aa(lp1446
F0.33582506600033
aI38
aI0
aI2
aS'off'
p1447
aa(lp1448
F0.02103420200001
aI34
aI80
aI2
aS'on'
p1449
aa(lp1450
F0.22038372599991
aI34
aI0
aI2
aS'off'
p1451
aa(lp1452
F0.041186857999946
aI0
aI0
aI0
aS'timeAfterLastHit'
p1453
aaaI0
aI0
aI0
ag806
ag820
a(lp1454
(lp1455
F0.018723736000084
aI36
aI96
aI2
aS'on'
p1456
aa(lp1457
F0.75211955799978
aI36
aI0
aI2
aS'off'
p1458
aa(lp1459
F0.21027862200026
aI36
aI82
aI2
aS'on'
p1460
aa(lp1461
F0.73952753999993
aI36
aI0
aI2
aS'off'
p1462
aa(lp1463
F0.23037235599986
aI36
aI94
aI2
aS'on'
p1464
aa(lp1465
F0.21937843400019
aI36
aI0
aI2
aS'off'
p1466
aa(lp1467
F0.13566768600003
aI38
aI92
aI2
aS'on'
p1468
aa(lp1469
F0.17694096399964
aI38
aI0
aI2
aS'off'
p1470
aa(lp1471
F0.18715751000036
aI39
aI111
aI2
aS'on'
p1472
aa(lp1473
F0.20861752999963
aI39
aI0
aI2
aS'off'
p1474
aa(lp1475
F0.13623559400003
aI41
aI82
aI2
aS'on'
p1476
aa(lp1477
F0.20867471200017
aI41
aI0
aI2
aS'off'
p1478
aa(lp1479
F0.125316742
aI39
aI85
aI2
aS'on'
p1480
aa(lp1481
F0.18784121599992
aI39
aI0
aI2
aS'off'
p1482
aa(lp1483
F0.17747006800028
aI38
aI106
aI2
aS'on'
p1484
aa(lp1485
F0.17740981999987
aI38
aI0
aI2
aS'off'
p1486
aa(lp1487
F0.15601095800002
aI34
aI106
aI2
aS'on'
p1488
aa(lp1489
F0.63768886999969
aI34
aI0
aI2
aS'off'
p1490
aa(lp1491
F0.34507809600018
aI34
aI89
aI2
aS'on'
p1492
aa(lp1493
F0.61777853800004
aI34
aI0
aI2
aS'off'
p1494
aa(lp1495
F0.33454101000007
aI34
aI99
aI2
aS'on'
p1496
aa(lp1497
F0.17761630599989
aI34
aI0
aI2
aS'off'
p1498
aa(lp1499
F0.18818019199989
aI43
aI75
aI2
aS'on'
p1500
aa(lp1501
F0.083356932000243
aI44
aI89
aI2
aS'on'
p1502
aa(lp1503
F0.073268679999728
aI43
aI0
aI2
aS'off'
p1504
aa(lp1505
F0.2200964220001
aI43
aI85
aI2
aS'on'
p1506
aa(lp1507
F0.15631804600025
aI44
aI0
aI2
aS'off'
p1508
aa(lp1509
F0.19804325399991
aI43
aI0
aI2
aS'off'
p1510
aa(lp1511
F0.020567697999923
aI41
aI99
aI2
aS'on'
p1512
aa(lp1513
F0.21945285399988
aI41
aI0
aI2
aS'off'
p1514
aa(lp1515
F0.030970512000295
aI39
aI72
aI2
aS'on'
p1516
aa(lp1517
F0.31322895799985
aI38
aI66
aI2
aS'on'
p1518
aa(lp1519
F0.094186863999767
aI38
aI0
aI2
aS'off'
p1520
aa(lp1521
F0.15709285000003
aI39
aI0
aI2
aS'off'
p1522
aa(lp1523
F0.084790872000212
aI0
aI0
aI0
aS'timeAfterLastHit'
p1524
aaa(lp1525
(lp1526
F0.039912736000133
aI36
aI104
aI2
aS'on'
p1527
aa(lp1528
F0.69156822199966
aI36
aI0
aI2
aS'off'
p1529
aa(lp1530
F0.2398105100001
aI36
aI113
aI2
aS'on'
p1531
aa(lp1532
F0.69988559000012
aI36
aI0
aI2
aS'off'
p1533
aa(lp1534
F0.32882294199999
aI0
aI0
aI0
aS'timeAfterLastHit'
p1535
aaa(lp1536
(lp1537
F0.0027002036572412
aI36
aI87
aI2
aS'on'
p1538
aa(lp1539
F0.22794286034286
aI36
aI0
aI2
aS'off'
p1540
aa(lp1541
F0.10447586600003
aI38
aI99
aI2
aS'on'
p1542
aa(lp1543
F0.18791881399966
aI38
aI0
aI2
aS'off'
p1544
aa(lp1545
F0.13654776800013
aI39
aI101
aI2
aS'on'
p1546
aa(lp1547
F0.1975456680002
aI39
aI0
aI2
aS'off'
p1548
aa(lp1549
F0.12545050399967
aI41
aI70
aI2
aS'on'
p1550
aa(lp1551
F0.19802319400014
aI41
aI0
aI2
aS'off'
p1552
aa(lp1553
F0.14694376599982
aI39
aI104
aI2
aS'on'
p1554
aa(lp1555
F0.21831860600014
aI39
aI0
aI2
aS'off'
p1556
aa(lp1557
F0.14697597400027
aI38
aI104
aI2
aS'on'
p1558
aa(lp1559
F0.19827984799986
aI38
aI0
aI2
aS'off'
p1560
aa(lp1561
F0.10887692799997
aI0
aI0
aI0
aS'timeAfterLastHit'
p1562
aaa(lp1563
(lp1564
F0.0011577599998418
aI34
aI101
aI2
aS'on'
p1565
aa(lp1566
F0.76384588400015
aI34
aI0
aI2
aS'off'
p1567
aa(lp1568
F0.29266689799988
aI34
aI106
aI2
aS'on'
p1569
aa(lp1570
F0.74297626599991
aI34
aI0
aI2
aS'off'
p1571
aa(lp1572
F0.19935319200022
aI0
aI0
aI0
aS'timeAfterLastHit'
p1573
aaa(lp1574
(lp1575
F0.019610589999957
aI34
aI70
aI2
aS'on'
p1576
aa(lp1577
F0.12568489600017
aI34
aI0
aI2
aS'off'
p1578
aa(lp1579
F0.17811307199963
aI43
aI80
aI2
aS'on'
p1580
aa(lp1581
F0.12565499000038
aI44
aI87
aI2
aS'on'
p1582
aa(lp1583
F0.083076207999966
aI43
aI0
aI2
aS'off'
p1584
aa(lp1585
F0.18800931599981
aI43
aI87
aI2
aS'on'
p1586
aa(lp1587
F0.062610204000066
aI44
aI0
aI2
aS'off'
p1588
aa(lp1589
F0.25032392399999
aI41
aI78
aI2
aS'on'
p1590
aa(lp1591
F0.04169745199988
aI43
aI0
aI2
aS'off'
p1592
aa(lp1593
F0.18811977599989
aI41
aI0
aI2
aS'off'
p1594
aa(lp1595
F0.063018644000294
aI39
aI78
aI2
aS'on'
p1596
aa(lp1597
F0.33612910200009
aI38
aI104
aI2
aS'on'
p1598
aa(lp1599
F0.094504263999625
aI39
aI0
aI2
aS'off'
p1600
aa(lp1601
F0.17698029600024
aI38
aI0
aI2
aS'off'
p1602
aa(lp1603
F0.066467266000018
aI0
aI0
aI0
aS'timeAfterLastHit'
p1604
aaaI0
ag847
aI0
aI0
aI0
aI0
aI0
aI0
aI0
ag869
ag891
a(lp1605
(lp1606
F0.5
aI42
aI111
aI3
ag1124
aa(lp1607
F0.052478661999885
aI42
aI0
aI3
ag1126
aa(lp1608
F0.94752133800012
aI42
aI111
aI3
ag1128
aa(lp1609
F0.051767901999938
aI42
aI0
aI3
ag1130
aa(lp1610
F0.94823209800006
aI42
aI111
aI3
ag1132
aa(lp1611
F0.052402216000246
aI42
aI0
aI3
ag1134
aa(lp1612
F0.94759778399975
aI42
aI104
aI3
ag1136
aa(lp1613
F0.051859824000076
aI42
aI0
aI3
ag1138
aa(lp1614
F0.94814017599992
aI42
aI101
aI3
ag1140
aa(lp1615
F0.052669528000024
aI42
aI0
aI3
ag1142
aa(lp1616
F0.94733047199998
aI42
aI118
aI3
ag1144
aa(lp1617
F0.052388969999811
aI42
aI0
aI3
ag1146
aa(lp1618
F0.78094436333352
aI42
aI115
aI3
ag1148
aa(lp1619
F0.051955418000034
aI42
aI0
aI3
ag1150
aa(lp1620
F0.36471124866663
aI42
aI120
aI3
ag1152
aa(lp1621
F0.052124205999917
aI42
aI0
aI3
ag1154
aa(lp1622
F0.69787579400008
aI42
aI118
aI3
ag1156
aa(lp1623
F0.052720373999819
aI42
aI0
aI3
ag1158
aa(lp1624
F0.44727962600018
aI0
aI0
aI0
ag1160
aaaI0
aI0
aI0
aI0
aI0
ag913
ag927
ag941
ag951
ag971
a(lp1625
(lp1626
F0.0
aI36
aI72
aI3
ag1163
aa(lp1627
F0.052157033999947
aI36
aI0
aI3
ag1165
aa(lp1628
F0.28117629933339
aI36
aI54
aI3
ag1167
aa(lp1629
F0.052081193999811
aI36
aI0
aI3
ag1169
aa(lp1630
F0.28125213933352
aI36
aI69
aI3
ag1171
aa(lp1631
F0.052681339999936
aI36
aI0
aI3
ag1173
aa(lp1632
F0.2806519933334
aI40
aI80
aI3
ag1175
aa(lp1633
F0.13610685799995
aI40
aI0
aI3
ag1177
aa(lp1634
F0.19722647533338
aI36
aI63
aI3
ag1179
aa(lp1635
F0.052373967999984
aI36
aI0
aI3
ag1181
aa(lp1636
F0.28095936533335
aI36
aI62
aI3
ag1183
aa(lp1637
F0.051832970000078
aI36
aI0
aI3
ag1185
aa(lp1638
F0.28150036333326
aI36
aI89
aI3
ag1187
aa(lp1639
F0.12611447799986
aI36
aI0
aI3
ag1189
aa(lp1640
F0.20721885533347
aI36
aI61
aI3
ag1191
aa(lp1641
F0.062447296000073
aI36
aI0
aI3
ag1193
aa(lp1642
F0.27088603733326
aI36
aI85
aI3
ag1195
aa(lp1643
F0.12592503199994
aI36
aI0
aI3
ag1197
aa(lp1644
F0.20740830133339
aI40
aI70
aI3
ag1199
aa(lp1645
F0.12575146000017
aI40
aI0
aI3
ag1201
aa(lp1646
F0.20758187333316
aI36
aI73
aI3
ag1203
aa(lp1647
F0.13632308600017
aI36
aI0
aI3
ag1205
aa(lp1648
F0.19701024733316
aI36
aI70
aI3
ag1207
aa(lp1649
F0.135369244
aI36
aI0
aI3
ag1209
aa(lp1650
F0.19796408933333
aI0
aI0
aI0
ag1211
aaa(lp1651
(lp1652
F0.0
aI36
aI68
aI3
ag1214
aa(lp1653
F0.10379799199995
aI36
aI0
aI3
ag1216
aa(lp1654
F0.22953534133338
aI36
aI65
aI3
ag1218
aa(lp1655
F0.052496624000014
aI36
aI0
aI3
ag1220
aa(lp1656
F0.28083670933332
aI36
aI73
aI3
ag1222
aa(lp1657
F0.11573132600006
aI36
aI0
aI3
ag1224
aa(lp1658
F0.21760200733327
aI40
aI68
aI3
ag1226
aa(lp1659
F0.1251464999998
aI40
aI0
aI3
ag1228
aa(lp1660
F0.20818683333353
aI36
aI72
aI3
ag1230
aa(lp1661
F0.10448532400005
aI36
aI0
aI3
ag1232
aa(lp1662
F0.22884800933328
aI36
aI60
aI3
ag1234
aa(lp1663
F0.052329565999798
aI36
aI0
aI3
ag1236
aa(lp1664
F0.28100376733354
aI36
aI75
aI3
ag1238
aa(lp1665
F0.050622762000103
aI36
aI0
aI3
ag1240
aa(lp1666
F0.28271057133323
aI42
aI78
aI3
ag1242
aa(lp1667
F0.1146040399999
aI42
aI0
aI3
ag1244
aa(lp1668
F0.052062626666763
aI42
aI104
aI3
ag1246
aa(lp1669
F0.14521342000012
aI42
aI0
aI3
ag1248
aa(lp1670
F0.021453246666548
aI42
aI108
aI3
ag1250
aa(lp1671
F0.12576715599994
aI42
aI0
aI3
ag1252
aa(lp1672
F0.2075661773334
aI42
aI99
aI3
ag1254
aa(lp1673
F0.16731069799994
aI42
aI0
aI3
ag1256
aa(lp1674
F0.1660226353334
aI42
aI89
aI3
ag1258
aa(lp1675
F0.11485668400019
aI42
aI0
aI3
ag1260
aa(lp1676
F0.21847664933315
aI42
aI99
aI3
ag1262
aa(lp1677
F0.12518114399995
aI42
aI0
aI3
ag1264
aa(lp1678
F0.20815218933338
aI0
aI0
aI0
ag1266
aaaI0
aI0
aI0
aI0
aI0
aI0
aI0
aI0
aI0
aI0
aI0
aI0
aI0
aI0
aI0
aI0
aI0
aI0
aI0
aI0
aI0
aI0
aI0
aI0
aI0
aI0
aI0
aI0
aI0
aI0
aI0
aI0
aI0
aI0
aI0
aI0
aI0
aI0
aI0
aI0
aI0
aI0
aI0
aI0
aI0
aI0
aI0
aI0
aI0
aI0
aI0
aI0
aI0
aI0
aI0
aI0
aI0
aI0
aI0
aI0
aa(lp1679
(dp1680
ag997
a(dp1681
a(dp1682
a(dp1683
g1305
I34
sg1278
I01
sa(dp1684
g1305
I35
sg1278
I0
sa(dp1685
a(dp1686
a(dp1687
ag1005
ag1006
a(dp1688
g1305
I43
sg1278
I0
sa(dp1689
g1305
I44
sg1278
I1
sa(dp1690
g1305
I45
sg1278
I0
sa(dp1691
g1305
I46
sg1278
I0
sa(dp1692
g1305
I47
sg1278
I0
sa(dp1693
ag1013
a(dp1694
a(dp1695
a(dp1696
a(dp1697
a(dp1698
a(dp1699
a(dp1700
ag1021
ag1022
a(dp1701
g1305
I63
sg1278
I0
sa(dp1702
a(dp1703
a(dp1704
a(dp1705
a(dp1706
ag1029
ag1030
ag1031
ag1032
ag1033
a(dp1707
g1305
I76
sg1278
I0
sa(dp1708
g1305
I77
sg1278
I0
sa(dp1709
a(dp1710
a(dp1711
a(dp1712
a(dp1713
a(dp1714
a(dp1715
a(dp1716
a(dp1717
a(dp1718
a(dp1719
a(dp1720
a(dp1721
a(dp1722
a(dp1723
a(dp1724
a(dp1725
a(dp1726
a(dp1727
a(dp1728
a(dp1729
a(dp1730
a(dp1731
a(dp1732
a(dp1733
a(dp1734
a(dp1735
a(dp1736
a(dp1737
a(dp1738
a(dp1739
a(dp1740
a(dp1741
a(dp1742
a(dp1743
a(dp1744
a(dp1745
a(dp1746
a(dp1747
a(dp1748
a(dp1749
a(dp1750
a(dp1751
a(dp1752
a(dp1753
a(dp1754
a(dp1755
a(dp1756
a(dp1757
a(dp1758
a(dp1759
a(dp1760
ag1753
ag1754
ag1755
ag1756
ag1757
ag1758
ag1759
ag1760
aa(lp1761
I60
aI60
aI36
aI36
aa(lp1762
(lp1763
I0
aI2
aI3
aI5
aI7
aI8
aI10
aa(lp1764
I0
aI2
aI3
aI5
aI7
aI8
aI10
aa(lp1765
I0
aI2
aI3
aI5
aI7
aI8
aI10
aa(lp1766
I0
aI1
aI2
aI3
aI4
aI5
aI6
aI7
aI8
aI9
aI10
aI11
aaa(lp1767
(lp1768
(lp1769
I0
aI0
aI0
aI0
aI0
aI0
aI0
aI0
aI0
aI0
aI0
aI0
aa(lp1770
I0
aI0
aI0
aI0
aI0
aI0
aI0
aI0
aI0
aI0
aI0
aI0
aa(lp1771
I0
aI0
aI0
aI0
aI0
aI0
aI0
aI0
aI0
aI0
aI0
aI0
aa(lp1772
I0
aI0
aI0
aI0
aI0
aI0
aI0
aI0
aI0
aI0
aI0
aI0
aaa(lp1773
(lp1774
I0
aI0
aI0
aI0
aI0
aI0
aI0
aI0
aI0
aI0
aI0
aI0
aa(lp1775
I0
aI0
aI0
aI0
aI0
aI0
aI0
aI0
aI0
aI0
aI0
aI0
aa(lp1776
I0
aI0
aI0
aI0
aI0
aI0
aI0
aI0
aI0
aI0
aI0
aI0
aa(lp1777
I0
aI0
aI0
aI0
aI0
aI0
aI0
aI0
aI0
aI0
aI0
aI0
aaa(lp1778
(lp1779
I0
aI0
aI0
aI0
aI0
aI0
aI0
aI0
aI0
aI0
aI0
aI0
aa(lp1780
I0
aI0
aI0
aI0
aI0
aI0
aI0
aI0
aI0
aI0
aI0
aI0
aa(lp1781
I0
aI0
aI0
aI0
aI0
aI0
aI0
aI0
aI0
aI0
aI0
aI0
aa(lp1782
I0
aI0
aI0
aI0
aI0
aI0
aI0
aI0
aI0
aI0
aI0
aI0
aaa(lp1783
(lp1784
I0
aI0
aI0
aI0
aI0
aI0
aI0
aI0
aI0
aI0
aI0
aI0
aa(lp1785
I0
aI0
aI0
aI0
aI0
aI0
aI0
aI0
aI0
aI0
aI0
aI0
aa(lp1786
I0
aI0
aI0
aI0
aI0
aI0
aI0
aI0
aI0
aI0
aI0
aI0
aa(lp1787
I0
aI0
aI0
aI0
aI0
aI0
aI0
aI0
aI0
aI0
aI0
aI0
aaaa(lp1788
(lp1789
I0
aI0
aI0
aI0
aI0
aI0
aI0
aI0
aI0
aI0
aI0
aI0
aa(lp1790
I0
aI0
aI0
aI0
aI0
aI0
aI0
aI0
aI0
aI0
aI0
aI0
aa(lp1791
I0
aI0
aI0
aI0
aI0
aI0
aI0
aI0
aI0
aI0
aI0
aI0
aa(lp1792
I0
aI0
aI0
aI0
aI0
aI0
aI0
aI0
aI0
aI0
aI0
aI0
aaaaI0
aI0
aI0
aI0
aI0
aI0
aI0
aI0
aI0
aI0
aI0
aI0
aI0
aI0
aI0
aI0
aI0
aI0
aI0
aI0
aI0
aI0
aI0
aI0
aI0
aI0
a.