(lp0
I0
a(lp1
(lp2
I0
a(lp3
(lp4
F0.48626144287482
aI60
aI100
aI3
aS'on'
p5
aa(lp6
F0.15201720124332
aI60
aI0
aI3
aS'off'
p7
aa(lp8
F0.32126828182118
aI60
aI97
aI3
aS'on'
p9
aa(lp10
F0.15294778464886
aI60
aI0
aI3
aS'off'
p11
aa(lp12
F0.34968769887428
aI60
aI112
aI3
aS'on'
p13
aa(lp14
F0.15127171509312
aI60
aI0
aI3
aS'off'
p15
aa(lp16
F0.86948888335655
aI60
aI117
aI3
aS'on'
p17
aa(lp18
F0.13770990091098
aI60
aI0
aI3
aS'off'
p19
aa(lp20
F0.36502621869295
aI60
aI114
aI3
aS'on'
p21
aa(lp22
F0.1224825234267
aI60
aI0
aI3
aS'off'
p23
aa(lp24
F0.33378840233991
aI60
aI117
aI3
aS'on'
p25
aa(lp26
F0.16731728561308
aI60
aI0
aI3
aS'off'
p27
aa(lp28
F0.83893823367907
aI60
aI115
aI3
aS'on'
p29
aa(lp30
F0.13713389114719
aI60
aI0
aI3
aS'off'
p31
aa(lp32
F0.36624899723529
aI60
aI116
aI3
aS'on'
p33
aa(lp34
F0.13711586168347
aI60
aI0
aI3
aS'off'
p35
aa(lp36
F0.31857751760163
aI60
aI114
aI3
aS'on'
p37
aa(lp38
F0.1521859078116
aI60
aI0
aI3
aS'off'
p39
aa(lp40
F0.90200890579399
aI60
aI118
aI3
aS'on'
p41
aa(lp42
F0.1535559984236
aI60
aI0
aI3
aS'off'
p43
aa(lp44
F0.3664067455752
aI60
aI116
aI3
aS'on'
p45
aa(lp46
F0.13752274206036
aI60
aI0
aI3
aS'off'
p47
aa(lp48
F0.31863861308148
aI60
aI116
aI3
aS'on'
p49
aa(lp50
F0.13760671626869
aI60
aI0
aI3
aS'off'
p51
aa(lp52
F0.91354187010165
aI60
aI120
aI3
aS'on'
p53
aa(lp54
F0.15309862504728
aI60
aI0
aI3
aS'off'
p55
aa(lp56
F0.32105491711673
aI60
aI118
aI3
aS'on'
p57
aa(lp58
F0.15189203015916
aI60
aI0
aI3
aS'off'
p59
aa(lp60
F0.35092959745498
aI60
aI117
aI3
aS'on'
p61
aa(lp62
F0.15229265868902
aI60
aI0
aI3
aS'off'
p63
aa(lp64
F0.93022966922945
aI60
aI120
aI3
aS'on'
p65
aa(lp66
F0.1523248072981
aI60
aI0
aI3
aS'off'
p67
aa(lp68
F0.35091072527484
aI60
aI116
aI3
aS'on'
p69
aa(lp70
F0.15266771996266
aI60
aI0
aI3
aS'off'
p71
aa(lp72
F0.36587365602736
aI60
aI118
aI3
aS'on'
p73
aa(lp74
F0.16588348389359
aI60
aI0
aI3
aS'off'
p75
aa(lp76
F0.76177024924073
aI60
aI120
aI3
aS'on'
p77
aa(lp78
F0.13917299358536
aI60
aI0
aI3
aS'off'
p79
aa(lp80
F0.30396238376807
aI60
aI116
aI3
aS'on'
p81
aa(lp82
F0.13737947736217
aI60
aI0
aI3
aS'off'
p83
aa(lp84
F0.3660116632268
aI60
aI118
aI3
aS'on'
p85
aa(lp86
F0.15334877767509
aI60
aI0
aI3
aS'off'
p87
aa(lp88
F0.33392043762433
aI60
aI117
aI3
aS'on'
p89
aa(lp90
F0.15246123112411
aI60
aI0
aI3
aS'off'
p91
aa(lp92
F0.33728750360387
aI60
aI116
aI3
aS'on'
p93
aa(lp94
F0.13667159852321
aI60
aI0
aI3
aS'off'
p95
aa(lp96
F0.36758126183759
aI60
aI117
aI3
aS'on'
p97
aa(lp98
F0.1353370477982
aI60
aI0
aI3
aS'off'
p99
aa(lp100
F0.35082931129136
aI60
aI120
aI3
aS'on'
p101
aa(lp102
F0.18253626509295
aI60
aI0
aI3
aS'off'
p103
aa(lp104
F0.40582256873404
aI0
aI0
aI0
aS'timeAfterLastHit'
p105
aaaI0
aI0
aI0
aI0
aI0
aI0
aI0
aI0
aI0
aI0
aI0
a(lp106
(lp107
F18.603021293864
aI39
aI99
aI2
aS'on'
p108
aa(lp109
F0.53307651008981
aI39
aI0
aI2
aS'off'
p110
aa(lp111
F0.41248650018861
aI39
aI102
aI2
aS'on'
p112
aa(lp113
F0.53398481837212
aI39
aI0
aI2
aS'off'
p114
aa(lp115
F0.38073211911251
aI41
aI98
aI2
aS'on'
p116
aa(lp117
F0.45708185510921
aI41
aI0
aI2
aS'off'
p118
aa(lp119
F0.51965243775157
aI36
aI96
aI2
aS'on'
p120
aa(lp121
F0.48794123641073
aI36
aI0
aI2
aS'off'
p122
aa(lp123
F0.4880243095804
aI39
aI74
aI2
aS'on'
p124
aa(lp125
F0.56337755242475
aI39
aI0
aI2
aS'off'
p126
aa(lp127
F3.5520288096513
aI39
aI103
aI2
aS'on'
p128
aa(lp129
F0.48740419571823
aI39
aI0
aI2
aS'off'
p130
aa(lp131
F0.48791178799274
aI39
aI108
aI2
aS'on'
p132
aa(lp133
F0.50325403442548
aI39
aI0
aI2
aS'off'
p134
aa(lp135
F0.44137890274214
aI41
aI108
aI2
aS'on'
p136
aa(lp137
F0.48917183559206
aI41
aI0
aI2
aS'off'
p138
aa(lp139
F0.51875160602413
aI36
aI110
aI2
aS'on'
p140
aa(lp141
F0.45728350343416
aI36
aI0
aI2
aS'off'
p142
aa(lp143
F0.57788664979307
aI39
aI93
aI2
aS'on'
p144
aa(lp145
F0.41065308178349
aI39
aI0
aI2
aS'off'
p146
aa(lp147
F0.094896959939433
aI0
aI0
aI0
aS'timeAfterLastHit'
p148
aaa(lp149
(lp150
F0.040242427587145
aI31
aI103
aI2
aS'on'
p151
aa(lp152
F3.918864847692
aI31
aI0
aI2
aS'off'
p153
aa(lp154
F0.10658041006172
aI31
aI83
aI2
aS'on'
p155
aa(lp156
F3.7651050402928
aI31
aI0
aI2
aS'off'
p157
aa(lp158
F0.046999992147903
aI32
aI104
aI2
aS'on'
p159
aa(lp160
F3.8304190613017
aI32
aI0
aI2
aS'off'
p161
aa(lp162
F0.27408204060703
aI34
aI91
aI2
aS'on'
p163
aa(lp164
F1.9696101034406
aI34
aI0
aI2
aS'off'
p165
aa(lp166
F0.060924244353373
aI35
aI108
aI2
aS'on'
p167
aa(lp168
F1.8898069099105
aI35
aI0
aI2
aS'off'
p169
aa(lp170
F0.092287844143357
aI34
aI114
aI2
aS'on'
p171
aa(lp172
F15.995077078462
aI34
aI0
aI2
aS'off'
p173
aa(lp174
F0.010000000000218
aI0
aI0
aI0
aS'timeAfterLastHit'
p175
aaaI0
aI0
aI0
aI0
aI0
aI0
a(lp176
(lp177
F0.092871159420611
aI32
aI114
aI2
aS'on'
p178
aa(lp179
F3.7359041423133
aI32
aI0
aI2
aS'off'
p180
aa(lp181
F0.046164277026037
aI34
aI82
aI2
aS'on'
p182
aa(lp183
F3.9647389854281
aI35
aI91
aI2
aS'on'
p184
aa(lp185
F0.061604561406966
aI34
aI0
aI2
aS'off'
p186
aa(lp187
F3.9037405936997
aI34
aI116
aI2
aS'on'
p188
aa(lp189
F0.10548091888268
aI35
aI0
aI2
aS'off'
p190
aa(lp191
F2.0436900747427
aI32
aI108
aI2
aS'on'
p192
aa(lp193
F0.077641812654292
aI34
aI0
aI2
aS'off'
p194
aa(lp195
F1.9513834342315
aI38
aI99
aI2
aS'on'
p196
aa(lp197
F0.09090506613029
aI32
aI0
aI2
aS'off'
p198
aa(lp199
F15.915874974064
aI38
aI0
aI2
aS'off'
p200
aa(lp201
F0.010000000000218
aI0
aI0
aI0
aS'timeAfterLastHit'
p202
aaaI0
aI0
aI0
aI0
aI0
aI0
aI0
aI0
aI0
aI0
aI0
a(lp203
(lp204
F0.65890947761386
aI89
aI114
aI0
aS'on'
p205
aa(lp206
F0.21252331830692
aI89
aI0
aI0
aS'off'
p207
aa(lp208
F0.64155844695142
aI87
aI111
aI0
aS'on'
p209
aa(lp210
F0.12297658558327
aI87
aI0
aI0
aS'off'
p211
aa(lp212
F0.96007847321766
aI86
aI114
aI0
aS'on'
p213
aa(lp214
F0.12175251234953
aI86
aI0
aI0
aS'off'
p215
aa(lp216
F0.79213254743422
aI83
aI114
aI0
aS'on'
p217
aa(lp218
F0.21237582544586
aI83
aI0
aI0
aS'off'
p219
aa(lp220
F0.84006450224229
aI82
aI115
aI0
aS'on'
p221
aa(lp222
F0.13605351417732
aI82
aI0
aI0
aS'off'
p223
aa(lp224
F0.83902291938489
aI80
aI111
aI0
aS'on'
p225
aa(lp226
F0.12217305114723
aI80
aI0
aI0
aS'off'
p227
aa(lp228
F0.88278298783348
aI82
aI108
aI0
aS'on'
p229
aa(lp230
F0.15297674609792
aI82
aI0
aI0
aS'off'
p231
aa(lp232
F0.84004184512742
aI83
aI114
aI0
aS'on'
p233
aa(lp234
F0.15255430900106
aI83
aI0
aI0
aS'off'
p235
aa(lp236
F0.86917920404312
aI82
aI108
aI0
aS'on'
p237
aa(lp238
F0.15315748397461
aI82
aI0
aI0
aS'off'
p239
aa(lp240
F0.8071930145893
aI80
aI108
aI0
aS'on'
p241
aa(lp242
F0.1224975319426
aI80
aI0
aI0
aS'off'
p243
aa(lp244
F0.93139029962481
aI82
aI92
aI0
aS'on'
p245
aa(lp246
F0.076966642292973
aI82
aI0
aI0
aS'off'
p247
aa(lp248
F0.89972764049571
aI83
aI97
aI0
aS'on'
p249
aa(lp250
F0.16710166102803
aI83
aI0
aI0
aS'off'
p251
aa(lp252
F0.85319013634398
aI82
aI104
aI0
aS'on'
p253
aa(lp254
F0.1977693403901
aI82
aI0
aI0
aS'off'
p255
aa(lp256
F0.76167245623378
aI89
aI110
aI0
aS'on'
p257
aa(lp258
F0.21388529959654
aI89
aI0
aI0
aS'off'
p259
aa(lp260
F0.79140547274255
aI87
aI99
aI0
aS'on'
p261
aa(lp262
F0.21402911833093
aI87
aI0
aI0
aS'off'
p263
aa(lp264
F0.79286742235581
aI86
aI110
aI0
aS'on'
p265
aa(lp266
F0.19710074263298
aI86
aI0
aI0
aS'off'
p267
aa(lp268
F0.26288947146782
aI0
aI0
aI0
aS'timeAfterLastHit'
p269
aaa(lp270
(lp271
F0.56486270896676
aI82
aI104
aI0
aS'on'
p272
aa(lp273
F0.21411154707312
aI82
aI0
aI0
aS'off'
p274
aa(lp275
F0.70060104269396
aI83
aI114
aI0
aS'on'
p276
aa(lp277
F0.21461271254157
aI83
aI0
aI0
aS'off'
p278
aa(lp279
F0.80892728406252
aI87
aI110
aI0
aS'on'
p280
aa(lp281
F0.21427272459732
aI87
aI0
aI0
aS'off'
p282
aa(lp283
F0.74800991849224
aI89
aI114
aI0
aS'on'
p284
aa(lp285
F0.25904165576321
aI89
aI0
aI0
aS'off'
p286
aa(lp287
F0.75961109908712
aI90
aI115
aI0
aS'on'
p288
aa(lp289
F0.25855996024984
aI90
aI0
aI0
aS'off'
p290
aa(lp291
F0.73321763926106
aI82
aI108
aI0
aS'on'
p292
aa(lp293
F0.22764779108365
aI82
aI0
aI0
aS'off'
p294
aa(lp295
F0.79108448819898
aI83
aI115
aI0
aS'on'
p296
aa(lp297
F0.24362546898919
aI83
aI0
aI0
aS'off'
p298
aa(lp299
F0.85396851467522
aI87
aI98
aI0
aS'on'
p300
aa(lp301
F0.19897899705029
aI87
aI0
aI0
aS'off'
p302
aa(lp303
F0.76095307679498
aI89
aI112
aI0
aS'on'
p304
aa(lp305
F0.24355940469104
aI89
aI0
aI0
aS'off'
p306
aa(lp307
F0.74829094253255
aI90
aI113
aI0
aS'on'
p308
aa(lp309
F0.2445520720903
aI90
aI0
aI0
aS'off'
p310
aa(lp311
F0.77880640807234
aI89
aI115
aI0
aS'on'
p312
aa(lp313
F0.22820129244428
aI89
aI0
aI0
aS'off'
p314
aa(lp315
F0.7782738433998
aI90
aI95
aI0
aS'on'
p316
aa(lp317
F0.23016779588761
aI90
aI0
aI0
aS'off'
p318
aa(lp319
F0.69995664168528
aI89
aI116
aI0
aS'on'
p320
aa(lp321
F0.26120579806593
aI89
aI0
aI0
aS'off'
p322
aa(lp323
F0.72881656904065
aI87
aI103
aI0
aS'on'
p324
aa(lp325
F0.24372716065045
aI87
aI0
aI0
aS'off'
p326
aa(lp327
F0.74655261985754
aI89
aI115
aI0
aS'on'
p328
aa(lp329
F0.27609904288147
aI89
aI0
aI0
aS'off'
p330
aa(lp331
F0.70037024629892
aI90
aI112
aI0
aS'on'
p332
aa(lp333
F0.29068004816145
aI90
aI0
aI0
aS'off'
p334
aa(lp335
F0.24865348465937
aI0
aI0
aI0
aS'timeAfterLastHit'
p336
aaaI0
aI0
aI0
aI0
aI0
aI0
a(lp337
(lp338
F0.020502034295987
aI89
aI112
aI0
aS'on'
p339
aa(lp340
F0.19745221076437
aI89
aI0
aI0
aS'off'
p341
aa(lp342
F0.30634964179103
aI87
aI112
aI0
aS'on'
p343
aa(lp344
F0.18154704145809
aI87
aI0
aI0
aS'off'
p345
aa(lp346
F0.33772157251929
aI86
aI94
aI0
aS'on'
p347
aa(lp348
F0.19610832600665
aI86
aI0
aI0
aS'off'
p349
aa(lp350
F0.30722481586668
aI82
aI108
aI0
aS'on'
p351
aa(lp352
F0.17010572036861
aI82
aI0
aI0
aS'off'
p353
aa(lp354
F0.33597003756699
aI80
aI104
aI0
aS'on'
p355
aa(lp356
F0.16840855957639
aI80
aI0
aI0
aS'off'
p357
aa(lp358
F0.33406938264056
aI89
aI112
aI0
aS'on'
p359
aa(lp360
F0.19688418202077
aI89
aI0
aI0
aS'off'
p361
aa(lp362
F0.30503336838797
aI87
aI110
aI0
aS'on'
p363
aa(lp364
F0.19971396236679
aI87
aI0
aI0
aS'off'
p365
aa(lp366
F0.31891286331461
aI86
aI99
aI0
aS'on'
p367
aa(lp368
F0.2137616448199
aI86
aI0
aI0
aS'off'
p369
aa(lp370
F0.27495565172239
aI82
aI115
aI0
aS'on'
p371
aa(lp372
F0.18402509706698
aI82
aI0
aI0
aS'off'
p373
aa(lp374
F0.30509441429535
aI80
aI111
aI0
aS'on'
p375
aa(lp376
F0.19701215827081
aI80
aI0
aI0
aS'off'
p377
aa(lp378
F0.22736597098083
aI89
aI115
aI0
aS'on'
p379
aa(lp380
F0.22856478021959
aI89
aI0
aI0
aS'off'
p381
aa(lp382
F0.32049117193901
aI87
aI114
aI0
aS'on'
p383
aa(lp384
F0.21378171254992
aI87
aI0
aI0
aS'off'
p385
aa(lp386
F0.32054430972562
aI86
aI106
aI0
aS'on'
p387
aa(lp388
F0.22861685367661
aI86
aI0
aI0
aS'off'
p389
aa(lp390
F0.25932407072401
aI83
aI114
aI0
aS'on'
p391
aa(lp392
F0.1839359878295
aI83
aI0
aI0
aS'off'
p393
aa(lp394
F0.29110770485067
aI82
aI109
aI0
aS'on'
p395
aa(lp396
F0.19664781903202
aI82
aI0
aI0
aS'off'
p397
aa(lp398
F0.27599723166372
aI89
aI115
aI0
aS'on'
p399
aa(lp400
F0.22749870318398
aI89
aI0
aI0
aS'off'
p401
aa(lp402
F0.33699991570643
aI87
aI112
aI0
aS'on'
p403
aa(lp404
F0.2283057163761
aI87
aI0
aI0
aS'off'
p405
aa(lp406
F0.28986299818757
aI86
aI98
aI0
aS'on'
p407
aa(lp408
F0.2446073706144
aI86
aI0
aI0
aS'off'
p409
aa(lp410
F0.24356574401691
aI82
aI117
aI0
aS'on'
p411
aa(lp412
F0.19791271298027
aI82
aI0
aI0
aS'off'
p413
aa(lp414
F0.30641081308568
aI80
aI109
aI0
aS'on'
p415
aa(lp416
F0.18302227916251
aI80
aI0
aI0
aS'off'
p417
aa(lp418
F0.24458344837444
aI0
aI0
aI0
aS'timeAfterLastHit'
p419
aaaI0
aI0
aI0
aI0
aI0
aI0
aI0
aI0
aI0
aI0
aI0
aI0
aI0
aI0
aI0
aI0
aI0
aI0
aI0
aI0
aI0
aI0
aI0
aI0
aI0
aI0
aI0
aI0
aI0
aI0
aI0
aI0
aI0
aI0
aI0
aI0
aI0
aI0
aI0
aI0
aI0
aI0
aI0
aI0
aI0
aI0
aI0
aI0
aI0
aI0
aI0
aI0
aI0
aI0
aI0
aI0
aI0
aI0
aa(lp420
(dp421
a(dp422
S'button'
p423
I31
sS'playing'
p424
I1
sa(dp425
a(dp426
a(dp427
a(dp428
a(dp429
a(dp430
a(dp431
a(dp432
a(dp433
a(dp434
a(dp435
a(dp436
g423
I45
sg424
I0
sa(dp437
g423
I46
sg424
I0
sa(dp438
a(dp439
a(dp440
a(dp441
a(dp442
a(dp443
a(dp444
g423
I55
sg424
I0
sa(dp445
a(dp446
a(dp447
a(dp448
a(dp449
a(dp450
a(dp451
a(dp452
a(dp453
a(dp454
a(dp455
a(dp456
g423
I71
sg424
I1
sa(dp457
g423
I72
sg424
I1
sa(dp458
a(dp459
a(dp460
a(dp461
a(dp462
a(dp463
a(dp464
g423
I81
sg424
I0
sa(dp465
a(dp466
a(dp467
a(dp468
a(dp469
a(dp470
a(dp471
a(dp472
a(dp473
a(dp474
a(dp475
a(dp476
a(dp477
a(dp478
a(dp479
a(dp480
a(dp481
a(dp482
a(dp483
a(dp484
a(dp485
a(dp486
a(dp487
a(dp488
a(dp489
a(dp490
a(dp491
a(dp492
a(dp493
a(dp494
a(dp495
a(dp496
a(dp497
a(dp498
a(dp499
a(dp500
a(dp501
a(dp502
a(dp503
a(dp504
a(dp505
a(dp506
a(dp507
a(dp508
a(dp509
a(dp510
a(dp511
a(dp512
a(dp513
a(dp514
a(dp515
a(dp516
a(dp517
a(dp518
a(dp519
a(dp520
a(dp521
a(dp522
aa(lp523
I60
aI60
aI36
aI36
aa(lp524
(lp525
I0
aI2
aI3
aI5
aI7
aI8
aI10
aa(lp526
I0
aI2
aI3
aI5
aI7
aI8
aI10
aa(lp527
I0
aI2
aI3
aI5
aI7
aI8
aI10
aa(lp528
I0
aI2
aI3
aI5
aI7
aI8
aI10
aa(lp529
I0
aI2
aI3
aI5
aI7
aI8
aI10
aa(lp530
I0
aI1
aI2
aI3
aI4
aI5
aI6
aI7
aI8
aI9
aI10
aI11
aaa(lp531
(lp532
(lp533
I0
aI0
aI0
aI0
aI0
aI0
aI0
aI0
aI0
aI0
aI0
aI0
aa(lp534
I0
aI0
aI0
aI0
aI0
aI0
aI0
aI0
aI0
aI0
aI0
aI0
aa(lp535
I0
aI0
aI0
aI0
aI0
aI0
aI0
aI0
aI0
aI0
aI0
aI0
aa(lp536
I0
aI0
aI0
aI0
aI0
aI0
aI0
aI0
aI0
aI0
aI0
aI0
aaa(lp537
(lp538
I0
aI0
aI0
aI0
aI0
aI0
aI0
aI0
aI0
aI0
aI0
aI0
aa(lp539
I0
aI0
aI0
aI0
aI0
aI0
aI0
aI0
aI0
aI0
aI0
aI0
aa(lp540
I0
aI0
aI0
aI0
aI0
aI0
aI0
aI0
aI0
aI0
aI0
aI0
aa(lp541
I0
aI0
aI0
aI0
aI0
aI0
aI0
aI0
aI0
aI0
aI0
aI0
aaa(lp542
(lp543
I0
aI0
aI0
aI0
aI0
aI0
aI0
aI0
aI0
aI0
aI0
aI0
aa(lp544
I0
aI0
aI0
aI0
aI0
aI0
aI0
aI0
aI0
aI0
aI0
aI0
aa(lp545
I0
aI0
aI0
aI0
aI0
aI0
aI0
aI0
aI0
aI0
aI0
aI0
aa(lp546
I0
aI0
aI0
aI0
aI0
aI0
aI0
aI0
aI0
aI0
aI0
aI0
aaa(lp547
(lp548
I0
aI0
aI0
aI0
aI0
aI0
aI0
aI0
aI0
aI0
aI0
aI0
aa(lp549
I0
aI0
aI0
aI0
aI0
aI0
aI0
aI0
aI0
aI0
aI0
aI0
aa(lp550
I0
aI0
aI0
aI0
aI0
aI0
aI0
aI0
aI0
aI0
aI0
aI0
aa(lp551
I0
aI0
aI0
aI0
aI0
aI0
aI0
aI0
aI0
aI0
aI0
aI0
aaaa(lp552
(lp553
I0
aI0
aI0
aI0
aI0
aI0
aI0
aI0
aI0
aI0
aI0
aI0
aa(lp554
I0
aI0
aI0
aI0
aI0
aI0
aI0
aI0
aI0
aI0
aI0
aI0
aa(lp555
I0
aI0
aI0
aI0
aI0
aI0
aI0
aI0
aI0
aI0
aI0
aI0
aa(lp556
I0
aI0
aI0
aI0
aI0
aI0
aI0
aI0
aI0
aI0
aI0
aI0
aaaaI0
aI0
aI0
aI0
aI0
aI0
aI0
aI0
aI0
aI0
aI0
aI0
aI0
aI0
aI0
aI0
aI0
aI0
aI0
aI0
aI0
aI0
aI0
aI0
aI0
aI0
aI0
aI0
aI0
aI0
a.