(lp0
I0
a(lp1
(lp2
I0
aI0
a(lp3
(lp4
F0.5
aI42
aI94
aI3
aS'on'
p5
aa(lp6
F0.074929492463525
aI42
aI0
aI3
aS'off'
p7
aa(lp8
F0.92507050753647
aI42
aI106
aI3
aS'on'
p9
aa(lp10
F0.10442552996483
aI42
aI0
aI3
aS'off'
p11
aa(lp12
F2.3955744700352
aI42
aI92
aI3
aS'on'
p13
aa(lp14
F0.075309503296012
aI42
aI0
aI3
aS'off'
p15
aa(lp16
F0.92469049670399
aI42
aI101
aI3
aS'on'
p17
aa(lp18
F0.073557600124332
aI42
aI0
aI3
aS'off'
p19
aa(lp20
F0.92644239987567
aI0
aI0
aI0
aS'timeAfterLastHit'
p21
aaaI0
aI0
aI0
aI0
aI0
aI0
aI0
a(lp22
(lp23
F0.0
aI36
aI118
aI3
aS'on'
p24
aa(lp25
F0.16243361854322
aI36
aI0
aI3
aS'off'
p26
aa(lp27
F1.3375663814568
aI36
aI118
aI3
aS'on'
p28
aa(lp29
F0.10232664180876
aI36
aI0
aI3
aS'off'
p30
aa(lp31
F1.3976733581912
aI36
aI118
aI3
aS'on'
p32
aa(lp33
F0.11707205950734
aI36
aI0
aI3
aS'off'
p34
aa(lp35
F0.88292794049266
aI36
aI115
aI3
aS'on'
p36
aa(lp37
F0.14899176432937
aI36
aI0
aI3
aS'off'
p38
aa(lp39
F0.85100823567063
aI36
aI118
aI3
aS'on'
p40
aa(lp41
F0.13280497978576
aI36
aI0
aI3
aS'off'
p42
aa(lp43
F0.86719502021424
aI0
aI0
aI0
aS'timeAfterLastHit'
p44
aaa(lp45
(lp46
F0.46785272103307
aI38
aI118
aI3
aS'on'
p47
aa(lp48
F0.51662987817372
aI38
aI0
aI3
aS'off'
p49
aa(lp50
F3.4750702453798
aI38
aI118
aI3
aS'on'
p51
aa(lp52
F1.5304471554132
aI38
aI0
aI3
aS'off'
p53
aa(lp54
F0.010000000000218
aI0
aI0
aI0
aS'timeAfterLastHit'
p55
aaaI0
aI0
aI0
aI0
aI0
a(lp56
(lp57
F0.014832466840744
aI67
aI66
aI0
aS'on'
p58
aa(lp59
F0.013913869857788
aI62
aI52
aI0
aS'on'
p60
aa(lp61
F0.016811100772429
aI67
aI0
aI0
aS'off'
p62
aa(lp63
F0.00021998017109581
aI62
aI0
aI0
aS'off'
p64
aa(lp65
F0.43989559138845
aI67
aI70
aI0
aS'on'
p66
aa(lp67
F0.00024274884162878
aI62
aI65
aI0
aS'on'
p68
aa(lp69
F0.095324874589096
aI67
aI0
aI0
aS'off'
p70
aa(lp71
F0.011423665227085
aI62
aI0
aI0
aS'off'
p72
aa(lp73
F0.93008304143132
aI65
aI71
aI0
aS'on'
p74
aa(lp75
F0.00027249030245002
aI60
aI47
aI0
aS'on'
p76
aa(lp77
F0.16435200587875
aI60
aI0
aI0
aS'off'
p78
aa(lp79
F0.012022393293591
aI65
aI0
aI0
aS'off'
p80
aa(lp81
F0.33307050126041
aI60
aI50
aI0
aS'on'
p82
aa(lp83
F0.011624417812527
aI65
aI73
aI0
aS'on'
p84
aa(lp85
F0.14341750120457
aI60
aI0
aI0
aS'off'
p86
aa(lp87
F0.048100923324455
aI65
aI0
aI0
aS'off'
p88
aa(lp89
F0.82397865536495
aI58
aI53
aI0
aS'on'
p90
aa(lp91
F0.011256142776801
aI63
aI66
aI0
aS'on'
p92
aa(lp93
F0.14338113786926
aI63
aI0
aI0
aS'off'
p94
aa(lp95
F0.011533876345311
aI58
aI0
aI0
aS'off'
p96
aa(lp97
F0.36812748091324
aI58
aI67
aI0
aS'on'
p98
aa(lp99
F0.011445255813669
aI63
aI72
aI0
aS'on'
p100
aa(lp101
F0.14308612499553
aI63
aI0
aI0
aS'off'
p102
aa(lp103
F0.011824012823126
aI58
aI0
aI0
aS'off'
p104
aa(lp105
F0.83501957587669
aI62
aI82
aI0
aS'on'
p106
aa(lp107
F0.00013306865730556
aI56
aI52
aI0
aS'on'
p108
aa(lp109
F0.095743406131078
aI56
aI0
aI0
aS'off'
p110
aa(lp111
F0.048040788697108
aI62
aI0
aI0
aS'off'
p112
aa(lp113
F0.39486497947109
aI55
aI65
aI0
aS'on'
p114
aa(lp115
F0.0098971389215876
aI60
aI92
aI0
aS'on'
p116
aa(lp117
F0.16675434667104
aI55
aI0
aI0
aS'off'
p118
aa(lp119
F0.024934218522503
aI60
aI0
aI0
aS'off'
p120
aa(lp121
F0.75087562450881
aI56
aI33
aI0
aS'on'
p122
aa(lp123
F0.011462886037407
aI62
aI70
aI0
aS'on'
p124
aa(lp125
F0.072717134712548
aI56
aI0
aI0
aS'off'
p126
aa(lp127
F0.035189948046536
aI62
aI0
aI0
aS'off'
p128
aa(lp129
F0.44066407046193
aI63
aI89
aI0
aS'on'
p130
aa(lp131
F0.00011490977794892
aI58
aI62
aI0
aS'on'
p132
aa(lp133
F0.094775400406434
aI58
aI0
aI0
aS'off'
p134
aa(lp135
F0.048589809420264
aI63
aI0
aI0
aS'off'
p136
aa(lp137
F0.79590854929484
aI56
aI7
aI0
aS'on'
p138
aa(lp139
F0.011707075011145
aI62
aI65
aI0
aS'on'
p140
aa(lp141
F0.047883798351904
aI56
aI0
aI0
aS'off'
p142
aa(lp143
F0.037499117763218
aI62
aI0
aI0
aS'off'
p144
aa(lp145
F0.438898591613
aI60
aI89
aI0
aS'on'
p146
aa(lp147
F0.00012322015845712
aI55
aI71
aI0
aS'on'
p148
aa(lp149
F0.14289366000503
aI60
aI0
aI0
aS'off'
p150
aa(lp151
F0.036084502478843
aI55
aI0
aI0
aS'off'
p152
aa(lp153
F0.66604946982625
aI56
aI17
aI0
aS'on'
p154
aa(lp155
F0.011583061868805
aI62
aI61
aI0
aS'on'
p156
aa(lp157
F0.071322223259813
aI56
aI0
aI0
aS'off'
p158
aa(lp159
F0.023835352190872
aI62
aI0
aI0
aS'off'
p160
aa(lp161
F0.51611014831906
aI63
aI73
aI0
aS'on'
p162
aa(lp163
F0.00016582026910328
aI58
aI45
aI0
aS'on'
p164
aa(lp165
F0.09415810329574
aI63
aI0
aI0
aS'off'
p166
aa(lp167
F0.0001268273254027
aI58
aI0
aI0
aS'off'
p168
aa(lp169
F0.8915941655705
aI56
aI35
aI0
aS'on'
p170
aa(lp171
F0.010968788580612
aI62
aI66
aI0
aS'on'
p172
aa(lp173
F0.047812304453146
aI56
aI0
aI0
aS'off'
p174
aa(lp175
F0.036385592618899
aI62
aI0
aI0
aS'off'
p176
aa(lp177
F0.40569955321371
aI60
aI89
aI0
aS'on'
p178
aa(lp179
F0.00022373089450411
aI55
aI60
aI0
aS'on'
p180
aa(lp181
F0.094274464599948
aI55
aI0
aI0
aS'off'
p182
aa(lp183
F0.047769649657312
aI60
aI0
aI0
aS'off'
p184
aa(lp185
F0.75053492390089
aI56
aI42
aI0
aS'on'
p186
aa(lp187
F0.010813338630214
aI62
aI71
aI0
aS'on'
p188
aa(lp189
F0.083084052912454
aI56
aI0
aI0
aS'off'
p190
aa(lp191
F0.011519835057697
aI62
aI0
aI0
aS'off'
p192
aa(lp193
F0.92495251346008
aI0
aI0
aI0
aS'timeAfterLastHit'
p194
aaaI0
aI0
aI0
aI0
a(lp195
(lp196
F0.017504188183921
aI75
aI99
aI1
aS'on'
p197
aa(lp198
F10.067422579565
aI74
aI80
aI1
aS'on'
p199
aa(lp200
F0.064917689352114
aI75
aI0
aI1
aS'off'
p201
aa(lp202
F9.5862558892895
aI74
aI0
aI1
aS'off'
p203
aa(lp204
F0.24513131845379
aI70
aI80
aI1
aS'on'
p205
aa(lp206
F1.8279867239717
aI70
aI0
aI1
aS'off'
p207
aa(lp208
F0.032075822438856
aI72
aI65
aI1
aS'on'
p209
aa(lp210
F20.148705788745
aI72
aI0
aI1
aS'off'
p211
aa(lp212
F0.010000000000218
aI0
aI0
aI0
aS'timeAfterLastHit'
p213
aaaI0
aI0
aI0
aI0
aI0
aI0
aI0
aI0
aI0
aI0
a(lp214
(lp215
F0.020744218751133
aI36
aI94
aI2
aS'on'
p216
aa(lp217
F0.48541431308695
aI38
aI67
aI2
aS'on'
p218
aa(lp219
F0.43889472043884
aI39
aI65
aI2
aS'on'
p220
aa(lp221
F0.13220056327373
aI38
aI0
aI2
aS'off'
p222
aa(lp223
F0.39983480405954
aI39
aI0
aI2
aS'off'
p224
aa(lp225
F0.49598892778067
aI38
aI87
aI2
aS'on'
p226
aa(lp227
F0.48595741123609
aI38
aI0
aI2
aS'off'
p228
aa(lp229
F0.52352033384886
aI43
aI104
aI2
aS'on'
p230
aa(lp231
F0.02863457150761
aI36
aI0
aI2
aS'off'
p232
aa(lp233
F0.4574541407228
aI41
aI89
aI2
aS'on'
p234
aa(lp235
F0.4282299338447
aI46
aI73
aI2
aS'on'
p236
aa(lp237
F0.095602148593571
aI43
aI0
aI2
aS'off'
p238
aa(lp239
F0.01840528496723
aI41
aI0
aI2
aS'off'
p240
aa(lp241
F0.40049521854598
aI48
aI99
aI2
aS'on'
p242
aa(lp243
F0.27705164698909
aI46
aI0
aI2
aS'off'
p244
aa(lp245
F0.17085696768027
aI48
aI0
aI2
aS'off'
p246
aa(lp247
F0.14071479467293
aI0
aI0
aI0
aS'timeAfterLastHit'
p248
aaa(lp249
(lp250
F1.82894469859
aI56
aI118
aI2
aS'on'
p251
aa(lp252
F0.29066187075932
aI56
aI0
aI2
aS'off'
p253
aa(lp254
F0.74935509406805
aI58
aI120
aI2
aS'on'
p255
aa(lp256
F0.25784093241873
aI58
aI0
aI2
aS'off'
p257
aa(lp258
F0.85015599256167
aI60
aI118
aI2
aS'on'
p259
aa(lp260
F0.25648606806772
aI60
aI0
aI2
aS'off'
p261
aa(lp262
F0.73309147902091
aI65
aI120
aI2
aS'on'
p263
aa(lp264
F0.25679436868631
aI65
aI0
aI2
aS'off'
p265
aa(lp266
F0.77666949582726
aI0
aI0
aI0
aS'timeAfterLastHit'
p267
aaaI0
aI0
aI0
aI0
aI0
aI0
aI0
aI0
aI0
a(lp268
(lp269
F0.048768087979624
aI87
aI70
aI0
aS'on'
p270
aa(lp271
F0.11828090437939
aI87
aI0
aI0
aS'off'
p272
aa(lp273
F0.36409440347688
aI86
aI70
aI0
aS'on'
p274
aa(lp275
F0.090770070120925
aI86
aI0
aI0
aS'off'
p276
aa(lp277
F0.35517701416848
aI84
aI64
aI0
aS'on'
p278
aa(lp279
F0.11846812641488
aI84
aI0
aI0
aS'off'
p280
aa(lp281
F0.38273667834528
aI87
aI50
aI0
aS'on'
p282
aa(lp283
F0.091447962245184
aI87
aI0
aI0
aS'off'
p284
aa(lp285
F0.40896656486893
aI86
aI56
aI0
aS'on'
p286
aa(lp287
F0.09985490892268
aI86
aI0
aI0
aS'off'
p288
aa(lp289
F0.40048554698751
aI84
aI43
aI0
aS'on'
p290
aa(lp291
F0.1187316092437
aI84
aI0
aI0
aS'off'
p292
aa(lp293
F0.41043189131142
aI87
aI63
aI0
aS'on'
p294
aa(lp295
F0.12701585179002
aI87
aI0
aI0
aS'off'
p296
aa(lp297
F0.40006605596409
aI86
aI59
aI0
aS'on'
p298
aa(lp299
F0.072786601695043
aI86
aI0
aI0
aS'off'
p300
aa(lp301
F0.37340587691051
aI84
aI75
aI0
aS'on'
p302
aa(lp303
F0.14606526637817
aI84
aI0
aI0
aS'off'
p304
aa(lp305
F0.37356977878062
aI87
aI63
aI0
aS'on'
p306
aa(lp307
F0.11835866789988
aI87
aI0
aI0
aS'off'
p308
aa(lp309
F0.38301852164295
aI86
aI68
aI0
aS'on'
p310
aa(lp311
F0.13686135823355
aI86
aI0
aI0
aS'off'
p312
aa(lp313
F0.3660730071615
aI84
aI61
aI0
aS'on'
p314
aa(lp315
F0.16105502490427
aI84
aI0
aI0
aS'off'
p316
aa(lp317
F0.3378226131772
aI87
aI65
aI0
aS'on'
p318
aa(lp319
F0.13633769613261
aI87
aI0
aI0
aS'off'
p320
aa(lp321
F0.35588183683831
aI86
aI80
aI0
aS'on'
p322
aa(lp323
F0.091151628612351
aI86
aI0
aI0
aS'off'
p324
aa(lp325
F0.40983464961846
aI84
aI57
aI0
aS'on'
p326
aa(lp327
F0.14619589207905
aI84
aI0
aI0
aS'off'
p328
aa(lp329
F0.85628590371653
aI0
aI0
aI0
aS'timeAfterLastHit'
p330
aaaI0
aI0
aI0
aI0
aI0
aI0
aI0
aI0
aI0
aI0
aI0
aI0
aI0
aI0
aI0
aI0
aI0
aI0
aI0
aI0
aI0
aI0
aI0
aI0
aI0
aI0
aI0
aI0
aI0
aI0
aI0
aI0
aI0
aI0
aI0
aI0
aI0
aI0
aI0
aI0
aI0
aI0
aI0
aI0
aI0
aI0
aI0
aI0
aI0
aI0
aI0
aI0
aI0
aI0
aI0
aa(lp331
(dp332
a(dp333
a(dp334
S'button'
p335
I32
sS'playing'
p336
I1
sa(dp337
a(dp338
a(dp339
a(dp340
a(dp341
a(dp342
a(dp343
a(dp344
g335
I42
sg336
I1
sa(dp345
g335
I43
sg336
I1
sa(dp346
a(dp347
a(dp348
a(dp349
a(dp350
a(dp351
g335
I51
sg336
I1
sa(dp352
a(dp353
a(dp354
a(dp355
a(dp356
g335
I56
sg336
I01
sa(dp357
a(dp358
a(dp359
a(dp360
a(dp361
a(dp362
a(dp363
a(dp364
a(dp365
a(dp366
a(dp367
g335
I71
sg336
I1
sa(dp368
g335
I72
sg336
I0
sa(dp369
a(dp370
a(dp371
a(dp372
a(dp373
a(dp374
a(dp375
a(dp376
a(dp377
a(dp378
g335
I84
sg336
I1
sa(dp379
a(dp380
a(dp381
a(dp382
a(dp383
a(dp384
a(dp385
a(dp386
a(dp387
a(dp388
a(dp389
a(dp390
a(dp391
a(dp392
a(dp393
a(dp394
a(dp395
a(dp396
a(dp397
a(dp398
a(dp399
a(dp400
a(dp401
a(dp402
a(dp403
a(dp404
a(dp405
a(dp406
a(dp407
a(dp408
a(dp409
a(dp410
a(dp411
a(dp412
a(dp413
a(dp414
a(dp415
a(dp416
a(dp417
a(dp418
a(dp419
a(dp420
a(dp421
a(dp422
a(dp423
a(dp424
a(dp425
a(dp426
a(dp427
a(dp428
a(dp429
a(dp430
a(dp431
a(dp432
a(dp433
aa(lp434
I60
aI60
aI36
aI36
aa(lp435
(lp436
I0
aI2
aI3
aI5
aI7
aI8
aI10
aa(lp437
I0
aI2
aI3
aI5
aI7
aI8
aI10
aa(lp438
I0
aI2
aI3
aI5
aI7
aI8
aI10
aa(lp439
I0
aI2
aI3
aI5
aI7
aI8
aI10
aa(lp440
I0
aI2
aI3
aI5
aI7
aI8
aI10
aa(lp441
I0
aI1
aI2
aI3
aI4
aI5
aI6
aI7
aI8
aI9
aI10
aI11
aaa(lp442
(lp443
(lp444
I0
aI0
aI0
aI0
aI0
aI0
aI0
aI0
aI0
aI0
aI0
aI0
aa(lp445
I0
aI0
aI0
aI0
aI0
aI0
aI0
aI0
aI0
aI0
aI0
aI0
aa(lp446
I0
aI0
aI0
aI0
aI0
aI0
aI0
aI0
aI0
aI0
aI0
aI0
aa(lp447
I0
aI0
aI0
aI0
aI0
aI0
aI0
aI0
aI0
aI0
aI0
aI0
aaa(lp448
(lp449
I0
aI0
aI0
aI0
aI0
aI0
aI0
aI0
aI0
aI0
aI0
aI0
aa(lp450
I0
aI0
aI0
aI0
aI0
aI0
aI0
aI0
aI0
aI0
aI0
aI0
aa(lp451
I0
aI0
aI0
aI0
aI0
aI0
aI0
aI0
aI0
aI0
aI0
aI0
aa(lp452
I0
aI0
aI0
aI0
aI0
aI0
aI0
aI0
aI0
aI0
aI0
aI0
aaa(lp453
(lp454
I0
aI0
aI0
aI0
aI0
aI0
aI0
aI0
aI0
aI0
aI0
aI0
aa(lp455
I0
aI0
aI0
aI0
aI0
aI0
aI0
aI0
aI0
aI0
aI0
aI0
aa(lp456
I0
aI0
aI0
aI0
aI0
aI0
aI0
aI0
aI0
aI0
aI0
aI0
aa(lp457
I0
aI0
aI0
aI0
aI0
aI0
aI0
aI0
aI0
aI0
aI0
aI0
aaa(lp458
(lp459
I0
aI0
aI0
aI0
aI0
aI0
aI0
aI0
aI0
aI0
aI0
aI0
aa(lp460
I0
aI0
aI0
aI0
aI0
aI0
aI0
aI0
aI0
aI0
aI0
aI0
aa(lp461
I0
aI0
aI0
aI0
aI0
aI0
aI0
aI0
aI0
aI0
aI0
aI0
aa(lp462
I0
aI0
aI0
aI0
aI0
aI0
aI0
aI0
aI0
aI0
aI0
aI0
aaaa(lp463
(lp464
I0
aI0
aI0
aI0
aI0
aI0
aI0
aI0
aI0
aI0
aI0
aI0
aa(lp465
I0
aI0
aI0
aI0
aI0
aI0
aI0
aI0
aI0
aI0
aI0
aI0
aa(lp466
I0
aI0
aI0
aI0
aI0
aI0
aI0
aI0
aI0
aI0
aI0
aI0
aa(lp467
I0
aI0
aI0
aI0
aI0
aI0
aI0
aI0
aI0
aI0
aI0
aI0
aaaaI0
aI0
aI0
aI0
aI0
aI0
aI0
aI0
aI0
aI0
aI0
aI0
aI0
aI0
aI0
aI0
aI0
aI0
aI0
aI0
aI0
aI0
aI0
aI0
aI0
aI0
aI0
aI0
aI0
aI0
a.