(lp0
I0
a(lp1
(lp2
I0
aI0
a(lp3
(lp4
F0.5
aI42
aI94
aI3
aS'on'
p5
aa(lp6
F0.074929492463525
aI42
aI0
aI3
aS'off'
p7
aa(lp8
F0.92507050753647
aI42
aI106
aI3
aS'on'
p9
aa(lp10
F0.10442552996483
aI42
aI0
aI3
aS'off'
p11
aa(lp12
F2.3955744700352
aI42
aI92
aI3
aS'on'
p13
aa(lp14
F0.075309503296012
aI42
aI0
aI3
aS'off'
p15
aa(lp16
F0.92469049670399
aI42
aI101
aI3
aS'on'
p17
aa(lp18
F0.073557600124332
aI42
aI0
aI3
aS'off'
p19
aa(lp20
F0.92644239987567
aI0
aI0
aI0
aS'timeAfterLastHit'
p21
aaaI0
aI0
aI0
aI0
aI0
aI0
aI0
a(lp22
(lp23
F0.0
aI36
aI118
aI3
aS'on'
p24
aa(lp25
F0.16243361854322
aI36
aI0
aI3
aS'off'
p26
aa(lp27
F1.3375663814568
aI36
aI118
aI3
aS'on'
p28
aa(lp29
F0.10232664180876
aI36
aI0
aI3
aS'off'
p30
aa(lp31
F1.3976733581912
aI36
aI118
aI3
aS'on'
p32
aa(lp33
F0.11707205950734
aI36
aI0
aI3
aS'off'
p34
aa(lp35
F0.88292794049266
aI36
aI115
aI3
aS'on'
p36
aa(lp37
F0.14899176432937
aI36
aI0
aI3
aS'off'
p38
aa(lp39
F0.85100823567063
aI36
aI118
aI3
aS'on'
p40
aa(lp41
F0.13280497978576
aI36
aI0
aI3
aS'off'
p42
aa(lp43
F0.86719502021424
aI0
aI0
aI0
aS'timeAfterLastHit'
p44
aaa(lp45
(lp46
F0.46785272103307
aI38
aI118
aI3
aS'on'
p47
aa(lp48
F0.51662987817372
aI38
aI0
aI3
aS'off'
p49
aa(lp50
F3.4750702453798
aI38
aI118
aI3
aS'on'
p51
aa(lp52
F1.5304471554132
aI38
aI0
aI3
aS'off'
p53
aa(lp54
F0.010000000000218
aI0
aI0
aI0
aS'timeAfterLastHit'
p55
aaaI0
aI0
aI0
aI0
aI0
a(lp56
(lp57
F0.014832466840744
aI67
aI66
aI0
aS'on'
p58
aa(lp59
F0.013913869857788
aI62
aI52
aI0
aS'on'
p60
aa(lp61
F0.016811100772429
aI67
aI0
aI0
aS'off'
p62
aa(lp63
F0.00021998017109581
aI62
aI0
aI0
aS'off'
p64
aa(lp65
F0.43989559138845
aI67
aI70
aI0
aS'on'
p66
aa(lp67
F0.00024274884162878
aI62
aI65
aI0
aS'on'
p68
aa(lp69
F0.095324874589096
aI67
aI0
aI0
aS'off'
p70
aa(lp71
F0.011423665227085
aI62
aI0
aI0
aS'off'
p72
aa(lp73
F0.93008304143132
aI65
aI71
aI0
aS'on'
p74
aa(lp75
F0.00027249030245002
aI60
aI47
aI0
aS'on'
p76
aa(lp77
F0.16435200587875
aI60
aI0
aI0
aS'off'
p78
aa(lp79
F0.012022393293591
aI65
aI0
aI0
aS'off'
p80
aa(lp81
F0.33307050126041
aI60
aI50
aI0
aS'on'
p82
aa(lp83
F0.011624417812527
aI65
aI73
aI0
aS'on'
p84
aa(lp85
F0.14341750120457
aI60
aI0
aI0
aS'off'
p86
aa(lp87
F0.048100923324455
aI65
aI0
aI0
aS'off'
p88
aa(lp89
F0.82397865536495
aI58
aI53
aI0
aS'on'
p90
aa(lp91
F0.011256142776801
aI63
aI66
aI0
aS'on'
p92
aa(lp93
F0.14338113786926
aI63
aI0
aI0
aS'off'
p94
aa(lp95
F0.011533876345311
aI58
aI0
aI0
aS'off'
p96
aa(lp97
F0.36812748091324
aI58
aI67
aI0
aS'on'
p98
aa(lp99
F0.011445255813669
aI63
aI72
aI0
aS'on'
p100
aa(lp101
F0.14308612499553
aI63
aI0
aI0
aS'off'
p102
aa(lp103
F0.011824012823126
aI58
aI0
aI0
aS'off'
p104
aa(lp105
F0.83501957587669
aI62
aI82
aI0
aS'on'
p106
aa(lp107
F0.00013306865730556
aI56
aI52
aI0
aS'on'
p108
aa(lp109
F0.095743406131078
aI56
aI0
aI0
aS'off'
p110
aa(lp111
F0.048040788697108
aI62
aI0
aI0
aS'off'
p112
aa(lp113
F0.39486497947109
aI55
aI65
aI0
aS'on'
p114
aa(lp115
F0.0098971389215876
aI60
aI92
aI0
aS'on'
p116
aa(lp117
F0.16675434667104
aI55
aI0
aI0
aS'off'
p118
aa(lp119
F0.024934218522503
aI60
aI0
aI0
aS'off'
p120
aa(lp121
F0.75087562450881
aI56
aI33
aI0
aS'on'
p122
aa(lp123
F0.011462886037407
aI62
aI70
aI0
aS'on'
p124
aa(lp125
F0.072717134712548
aI56
aI0
aI0
aS'off'
p126
aa(lp127
F0.035189948046536
aI62
aI0
aI0
aS'off'
p128
aa(lp129
F0.44066407046193
aI63
aI89
aI0
aS'on'
p130
aa(lp131
F0.00011490977794892
aI58
aI62
aI0
aS'on'
p132
aa(lp133
F0.094775400406434
aI58
aI0
aI0
aS'off'
p134
aa(lp135
F0.048589809420264
aI63
aI0
aI0
aS'off'
p136
aa(lp137
F0.79590854929484
aI56
aI7
aI0
aS'on'
p138
aa(lp139
F0.011707075011145
aI62
aI65
aI0
aS'on'
p140
aa(lp141
F0.047883798351904
aI56
aI0
aI0
aS'off'
p142
aa(lp143
F0.037499117763218
aI62
aI0
aI0
aS'off'
p144
aa(lp145
F0.438898591613
aI60
aI89
aI0
aS'on'
p146
aa(lp147
F0.00012322015845712
aI55
aI71
aI0
aS'on'
p148
aa(lp149
F0.14289366000503
aI60
aI0
aI0
aS'off'
p150
aa(lp151
F0.036084502478843
aI55
aI0
aI0
aS'off'
p152
aa(lp153
F0.66604946982625
aI56
aI17
aI0
aS'on'
p154
aa(lp155
F0.011583061868805
aI62
aI61
aI0
aS'on'
p156
aa(lp157
F0.071322223259813
aI56
aI0
aI0
aS'off'
p158
aa(lp159
F0.023835352190872
aI62
aI0
aI0
aS'off'
p160
aa(lp161
F0.51611014831906
aI63
aI73
aI0
aS'on'
p162
aa(lp163
F0.00016582026910328
aI58
aI45
aI0
aS'on'
p164
aa(lp165
F0.09415810329574
aI63
aI0
aI0
aS'off'
p166
aa(lp167
F0.0001268273254027
aI58
aI0
aI0
aS'off'
p168
aa(lp169
F0.8915941655705
aI56
aI35
aI0
aS'on'
p170
aa(lp171
F0.010968788580612
aI62
aI66
aI0
aS'on'
p172
aa(lp173
F0.047812304453146
aI56
aI0
aI0
aS'off'
p174
aa(lp175
F0.036385592618899
aI62
aI0
aI0
aS'off'
p176
aa(lp177
F0.40569955321371
aI60
aI89
aI0
aS'on'
p178
aa(lp179
F0.00022373089450411
aI55
aI60
aI0
aS'on'
p180
aa(lp181
F0.094274464599948
aI55
aI0
aI0
aS'off'
p182
aa(lp183
F0.047769649657312
aI60
aI0
aI0
aS'off'
p184
aa(lp185
F0.75053492390089
aI56
aI42
aI0
aS'on'
p186
aa(lp187
F0.010813338630214
aI62
aI71
aI0
aS'on'
p188
aa(lp189
F0.083084052912454
aI56
aI0
aI0
aS'off'
p190
aa(lp191
F0.011519835057697
aI62
aI0
aI0
aS'off'
p192
aa(lp193
F0.92495251346008
aI0
aI0
aI0
aS'timeAfterLastHit'
p194
aaaI0
aI0
aI0
aI0
a(lp195
(lp196
F0.017504188183921
aI75
aI99
aI1
aS'on'
p197
aa(lp198
F10.067422579565
aI74
aI80
aI1
aS'on'
p199
aa(lp200
F0.064917689352114
aI75
aI0
aI1
aS'off'
p201
aa(lp202
F9.5862558892895
aI74
aI0
aI1
aS'off'
p203
aa(lp204
F0.24513131845379
aI70
aI80
aI1
aS'on'
p205
aa(lp206
F1.8279867239717
aI70
aI0
aI1
aS'off'
p207
aa(lp208
F0.032075822438856
aI72
aI65
aI1
aS'on'
p209
aa(lp210
F20.148705788745
aI72
aI0
aI1
aS'off'
p211
aa(lp212
F0.010000000000218
aI0
aI0
aI0
aS'timeAfterLastHit'
p213
aaaI0
aI0
aI0
aI0
aI0
aI0
aI0
aI0
aI0
aI0
a(lp214
(lp215
F0.020744218751133
aI36
aI94
aI2
aS'on'
p216
aa(lp217
F0.48541431308695
aI38
aI67
aI2
aS'on'
p218
aa(lp219
F0.43889472043884
aI39
aI65
aI2
aS'on'
p220
aa(lp221
F0.13220056327373
aI38
aI0
aI2
aS'off'
p222
aa(lp223
F0.39983480405954
aI39
aI0
aI2
aS'off'
p224
aa(lp225
F0.49598892778067
aI38
aI87
aI2
aS'on'
p226
aa(lp227
F0.48595741123609
aI38
aI0
aI2
aS'off'
p228
aa(lp229
F0.52352033384886
aI43
aI104
aI2
aS'on'
p230
aa(lp231
F0.02863457150761
aI36
aI0
aI2
aS'off'
p232
aa(lp233
F0.4574541407228
aI41
aI89
aI2
aS'on'
p234
aa(lp235
F0.4282299338447
aI46
aI73
aI2
aS'on'
p236
aa(lp237
F0.095602148593571
aI43
aI0
aI2
aS'off'
p238
aa(lp239
F0.01840528496723
aI41
aI0
aI2
aS'off'
p240
aa(lp241
F0.40049521854598
aI48
aI99
aI2
aS'on'
p242
aa(lp243
F0.27705164698909
aI46
aI0
aI2
aS'off'
p244
aa(lp245
F0.17085696768027
aI48
aI0
aI2
aS'off'
p246
aa(lp247
F0.14071479467293
aI0
aI0
aI0
aS'timeAfterLastHit'
p248
aaa(lp249
(lp250
F1.82894469859
aI56
aI118
aI2
aS'on'
p251
aa(lp252
F0.29066187075932
aI56
aI0
aI2
aS'off'
p253
aa(lp254
F0.74935509406805
aI58
aI120
aI2
aS'on'
p255
aa(lp256
F0.25784093241873
aI58
aI0
aI2
aS'off'
p257
aa(lp258
F0.85015599256167
aI60
aI118
aI2
aS'on'
p259
aa(lp260
F0.25648606806772
aI60
aI0
aI2
aS'off'
p261
aa(lp262
F0.73309147902091
aI65
aI120
aI2
aS'on'
p263
aa(lp264
F0.25679436868631
aI65
aI0
aI2
aS'off'
p265
aa(lp266
F0.77666949582726
aI0
aI0
aI0
aS'timeAfterLastHit'
p267
aaaI0
aI0
aI0
aI0
aI0
aI0
aI0
aI0
aI0
a(lp268
(lp269
F0.048768087979624
aI87
aI70
aI0
aS'on'
p270
aa(lp271
F0.11828090437939
aI87
aI0
aI0
aS'off'
p272
aa(lp273
F0.36409440347688
aI86
aI70
aI0
aS'on'
p274
aa(lp275
F0.090770070120925
aI86
aI0
aI0
aS'off'
p276
aa(lp277
F0.35517701416848
aI84
aI64
aI0
aS'on'
p278
aa(lp279
F0.11846812641488
aI84
aI0
aI0
aS'off'
p280
aa(lp281
F0.38273667834528
aI87
aI50
aI0
aS'on'
p282
aa(lp283
F0.091447962245184
aI87
aI0
aI0
aS'off'
p284
aa(lp285
F0.40896656486893
aI86
aI56
aI0
aS'on'
p286
aa(lp287
F0.09985490892268
aI86
aI0
aI0
aS'off'
p288
aa(lp289
F0.40048554698751
aI84
aI43
aI0
aS'on'
p290
aa(lp291
F0.1187316092437
aI84
aI0
aI0
aS'off'
p292
aa(lp293
F0.41043189131142
aI87
aI63
aI0
aS'on'
p294
aa(lp295
F0.12701585179002
aI87
aI0
aI0
aS'off'
p296
aa(lp297
F0.40006605596409
aI86
aI59
aI0
aS'on'
p298
aa(lp299
F0.072786601695043
aI86
aI0
aI0
aS'off'
p300
aa(lp301
F0.37340587691051
aI84
aI75
aI0
aS'on'
p302
aa(lp303
F0.14606526637817
aI84
aI0
aI0
aS'off'
p304
aa(lp305
F0.37356977878062
aI87
aI63
aI0
aS'on'
p306
aa(lp307
F0.11835866789988
aI87
aI0
aI0
aS'off'
p308
aa(lp309
F0.38301852164295
aI86
aI68
aI0
aS'on'
p310
aa(lp311
F0.13686135823355
aI86
aI0
aI0
aS'off'
p312
aa(lp313
F0.3660730071615
aI84
aI61
aI0
aS'on'
p314
aa(lp315
F0.16105502490427
aI84
aI0
aI0
aS'off'
p316
aa(lp317
F0.3378226131772
aI87
aI65
aI0
aS'on'
p318
aa(lp319
F0.13633769613261
aI87
aI0
aI0
aS'off'
p320
aa(lp321
F0.35588183683831
aI86
aI80
aI0
aS'on'
p322
aa(lp323
F0.091151628612351
aI86
aI0
aI0
aS'off'
p324
aa(lp325
F0.40983464961846
aI84
aI57
aI0
aS'on'
p326
aa(lp327
F0.14619589207905
aI84
aI0
aI0
aS'off'
p328
aa(lp329
F0.85628590371653
aI0
aI0
aI0
aS'timeAfterLastHit'
p330
aaaI0
aI0
aI0
aI0
aI0
aI0
aI0
aI0
aI0
aI0
aI0
aI0
aI0
aI0
aI0
aI0
aI0
aI0
aI0
aI0
aI0
aI0
aI0
aI0
aI0
aI0
aI0
aI0
aI0
aI0
aI0
aI0
aI0
aI0
aI0
aI0
aI0
aI0
aI0
aI0
aI0
aI0
aI0
aI0
aI0
aI0
aI0
aI0
aI0
aI0
aI0
aI0
aI0
aI0
aI0
aa(lp331
(dp332
a(dp333
a(dp334
S'button'
p335
I32
sS'playing'
p336
I1
sa(dp337
a(dp338
a(dp339
a(dp340
a(dp341
a(dp342
a(dp343
a(dp344
g335
I42
sg336
I1
sa(dp345
g335
I43
sg336
I1
sa(dp346
a(dp347
a(dp348
a(dp349
a(dp350
a(dp351
g335
I51
sg336
I1
sa(dp352
a(dp353
a(dp354
a(dp355
a(dp356
g335
I56
sg336
I01
sa(dp357
a(dp358
a(dp359
a(dp360
a(dp361
a(dp362
a(dp363
a(dp364
a(dp365
a(dp366
a(dp367
g335
I71
sg336
I1
sa(dp368
g335
I72
sg336
I0
sa(dp369
a(dp370
a(dp371
a(dp372
a(dp373
a(dp374
a(dp375
a(dp376
a(dp377
a(dp378
g335
I84
sg336
I1
sa(dp379
a(dp380
a(dp381
a(dp382
a(dp383
a(dp384
a(dp385
a(dp386
a(dp387
a(dp388
a(dp389
a(dp390
a(dp391
a(dp392
a(dp393
a(dp394
a(dp395
a(dp396
a(dp397
a(dp398
a(dp399
a(dp400
a(dp401
a(dp402
a(dp403
a(dp404
a(dp405
a(dp406
a(dp407
a(dp408
a(dp409
a(dp410
a(dp411
a(dp412
a(dp413
a(dp414
a(dp415
a(dp416
a(dp417
a(dp418
a(dp419
a(dp420
a(dp421
a(dp422
a(dp423
a(dp424
a(dp425
a(dp426
a(dp427
a(dp428
a(dp429
a(dp430
a(dp431
a(dp432
a(dp433
aa(lp434
I60
aI60
aI36
aI36
aa(lp435
(lp436
I0
aI2
aI3
aI5
aI7
aI8
aI10
aa(lp437
I0
aI2
aI3
aI5
aI7
aI8
aI10
aa(lp438
I0
aI2
aI3
aI5
aI7
aI8
aI10
aa(lp439
I0
aI2
aI3
aI5
aI7
aI8
aI10
aa(lp440
I0
aI2
aI3
aI5
aI7
aI8
aI10
aa(lp441
I0
aI1
aI2
aI3
aI4
aI5
aI6
aI7
aI8
aI9
aI10
aI11
aaa(lp442
(lp443
(lp444
I0
aI0
aI0
aI0
aI0
aI0
aI0
aI0
aI0
aI0
aI0
aI0
aa(lp445
I0
aI0
aI0
aI0
aI0
aI0
aI0
aI0
aI0
aI0
aI0
aI0
aa(lp446
I0
aI0
aI0
aI0
aI0
aI0
aI0
aI0
aI0
aI0
aI0
aI0
aa(lp447
I0
aI0
aI0
aI0
aI0
aI0
aI0
aI0
aI0
aI0
aI0
aI0
aaa(lp448
(lp449
I0
aI0
aI0
aI0
aI0
aI0
aI0
aI0
aI0
aI0
aI0
aI0
aa(lp450
I0
aI0
aI0
aI0
aI0
aI0
aI0
aI0
aI0
aI0
aI0
aI0
aa(lp451
I0
aI0
aI0
aI0
aI0
aI0
aI0
aI0
aI0
aI0
aI0
aI0
aa(lp452
I0
aI0
aI0
aI0
aI0
aI0
aI0
aI0
aI0
aI0
aI0
aI0
aaa(lp453
(lp454
I0
aI0
aI0
aI0
aI0
aI0
aI0
aI0
aI0
aI0
aI0
aI0
aa(lp455
I0
aI0
aI0
aI0
aI0
aI0
aI0
aI0
aI0
aI0
aI0
aI0
aa(lp456
I0
aI0
aI0
aI0
aI0
aI0
aI0
aI0
aI0
aI0
aI0
aI0
aa(lp457
I0
aI0
aI0
aI0
aI0
aI0
aI0
aI0
aI0
aI0
aI0
aI0
aaa(lp458
(lp459
I0
aI0
aI0
aI0
aI0
aI0
aI0
aI0
aI0
aI0
aI0
aI0
aa(lp460
I0
aI0
aI0
aI0
aI0
aI0
aI0
aI0
aI0
aI0
aI0
aI0
aa(lp461
I0
aI0
aI0
aI0
aI0
aI0
aI0
aI0
aI0
aI0
aI0
aI0
aa(lp462
I0
aI0
aI0
aI0
aI0
aI0
aI0
aI0
aI0
aI0
aI0
aI0
aaaa(lp463
(lp464
I0
aI0
aI0
aI0
aI0
aI0
aI0
aI0
aI0
aI0
aI0
aI0
aa(lp465
I0
aI0
aI0
aI0
aI0
aI0
aI0
aI0
aI0
aI0
aI0
aI0
aa(lp466
I0
aI0
aI0
aI0
aI0
aI0
aI0
aI0
aI0
aI0
aI0
aI0
aa(lp467
I0
aI0
aI0
aI0
aI0
aI0
aI0
aI0
aI0
aI0
aI0
aI0
aaaa(lp468
(lp469
I0
aI0
a(lp470
(lp471
F0.5
aI42
aI94
aI3
ag5
aa(lp472
F0.074929492463525
aI42
aI0
aI3
ag7
aa(lp473
F0.92507050753647
aI42
aI106
aI3
ag9
aa(lp474
F0.10442552996483
aI42
aI0
aI3
ag11
aa(lp475
F2.3955744700352
aI42
aI92
aI3
ag13
aa(lp476
F0.075309503296012
aI42
aI0
aI3
ag15
aa(lp477
F0.92469049670399
aI42
aI101
aI3
ag17
aa(lp478
F0.073557600124332
aI42
aI0
aI3
ag19
aa(lp479
F0.92644239987567
aI0
aI0
aI0
ag21
aaa(lp480
(lp481
F4.0208790703982
aI46
aI99
aI3
aS'on'
p482
aa(lp483
F0.59853009246035
aI46
aI0
aI3
aS'off'
p484
aa(lp485
F0.88582225442406
aI46
aI111
aI3
aS'on'
p486
aa(lp487
F0.37538136626972
aI46
aI0
aI3
aS'off'
p488
aa(lp489
F5.9894758484106
aI46
aI104
aI3
aS'on'
p490
aa(lp491
F0.68289384091713
aI46
aI0
aI3
aS'off'
p492
aa(lp493
F0.85299046484397
aI46
aI106
aI3
aS'on'
p494
aa(lp495
F0.80295583367115
aI46
aI0
aI3
aS'off'
p496
aa(lp497
F0.79107122860478
aI0
aI0
aI0
aS'timeAfterLastHit'
p498
aaaI0
aI0
aI0
aI0
aI0
aI0
a(lp499
(lp500
F0.0
aI36
aI118
aI3
ag24
aa(lp501
F0.16243361854322
aI36
aI0
aI3
ag26
aa(lp502
F1.3375663814568
aI36
aI118
aI3
ag28
aa(lp503
F0.10232664180876
aI36
aI0
aI3
ag30
aa(lp504
F1.3976733581912
aI36
aI118
aI3
ag32
aa(lp505
F0.11707205950734
aI36
aI0
aI3
ag34
aa(lp506
F0.88292794049266
aI36
aI115
aI3
ag36
aa(lp507
F0.14899176432937
aI36
aI0
aI3
ag38
aa(lp508
F0.85100823567063
aI36
aI118
aI3
ag40
aa(lp509
F0.13280497978576
aI36
aI0
aI3
ag42
aa(lp510
F0.86719502021424
aI0
aI0
aI0
ag44
aaa(lp511
(lp512
F0.46785272103307
aI38
aI118
aI3
ag47
aa(lp513
F0.51662987817372
aI38
aI0
aI3
ag49
aa(lp514
F3.4750702453798
aI38
aI118
aI3
ag51
aa(lp515
F1.5304471554132
aI38
aI0
aI3
ag53
aa(lp516
F0.010000000000218
aI0
aI0
aI0
ag55
aaaI0
aI0
aI0
aI0
aI0
a(lp517
(lp518
F0.014832466840744
aI67
aI66
aI0
ag58
aa(lp519
F0.013913869857788
aI62
aI52
aI0
ag60
aa(lp520
F0.016811100772429
aI67
aI0
aI0
ag62
aa(lp521
F0.00021998017109581
aI62
aI0
aI0
ag64
aa(lp522
F0.43989559138845
aI67
aI70
aI0
ag66
aa(lp523
F0.00024274884162878
aI62
aI65
aI0
ag68
aa(lp524
F0.095324874589096
aI67
aI0
aI0
ag70
aa(lp525
F0.011423665227085
aI62
aI0
aI0
ag72
aa(lp526
F0.93008304143132
aI65
aI71
aI0
ag74
aa(lp527
F0.00027249030245002
aI60
aI47
aI0
ag76
aa(lp528
F0.16435200587875
aI60
aI0
aI0
ag78
aa(lp529
F0.012022393293591
aI65
aI0
aI0
ag80
aa(lp530
F0.33307050126041
aI60
aI50
aI0
ag82
aa(lp531
F0.011624417812527
aI65
aI73
aI0
ag84
aa(lp532
F0.14341750120457
aI60
aI0
aI0
ag86
aa(lp533
F0.048100923324455
aI65
aI0
aI0
ag88
aa(lp534
F0.82397865536495
aI58
aI53
aI0
ag90
aa(lp535
F0.011256142776801
aI63
aI66
aI0
ag92
aa(lp536
F0.14338113786926
aI63
aI0
aI0
ag94
aa(lp537
F0.011533876345311
aI58
aI0
aI0
ag96
aa(lp538
F0.36812748091324
aI58
aI67
aI0
ag98
aa(lp539
F0.011445255813669
aI63
aI72
aI0
ag100
aa(lp540
F0.14308612499553
aI63
aI0
aI0
ag102
aa(lp541
F0.011824012823126
aI58
aI0
aI0
ag104
aa(lp542
F0.83501957587669
aI62
aI82
aI0
ag106
aa(lp543
F0.00013306865730556
aI56
aI52
aI0
ag108
aa(lp544
F0.095743406131078
aI56
aI0
aI0
ag110
aa(lp545
F0.048040788697108
aI62
aI0
aI0
ag112
aa(lp546
F0.39486497947109
aI55
aI65
aI0
ag114
aa(lp547
F0.0098971389215876
aI60
aI92
aI0
ag116
aa(lp548
F0.16675434667104
aI55
aI0
aI0
ag118
aa(lp549
F0.024934218522503
aI60
aI0
aI0
ag120
aa(lp550
F0.75087562450881
aI56
aI33
aI0
ag122
aa(lp551
F0.011462886037407
aI62
aI70
aI0
ag124
aa(lp552
F0.072717134712548
aI56
aI0
aI0
ag126
aa(lp553
F0.035189948046536
aI62
aI0
aI0
ag128
aa(lp554
F0.44066407046193
aI63
aI89
aI0
ag130
aa(lp555
F0.00011490977794892
aI58
aI62
aI0
ag132
aa(lp556
F0.094775400406434
aI58
aI0
aI0
ag134
aa(lp557
F0.048589809420264
aI63
aI0
aI0
ag136
aa(lp558
F0.79590854929484
aI56
aI7
aI0
ag138
aa(lp559
F0.011707075011145
aI62
aI65
aI0
ag140
aa(lp560
F0.047883798351904
aI56
aI0
aI0
ag142
aa(lp561
F0.037499117763218
aI62
aI0
aI0
ag144
aa(lp562
F0.438898591613
aI60
aI89
aI0
ag146
aa(lp563
F0.00012322015845712
aI55
aI71
aI0
ag148
aa(lp564
F0.14289366000503
aI60
aI0
aI0
ag150
aa(lp565
F0.036084502478843
aI55
aI0
aI0
ag152
aa(lp566
F0.66604946982625
aI56
aI17
aI0
ag154
aa(lp567
F0.011583061868805
aI62
aI61
aI0
ag156
aa(lp568
F0.071322223259813
aI56
aI0
aI0
ag158
aa(lp569
F0.023835352190872
aI62
aI0
aI0
ag160
aa(lp570
F0.51611014831906
aI63
aI73
aI0
ag162
aa(lp571
F0.00016582026910328
aI58
aI45
aI0
ag164
aa(lp572
F0.09415810329574
aI63
aI0
aI0
ag166
aa(lp573
F0.0001268273254027
aI58
aI0
aI0
ag168
aa(lp574
F0.8915941655705
aI56
aI35
aI0
ag170
aa(lp575
F0.010968788580612
aI62
aI66
aI0
ag172
aa(lp576
F0.047812304453146
aI56
aI0
aI0
ag174
aa(lp577
F0.036385592618899
aI62
aI0
aI0
ag176
aa(lp578
F0.40569955321371
aI60
aI89
aI0
ag178
aa(lp579
F0.00022373089450411
aI55
aI60
aI0
ag180
aa(lp580
F0.094274464599948
aI55
aI0
aI0
ag182
aa(lp581
F0.047769649657312
aI60
aI0
aI0
ag184
aa(lp582
F0.75053492390089
aI56
aI42
aI0
ag186
aa(lp583
F0.010813338630214
aI62
aI71
aI0
ag188
aa(lp584
F0.083084052912454
aI56
aI0
aI0
ag190
aa(lp585
F0.011519835057697
aI62
aI0
aI0
ag192
aa(lp586
F0.92495251346008
aI0
aI0
aI0
ag194
aaaI0
aI0
aI0
aI0
a(lp587
(lp588
F0.017504188183921
aI75
aI99
aI1
ag197
aa(lp589
F10.067422579565
aI74
aI80
aI1
ag199
aa(lp590
F0.064917689352114
aI75
aI0
aI1
ag201
aa(lp591
F9.5862558892895
aI74
aI0
aI1
ag203
aa(lp592
F0.24513131845379
aI70
aI80
aI1
ag205
aa(lp593
F1.8279867239717
aI70
aI0
aI1
ag207
aa(lp594
F0.032075822438856
aI72
aI65
aI1
ag209
aa(lp595
F20.148705788745
aI72
aI0
aI1
ag211
aa(lp596
F0.010000000000218
aI0
aI0
aI0
ag213
aaa(lp597
(lp598
F0.206485498029
aI70
aI89
aI1
aS'on'
p599
aa(lp600
F11.508327445203
aI70
aI0
aI1
aS'off'
p601
aa(lp602
F0.23987746580133
aI68
aI92
aI1
aS'on'
p603
aa(lp604
F11.42782381376
aI68
aI0
aI1
aS'off'
p605
aa(lp606
F0.61748577720664
aI0
aI0
aI0
aS'timeAfterLastHit'
p607
aaaI0
aI0
aI0
aI0
aI0
aI0
aI0
aI0
aI0
a(lp608
(lp609
F0.020744218751133
aI36
aI94
aI2
ag216
aa(lp610
F0.48541431308695
aI38
aI67
aI2
ag218
aa(lp611
F0.43889472043884
aI39
aI65
aI2
ag220
aa(lp612
F0.13220056327373
aI38
aI0
aI2
ag222
aa(lp613
F0.39983480405954
aI39
aI0
aI2
ag224
aa(lp614
F0.49598892778067
aI38
aI87
aI2
ag226
aa(lp615
F0.48595741123609
aI38
aI0
aI2
ag228
aa(lp616
F0.52352033384886
aI43
aI104
aI2
ag230
aa(lp617
F0.02863457150761
aI36
aI0
aI2
ag232
aa(lp618
F0.4574541407228
aI41
aI89
aI2
ag234
aa(lp619
F0.4282299338447
aI46
aI73
aI2
ag236
aa(lp620
F0.095602148593571
aI43
aI0
aI2
ag238
aa(lp621
F0.01840528496723
aI41
aI0
aI2
ag240
aa(lp622
F0.40049521854598
aI48
aI99
aI2
ag242
aa(lp623
F0.27705164698909
aI46
aI0
aI2
ag244
aa(lp624
F0.17085696768027
aI48
aI0
aI2
ag246
aa(lp625
F0.14071479467293
aI0
aI0
aI0
ag248
aaa(lp626
(lp627
F1.82894469859
aI56
aI118
aI2
ag251
aa(lp628
F0.29066187075932
aI56
aI0
aI2
ag253
aa(lp629
F0.74935509406805
aI58
aI120
aI2
ag255
aa(lp630
F0.25784093241873
aI58
aI0
aI2
ag257
aa(lp631
F0.85015599256167
aI60
aI118
aI2
ag259
aa(lp632
F0.25648606806772
aI60
aI0
aI2
ag261
aa(lp633
F0.73309147902091
aI65
aI120
aI2
ag263
aa(lp634
F0.25679436868631
aI65
aI0
aI2
ag265
aa(lp635
F0.77666949582726
aI0
aI0
aI0
ag267
aaaI0
aI0
aI0
aI0
aI0
aI0
aI0
aI0
aI0
a(lp636
(lp637
F0.048768087979624
aI87
aI70
aI0
ag270
aa(lp638
F0.11828090437939
aI87
aI0
aI0
ag272
aa(lp639
F0.36409440347688
aI86
aI70
aI0
ag274
aa(lp640
F0.090770070120925
aI86
aI0
aI0
ag276
aa(lp641
F0.35517701416848
aI84
aI64
aI0
ag278
aa(lp642
F0.11846812641488
aI84
aI0
aI0
ag280
aa(lp643
F0.38273667834528
aI87
aI50
aI0
ag282
aa(lp644
F0.091447962245184
aI87
aI0
aI0
ag284
aa(lp645
F0.40896656486893
aI86
aI56
aI0
ag286
aa(lp646
F0.09985490892268
aI86
aI0
aI0
ag288
aa(lp647
F0.40048554698751
aI84
aI43
aI0
ag290
aa(lp648
F0.1187316092437
aI84
aI0
aI0
ag292
aa(lp649
F0.41043189131142
aI87
aI63
aI0
ag294
aa(lp650
F0.12701585179002
aI87
aI0
aI0
ag296
aa(lp651
F0.40006605596409
aI86
aI59
aI0
ag298
aa(lp652
F0.072786601695043
aI86
aI0
aI0
ag300
aa(lp653
F0.37340587691051
aI84
aI75
aI0
ag302
aa(lp654
F0.14606526637817
aI84
aI0
aI0
ag304
aa(lp655
F0.37356977878062
aI87
aI63
aI0
ag306
aa(lp656
F0.11835866789988
aI87
aI0
aI0
ag308
aa(lp657
F0.38301852164295
aI86
aI68
aI0
ag310
aa(lp658
F0.13686135823355
aI86
aI0
aI0
ag312
aa(lp659
F0.3660730071615
aI84
aI61
aI0
ag314
aa(lp660
F0.16105502490427
aI84
aI0
aI0
ag316
aa(lp661
F0.3378226131772
aI87
aI65
aI0
ag318
aa(lp662
F0.13633769613261
aI87
aI0
aI0
ag320
aa(lp663
F0.35588183683831
aI86
aI80
aI0
ag322
aa(lp664
F0.091151628612351
aI86
aI0
aI0
ag324
aa(lp665
F0.40983464961846
aI84
aI57
aI0
ag326
aa(lp666
F0.14619589207905
aI84
aI0
aI0
ag328
aa(lp667
F0.85628590371653
aI0
aI0
aI0
ag330
aaa(lp668
(lp669
F0.14633310238969
aI82
aI57
aI0
aS'on'
p670
aa(lp671
F0.20438429821752
aI82
aI0
aI0
aS'off'
p672
aa(lp673
F0.69803744394903
aI80
aI71
aI0
aS'on'
p674
aa(lp675
F0.15383565966386
aI80
aI0
aI0
aS'off'
p676
aa(lp677
F0.86976267797672
aI79
aI69
aI0
aS'on'
p678
aa(lp679
F0.15440152057454
aI79
aI0
aI0
aS'off'
p680
aa(lp681
F0.78642236744236
aI82
aI55
aI0
aS'on'
p682
aa(lp683
F0.15373136826292
aI82
aI0
aI0
aS'off'
p684
aa(lp685
F0.83539034832847
aI80
aI62
aI0
aS'on'
p686
aa(lp687
F0.083614712450071
aI80
aI0
aI0
aS'off'
p688
aa(lp689
F0.92296225135578
aI79
aI70
aI0
aS'on'
p690
aa(lp691
F0.085466628308495
aI79
aI0
aI0
aS'off'
p692
aa(lp693
F0.91784299856954
aI82
aI54
aI0
aS'on'
p694
aa(lp695
F0.086310390692233
aI82
aI0
aI0
aS'off'
p696
aa(lp697
F0.86995006755933
aI80
aI59
aI0
aS'on'
p698
aa(lp699
F0.085153535380414
aI80
aI0
aI0
aS'off'
p700
aa(lp701
F0.9583354709348
aI79
aI62
aI0
aS'on'
p702
aa(lp703
F0.22183272913026
aI79
aI0
aI0
aS'off'
p704
aa(lp705
F0.80074542857164
aI80
aI67
aI0
aS'on'
p706
aa(lp707
F0.18935590964793
aI80
aI0
aI0
aS'off'
p708
aa(lp709
F0.74952958882386
aI79
aI66
aI0
aS'on'
p710
aa(lp711
F0.23838305983463
aI79
aI0
aI0
aS'off'
p712
aa(lp713
F0.80387246325517
aI77
aI65
aI0
aS'on'
p714
aa(lp715
F0.20552435434456
aI77
aI0
aI0
aS'off'
p716
aa(lp717
F0.76751221486757
aI80
aI53
aI0
aS'on'
p718
aa(lp719
F0.22315490264918
aI80
aI0
aI0
aS'off'
p720
aa(lp721
F0.75026957233604
aI79
aI62
aI0
aS'on'
p722
aa(lp723
F0.22058538804504
aI79
aI0
aI0
aS'off'
p724
aa(lp725
F0.8351272873324
aI77
aI56
aI0
aS'on'
p726
aa(lp727
F0.23937682986252
aI77
aI0
aI0
aS'off'
p728
aa(lp729
F0.71645860836634
aI80
aI50
aI0
aS'on'
p730
aa(lp731
F0.23864669538671
aI80
aI0
aI0
aS'off'
p732
aa(lp733
F0.74910219223602
aI79
aI65
aI0
aS'on'
p734
aa(lp735
F0.25541529143993
aI79
aI0
aI0
aS'off'
p736
aa(lp737
F0.7528406996089
aI77
aI62
aI0
aS'on'
p738
aa(lp739
F0.27083104387202
aI77
aI0
aI0
aS'off'
p740
aa(lp741
F0.76539641535965
aI79
aI68
aI0
aS'on'
p742
aa(lp743
F0.24031590297182
aI79
aI0
aI0
aS'off'
p744
aa(lp745
F0.73763396089362
aI77
aI70
aI0
aS'on'
p746
aa(lp747
F0.22038892638011
aI77
aI0
aI0
aS'off'
p748
aa(lp749
F0.7341816958251
aI75
aI58
aI0
aS'on'
p750
aa(lp751
F0.1360642084428
aI75
aI0
aI0
aS'off'
p752
aa(lp753
F0.85373750949748
aI79
aI66
aI0
aS'on'
p754
aa(lp755
F0.23906338110646
aI79
aI0
aI0
aS'off'
p756
aa(lp757
F0.78441871048562
aI77
aI59
aI0
aS'on'
p758
aa(lp759
F0.18815567875299
aI77
aI0
aI0
aS'off'
p760
aa(lp761
F0.74999206913253
aI75
aI67
aI0
aS'on'
p762
aa(lp763
F0.084445632239294
aI75
aI0
aI0
aS'off'
p764
aa(lp765
F0.88942148787373
aI79
aI72
aI0
aS'on'
p766
aa(lp767
F0.23870542724126
aI79
aI0
aI0
aS'off'
p768
aa(lp769
F0.83404112505559
aI77
aI70
aI0
aS'on'
p770
aa(lp771
F0.29008175371837
aI77
aI0
aI0
aS'off'
p772
aa(lp773
F0.75070731743017
aI75
aI70
aI0
aS'on'
p774
aa(lp775
F0.24013042313163
aI75
aI0
aI0
aS'off'
p776
aa(lp777
F0.75068798498341
aI75
aI61
aI0
aS'on'
p778
aa(lp779
F0.23986225317094
aI75
aI0
aI0
aS'off'
p780
aa(lp781
F0.68195419325275
aI74
aI51
aI0
aS'on'
p782
aa(lp783
F0.18717435304916
aI74
aI0
aI0
aS'off'
p784
aa(lp785
F0.8541863212904
aI72
aI49
aI0
aS'on'
p786
aa(lp787
F0.084918496965656
aI72
aI0
aI0
aS'off'
p788
aa(lp789
F0.95669458626526
aI75
aI62
aI0
aS'on'
p790
aa(lp791
F0.25524617333667
aI75
aI0
aI0
aS'off'
p792
aa(lp793
F0.73583382347806
aI74
aI60
aI0
aS'on'
p794
aa(lp795
F0.18797779216766
aI74
aI0
aI0
aS'off'
p796
aa(lp797
F0.82119543239787
aI72
aI56
aI0
aS'on'
p798
aa(lp799
F0.082660808655419
aI72
aI0
aI0
aS'off'
p800
aa(lp801
F0.9574759670686
aI75
aI60
aI0
aS'on'
p802
aa(lp803
F0.25448286161281
aI75
aI0
aI0
aS'off'
p804
aa(lp805
F0.78303822949783
aI74
aI66
aI0
aS'on'
p806
aa(lp807
F0.20478132830522
aI74
aI0
aI0
aS'off'
p808
aa(lp809
F0.75309076784379
aI72
aI68
aI0
aS'on'
p810
aa(lp811
F0.18346959094833
aI72
aI0
aI0
aS'off'
p812
aa(lp813
F0.80788830850543
aI0
aI0
aI0
aS'timeAfterLastHit'
p814
aaaI0
aI0
aI0
aI0
aI0
aI0
aI0
aI0
aI0
aI0
aI0
aI0
aI0
aI0
aI0
aI0
aI0
aI0
aI0
aI0
aI0
aI0
aI0
aI0
aI0
aI0
aI0
aI0
aI0
aI0
aI0
aI0
aI0
aI0
aI0
aI0
aI0
aI0
aI0
aI0
aI0
aI0
aI0
aI0
aI0
aI0
aI0
aI0
aI0
aI0
aI0
aI0
aI0
aI0
aa(lp815
(dp816
a(dp817
a(dp818
g335
I32
sg336
I0
sa(dp819
g335
I33
sg336
I1
sa(dp820
a(dp821
a(dp822
a(dp823
a(dp824
a(dp825
a(dp826
g335
I42
sg336
I0
sa(dp827
g335
I43
sg336
I0
sa(dp828
a(dp829
a(dp830
a(dp831
a(dp832
a(dp833
g335
I51
sg336
I1
sa(dp834
a(dp835
a(dp836
a(dp837
a(dp838
g335
I56
sg336
I1
sa(dp839
g335
I57
sg336
I0
sa(dp840
a(dp841
a(dp842
a(dp843
a(dp844
a(dp845
a(dp846
a(dp847
a(dp848
a(dp849
g335
I71
sg336
I0
sa(dp850
g335
I72
sg336
I0
sa(dp851
a(dp852
a(dp853
a(dp854
a(dp855
a(dp856
a(dp857
a(dp858
a(dp859
a(dp860
g335
I84
sg336
I1
sa(dp861
g335
I85
sg336
I0
sa(dp862
a(dp863
a(dp864
a(dp865
a(dp866
a(dp867
a(dp868
a(dp869
a(dp870
a(dp871
a(dp872
a(dp873
a(dp874
a(dp875
a(dp876
a(dp877
a(dp878
a(dp879
a(dp880
a(dp881
a(dp882
a(dp883
a(dp884
a(dp885
a(dp886
a(dp887
a(dp888
a(dp889
a(dp890
a(dp891
a(dp892
a(dp893
a(dp894
a(dp895
a(dp896
a(dp897
a(dp898
a(dp899
a(dp900
a(dp901
a(dp902
a(dp903
a(dp904
a(dp905
a(dp906
a(dp907
a(dp908
a(dp909
a(dp910
a(dp911
a(dp912
a(dp913
a(dp914
a(dp915
aa(lp916
I60
aI60
aI36
aI36
aa(lp917
(lp918
I0
aI2
aI3
aI5
aI7
aI8
aI10
aa(lp919
I0
aI2
aI3
aI5
aI7
aI8
aI10
aa(lp920
I0
aI2
aI3
aI5
aI7
aI8
aI10
aa(lp921
I0
aI2
aI3
aI5
aI7
aI8
aI10
aa(lp922
I0
aI2
aI3
aI5
aI7
aI8
aI10
aa(lp923
I0
aI1
aI2
aI3
aI4
aI5
aI6
aI7
aI8
aI9
aI10
aI11
aaa(lp924
(lp925
(lp926
I0
aI0
aI0
aI0
aI0
aI0
aI0
aI0
aI0
aI0
aI0
aI0
aa(lp927
I0
aI0
aI0
aI0
aI0
aI0
aI0
aI0
aI0
aI0
aI0
aI0
aa(lp928
I0
aI0
aI0
aI0
aI0
aI0
aI0
aI0
aI0
aI0
aI0
aI0
aa(lp929
I0
aI0
aI0
aI0
aI0
aI0
aI0
aI0
aI0
aI0
aI0
aI0
aaa(lp930
(lp931
I0
aI0
aI0
aI0
aI0
aI0
aI0
aI0
aI0
aI0
aI0
aI0
aa(lp932
I0
aI0
aI0
aI0
aI0
aI0
aI0
aI0
aI0
aI0
aI0
aI0
aa(lp933
I0
aI0
aI0
aI0
aI0
aI0
aI0
aI0
aI0
aI0
aI0
aI0
aa(lp934
I0
aI0
aI0
aI0
aI0
aI0
aI0
aI0
aI0
aI0
aI0
aI0
aaa(lp935
(lp936
I0
aI0
aI0
aI0
aI0
aI0
aI0
aI0
aI0
aI0
aI0
aI0
aa(lp937
I0
aI0
aI0
aI0
aI0
aI0
aI0
aI0
aI0
aI0
aI0
aI0
aa(lp938
I0
aI0
aI0
aI0
aI0
aI0
aI0
aI0
aI0
aI0
aI0
aI0
aa(lp939
I0
aI0
aI0
aI0
aI0
aI0
aI0
aI0
aI0
aI0
aI0
aI0
aaa(lp940
(lp941
I0
aI0
aI0
aI0
aI0
aI0
aI0
aI0
aI0
aI0
aI0
aI0
aa(lp942
I0
aI0
aI0
aI0
aI0
aI0
aI0
aI0
aI0
aI0
aI0
aI0
aa(lp943
I0
aI0
aI0
aI0
aI0
aI0
aI0
aI0
aI0
aI0
aI0
aI0
aa(lp944
I0
aI0
aI0
aI0
aI0
aI0
aI0
aI0
aI0
aI0
aI0
aI0
aaaa(lp945
(lp946
I0
aI0
aI0
aI0
aI0
aI0
aI0
aI0
aI0
aI0
aI0
aI0
aa(lp947
I0
aI0
aI0
aI0
aI0
aI0
aI0
aI0
aI0
aI0
aI0
aI0
aa(lp948
I0
aI0
aI0
aI0
aI0
aI0
aI0
aI0
aI0
aI0
aI0
aI0
aa(lp949
I0
aI0
aI0
aI0
aI0
aI0
aI0
aI0
aI0
aI0
aI0
aI0
aaaaI0
aI0
aI0
aI0
aI0
aI0
aI0
aI0
aI0
aI0
aI0
aI0
aI0
aI0
aI0
aI0
aI0
aI0
aI0
aI0
aI0
aI0
aI0
aI0
aI0
aI0
aI0
aI0
aI0
a.