(lp0
I0
a(lp1
(lp2
I0
aI0
aI0
aI0
a(lp3
(lp4
F0.5
aI48
aI114
aI2
aS'on'
p5
aa(lp6
F0.16666666666667
aI44
aI108
aI2
aS'on'
p7
aa(lp8
F0.06504901733327
aI48
aI0
aI2
aS'off'
p9
aa(lp10
F0.20615755267014
aI44
aI0
aI2
aS'off'
p11
aa(lp12
F0.062126763329919
aI48
aI120
aI2
aS'on'
p13
aa(lp14
F0.33333333333333
aI51
aI101
aI2
aS'on'
p15
aa(lp16
F0.085501514668674
aI48
aI0
aI2
aS'off'
p17
aa(lp18
F6.8872978873308
aI51
aI0
aI2
aS'off'
p19
aa(lp20
F0.027200598000491
aI50
aI97
aI2
aS'on'
p21
aa(lp22
F0.33333333333333
aI51
aI101
aI2
aS'on'
p23
aa(lp24
F0.13804862466592
aI50
aI0
aI2
aS'off'
p25
aa(lp26
F0.19528470866741
aI53
aI115
aI2
aS'on'
p27
aa(lp28
F0.096478574671588
aI51
aI0
aI2
aS'off'
p29
aa(lp30
F3.7368547586617
aI55
aI95
aI2
aS'on'
p31
aa(lp32
F0.13357913666793
aI53
aI0
aI2
aS'off'
p33
aa(lp34
F0.033087529998738
aI56
aI98
aI2
aS'on'
p35
aa(lp36
F0.11587442333015
aI55
aI0
aI2
aS'off'
p37
aa(lp38
F1.8392790426684
aI56
aI0
aI2
aS'off'
p39
aa(lp40
F0.044846534001408
aI55
aI100
aI2
aS'on'
p41
aa(lp42
F1.0
aI53
aI97
aI2
aS'on'
p43
aa(lp44
F0.26461140599713
aI55
aI0
aI2
aS'off'
p45
aa(lp46
F0.068721927336203
aI51
aI9
aI2
aS'on'
p47
aa(lp48
F0.13680247666586
aI53
aI0
aI2
aS'off'
p49
aa(lp50
F0.19653085666748
aI50
aI92
aI2
aS'on'
p51
aa(lp52
F0.10556897466692
aI51
aI0
aI2
aS'off'
p53
aa(lp54
F0.22776435866642
aI48
aI118
aI2
aS'on'
p55
aa(lp56
F0.13934973066595
aI50
aI0
aI2
aS'off'
p57
aa(lp58
F7.117556411334
aI48
aI0
aI2
aS'off'
p59
aa(lp60
F0.076427191333398
aI45
aI87
aI2
aS'on'
p61
aa(lp62
F0.33333333333334
aI46
aI98
aI2
aS'on'
p63
aa(lp64
F0.2524019486688
aI45
aI0
aI2
aS'off'
p65
aa(lp66
F0.080931384664535
aI48
aI114
aI2
aS'on'
p67
aa(lp68
F0.1268170686623
aI46
aI0
aI2
aS'off'
p69
aa(lp70
F4.8731829313377
aI43
aI24
aI2
aS'on'
p71
aa(lp72
F0.040814120002324
aI48
aI0
aI2
aS'off'
p73
aa(lp74
F2.2794121599945
aI43
aI0
aI2
aS'off'
p75
aa(lp76
F0.67977372000314
aI0
aI0
aI0
aS'timeAfterLastHit'
p77
aaaI0
aI0
a(lp78
(lp79
F0.42547741800081
aI36
aI114
aI2
aS'on'
p80
aa(lp81
F0.32425749200047
aI39
aI97
aI2
aS'on'
p82
aa(lp83
F0.02168556000106
aI36
aI0
aI2
aS'off'
p84
aa(lp85
F0.30341418399621
aI41
aI110
aI2
aS'on'
p86
aa(lp87
F0.00018656800239114
aI39
aI0
aI2
aS'off'
p88
aa(lp89
F0.30231893999735
aI43
aI114
aI2
aS'on'
p90
aa(lp91
F0.010694780001359
aI41
aI0
aI2
aS'off'
p92
aa(lp93
F0.31415531400125
aI43
aI0
aI2
aS'off'
p94
aa(lp95
F0.072780829999829
aI46
aI109
aI2
aS'on'
p96
aa(lp97
F0.3135757439959
aI48
aI116
aI2
aS'on'
p98
aa(lp99
F0.010306004005542
aI46
aI0
aI2
aS'off'
p100
aa(lp101
F0.30309675199533
aI46
aI115
aI2
aS'on'
p102
aa(lp103
F0.02062745999865
aI48
aI0
aI2
aS'off'
p104
aa(lp105
F3.8779098440064
aI45
aI82
aI2
aS'on'
p106
aa(lp107
F0.09537153999554
aI46
aI0
aI2
aS'off'
p108
aa(lp109
F3.6102586499983
aI46
aI68
aI2
aS'on'
p110
aa(lp111
F0.11413744000311
aI45
aI0
aI2
aS'off'
p112
aa(lp113
F4.0365917960007
aI41
aI94
aI2
aS'on'
p114
aa(lp115
F0.1469020059958
aI46
aI0
aI2
aS'off'
p116
aa(lp117
F2.0735368020032
aI43
aI101
aI2
aS'on'
p118
aa(lp119
F0.12608478200127
aI41
aI0
aI2
aS'off'
p120
aa(lp121
F1.7762135500016
aI36
aI109
aI2
aS'on'
p122
aa(lp123
F0.073024407996854
aI43
aI0
aI2
aS'off'
p124
aa(lp125
F7.905950196
aI39
aI97
aI2
aS'on'
p126
aa(lp127
F0.12608750000072
aI36
aI0
aI2
aS'off'
p128
aa(lp129
F0.54521233800187
aI36
aI100
aI2
aS'on'
p130
aa(lp131
F0.15632358999574
aI39
aI0
aI2
aS'off'
p132
aa(lp133
F6.9038185120028
aI36
aI0
aI2
aS'off'
p134
aa(lp135
F0.0099999999999909
aI0
aI0
aI0
aS'timeAfterLastHit'
p136
aaaI0
aI0
aI0
aI0
a(lp137
(lp138
F1.3333333333333
aI41
aI123
aI3
aS'on'
p139
aa(lp140
F2.999
aI41
aI0
aI3
aS'off'
p141
aa(lp142
F-1.3323333333333
aI0
aI0
aI0
aS'timeAfterLastHit'
p143
aaa(lp144
(lp145
F0.0
aI36
aI124
aI3
aS'on'
p146
aa(lp147
F0.16987656823176
aI36
aI0
aI3
aS'off'
p148
aa(lp149
F0.49679009843491
aI36
aI123
aI3
aS'on'
p150
aa(lp151
F2.6150870460042
aI36
aI0
aI3
aS'off'
p152
aa(lp153
F0.71824628732914
aI0
aI0
aI0
aS'timeAfterLastHit'
p154
aaa(lp155
(lp156
F2.3333333333333
aI44
aI116
aI3
aS'on'
p157
aa(lp158
F0.10516025999823
aI44
aI0
aI3
aS'off'
p159
aa(lp160
F0.56150640666844
aI44
aI115
aI3
aS'on'
p161
aa(lp162
F0.18831306799984
aI44
aI0
aI3
aS'off'
p163
aa(lp164
F0.81168693200016
aI0
aI0
aI0
aS'timeAfterLastHit'
p165
aaa(lp166
(lp167
F1.0
aI38
aI124
aI3
aS'on'
p168
aa(lp169
F2.1933984479983
aI38
aI0
aI3
aS'off'
p170
aa(lp171
F0.80660155200167
aI0
aI0
aI0
aS'timeAfterLastHit'
p172
aaa(lp173
(lp174
F2.3483075839977
aI44
aI110
aI3
aS'on'
p175
aa(lp176
F0.094599066003866
aI44
aI0
aI3
aS'off'
p177
aa(lp178
F0.606121083998
aI44
aI112
aI3
aS'on'
p179
aa(lp180
F0.12586005999765
aI44
aI0
aI3
aS'off'
p181
aa(lp182
F3.8680474860012
aI44
aI118
aI3
aS'on'
p183
aa(lp184
F0.1153973679975
aI44
aI0
aI3
aS'off'
p185
aa(lp186
F0.2192331220067
aI44
aI116
aI3
aS'on'
p187
aa(lp188
F0.11492876999546
aI44
aI0
aI3
aS'off'
p189
aa(lp190
F0.50750546000199
aI0
aI0
aI0
aS'timeAfterLastHit'
p191
aaaI0
aI0
a(lp192
(lp193
F0.0
aI33
aI117
aI1
aS'on'
p194
aa(lp195
F3.9169621385445
aI33
aI0
aI1
aS'off'
p196
aa(lp197
F0.083037861455523
aI34
aI104
aI1
aS'on'
p198
aa(lp199
F2.0
aI33
aI114
aI1
aS'on'
p200
aa(lp201
F0.0033232040004805
aI34
aI0
aI1
aS'off'
p202
aa(lp203
F1.9411459359981
aI33
aI0
aI1
aS'off'
p204
aa(lp205
F0.055530860001454
aI31
aI112
aI1
aS'on'
p206
aa(lp207
F7.4933155359977
aI31
aI0
aI1
aS'off'
p208
aa(lp209
F0.0066844640023191
aI29
aI109
aI1
aS'on'
p210
aa(lp211
F0.25119402600103
aI29
aI0
aI1
aS'off'
p212
aa(lp213
F0.082139307332303
aI31
aI114
aI1
aS'on'
p214
aa(lp215
F0.0
aI29
aI32
aI1
aS'on'
p216
aa(lp217
F0.10360912400211
aI29
aI0
aI1
aS'off'
p218
aa(lp219
F5.8963908759979
aI36
aI79
aI1
aS'on'
p220
aa(lp221
F0.066298056000964
aI31
aI0
aI1
aS'off'
p222
aa(lp223
F1.1003686106657
aI38
aI31
aI1
aS'on'
p224
aa(lp225
F0.02627779332882
aI36
aI0
aI1
aS'off'
p226
aa(lp227
F23.972722206671
aI38
aI0
aI1
aS'off'
p228
aa(lp229
F-22.999
aI0
aI0
aI0
aS'timeAfterLastHit'
p230
aaaI0
aI0
aI0
aI0
aI0
aI0
aI0
aI0
aI0
aI0
aI0
aI0
aI0
aI0
aI0
aI0
aI0
aI0
aI0
a(lp231
(lp232
F0.66666666666667
aI69
aI112
aI0
aS'on'
p233
aa(lp234
F0.20819120800297
aI69
aI0
aI0
aS'off'
p235
aa(lp236
F0.12514212533036
aI70
aI117
aI0
aS'on'
p237
aa(lp238
F0.18926928599831
aI70
aI0
aI0
aS'off'
p239
aa(lp240
F0.14406404733503
aI72
aI116
aI0
aS'on'
p241
aa(lp242
F0.13501328599523
aI72
aI0
aI0
aS'off'
p243
aa(lp244
F0.19832004733811
aI69
aI105
aI0
aS'on'
p245
aa(lp246
F0.33333333333333
aI70
aI112
aI0
aS'on'
p247
aa(lp248
F0.085295714665941
aI69
aI0
aI0
aS'off'
p249
aa(lp250
F0.12356323333127
aI70
aI0
aI0
aS'off'
p251
aa(lp252
F0.12447438533612
aI72
aI116
aI0
aS'on'
p253
aa(lp254
F0.15832843200042
aI72
aI0
aI0
aS'off'
p255
aa(lp256
F0.17500490133292
aI69
aI116
aI0
aS'on'
p257
aa(lp258
F0.33333333333333
aI70
aI112
aI0
aS'on'
p259
aa(lp260
F0.10593160466184
aI69
aI0
aI0
aS'off'
p261
aa(lp262
F0.093268755333459
aI70
aI0
aI0
aS'off'
p263
aa(lp264
F0.13413297333803
aI72
aI115
aI0
aS'on'
p265
aa(lp266
F0.14565113199933
aI72
aI0
aI0
aS'off'
p267
aa(lp268
F0.187682201334
aI70
aI114
aI0
aS'on'
p269
aa(lp270
F0.2085986940001
aI70
aI0
aI0
aS'off'
p271
aa(lp272
F0.12473463933323
aI67
aI118
aI0
aS'on'
p273
aa(lp274
F0.15706758000306
aI67
aI0
aI0
aS'off'
p275
aa(lp276
F0.17626575333027
aI65
aI118
aI0
aS'on'
p277
aa(lp278
F0.17875497799832
aI65
aI0
aI0
aS'off'
p279
aa(lp280
F0.15457835533501
aI67
aI114
aI0
aS'on'
p281
aa(lp282
F0.14733588600211
aI67
aI0
aI0
aS'off'
p283
aa(lp284
F0.18599744733122
aI65
aI116
aI0
aS'on'
p285
aa(lp286
F0.19825500199659
aI65
aI0
aI0
aS'off'
p287
aa(lp288
F0.13507833133675
aI63
aI119
aI0
aS'on'
p289
aa(lp290
F0.16810757399799
aI63
aI0
aI0
aS'off'
p291
aa(lp292
F0.16522575933535
aI62
aI116
aI0
aS'on'
p293
aa(lp294
F0.15658406599687
aI62
aI0
aI0
aS'off'
p295
aa(lp296
F0.17674926733647
aI60
aI118
aI0
aS'on'
p297
aa(lp298
F0.18826931199874
aI60
aI0
aI0
aS'off'
p299
aa(lp300
F0.1450640213346
aI63
aI118
aI0
aS'on'
p301
aa(lp302
F0.17671412399795
aI63
aI0
aI0
aS'off'
p303
aa(lp304
F0.15661920933538
aI62
aI118
aI0
aS'on'
p305
aa(lp306
F0.16778856800374
aI62
aI0
aI0
aS'off'
p307
aa(lp308
F0.16554476532959
aI60
aI122
aI0
aS'on'
p309
aa(lp310
F0.21841053000389
aI60
aI0
aI0
aS'off'
p311
aa(lp312
F0.11492280332944
aI63
aI119
aI0
aS'on'
p313
aa(lp314
F0.16737478799769
aI63
aI0
aI0
aS'off'
p315
aa(lp316
F0.16595854533565
aI62
aI118
aI0
aS'on'
p317
aa(lp318
F0.17736932000116
aI62
aI0
aI0
aS'off'
p319
aa(lp320
F0.15596401333217
aI60
aI123
aI0
aS'on'
p321
aa(lp322
F0.19823132600141
aI60
aI0
aI0
aS'off'
p323
aa(lp324
F0.13510200733193
aI62
aI121
aI0
aS'on'
p325
aa(lp326
F0.15724856200541
aI62
aI0
aI0
aS'off'
p327
aa(lp328
F0.17608477132793
aI60
aI121
aI0
aS'on'
p329
aa(lp330
F0.18865882799582
aI60
aI0
aI0
aS'off'
p331
aa(lp332
F0.14467450533751
aI0
aI0
aI0
aS'timeAfterLastHit'
p333
aaa(lp334
(lp335
F2.6666666666667
aI75
aI112
aI0
aS'on'
p336
aa(lp337
F0.14602800000284
aI75
aI0
aI0
aS'off'
p338
aa(lp339
F0.18730533333049
aI77
aI116
aI0
aS'on'
p340
aa(lp341
F0.14661027400143
aI77
aI0
aI0
aS'off'
p342
aa(lp343
F0.1867230593319
aI82
aI114
aI0
aS'on'
p344
aa(lp345
F0.13663457999792
aI82
aI0
aI0
aS'off'
p346
aa(lp347
F0.19669875333542
aI75
aI114
aI0
aS'on'
p348
aa(lp349
F0.12525323400041
aI75
aI0
aI0
aS'off'
p350
aa(lp351
F0.20808009933292
aI77
aI115
aI0
aS'on'
p352
aa(lp353
F0.15646494399698
aI77
aI0
aI0
aS'off'
p354
aa(lp355
F0.17686838933635
aI82
aI110
aI0
aS'on'
p356
aa(lp357
F0.14645246999862
aI82
aI0
aI0
aS'off'
p358
aa(lp359
F0.18688086333471
aI75
aI118
aI0
aS'on'
p360
aa(lp361
F0.15718591399491
aI75
aI0
aI0
aS'off'
p362
aa(lp363
F0.17614741933842
aI77
aI116
aI0
aS'on'
p364
aa(lp365
F0.15732543999911
aI77
aI0
aI0
aS'off'
p366
aa(lp367
F0.17600789333422
aI82
aI110
aI0
aS'on'
p368
aa(lp369
F0.14789741599816
aI82
aI0
aI0
aS'off'
p370
aa(lp371
F0.18543591733517
aI75
aI119
aI0
aS'on'
p372
aa(lp373
F0.16656886800047
aI75
aI0
aI0
aS'off'
p374
aa(lp375
F0.16676446533287
aI77
aI115
aI0
aS'on'
p376
aa(lp377
F0.17709857400041
aI77
aI0
aI0
aS'off'
p378
aa(lp379
F0.15623475933292
aI82
aI103
aI0
aS'on'
p380
aa(lp381
F0.13608689600369
aI82
aI0
aI0
aS'off'
p382
aa(lp383
F0.19724643732964
aI75
aI118
aI0
aS'on'
p384
aa(lp385
F0.16808857000433
aI75
aI0
aI0
aS'off'
p386
aa(lp387
F0.165244763329
aI77
aI116
aI0
aS'on'
p388
aa(lp389
F0.17739135000011
aI77
aI0
aI0
aS'off'
p390
aa(lp391
F0.15594198333323
aI82
aI108
aI0
aS'on'
p392
aa(lp393
F0.15715044399985
aI82
aI0
aI0
aS'off'
p394
aa(lp395
F0.17618288933348
aI77
aI116
aI0
aS'on'
p396
aa(lp397
F0.15596604200255
aI77
aI0
aI0
aS'off'
p398
aa(lp399
F0.17736729133079
aI75
aI116
aI0
aS'on'
p400
aa(lp401
F0.16715974399995
aI75
aI0
aI0
aS'off'
p402
aa(lp403
F0.16617358933339
aI77
aI121
aI0
aS'on'
p404
aa(lp405
F0.15673195399722
aI77
aI0
aI0
aS'off'
p406
aa(lp407
F0.17660137933611
aI75
aI121
aI0
aS'on'
p408
aa(lp409
F0.2311837840025
aI75
aI0
aI0
aS'off'
p410
aa(lp411
F0.10214954933084
aI0
aI0
aI0
aS'timeAfterLastHit'
p412
aaaI0
a(lp413
(lp414
F1.1666666666667
aI38
aI120
aI3
aS'on'
p415
aa(lp416
F0.57341577199986
aI38
aI0
aI3
aS'off'
p417
aa(lp418
F0.5932508946668
aI38
aI118
aI3
aS'on'
p419
aa(lp420
F0.22087446399382
aI38
aI0
aI3
aS'off'
p421
aa(lp422
F0.44579220267284
aI38
aI122
aI3
aS'on'
p423
aa(lp424
F3.999
aI38
aI0
aI3
aS'off'
p425
aa(lp426
F-2.999
aI0
aI0
aI0
aS'timeAfterLastHit'
p427
aaaI0
aI0
aI0
a(lp428
(lp429
F5.6666666666667
aI69
aI112
aI1
aS'on'
p430
aa(lp431
F0.12510246999591
aI69
aI0
aI1
aS'off'
p432
aa(lp433
F0.20823086333742
aI70
aI103
aI1
aS'on'
p434
aa(lp435
F0.12495044599927
aI70
aI0
aI1
aS'off'
p436
aa(lp437
F0.20838288733406
aI72
aI114
aI1
aS'on'
p438
aa(lp439
F0.11522732600133
aI72
aI0
aI1
aS'off'
p440
aa(lp441
F0.55143934066534
aI0
aI0
aI0
aS'timeAfterLastHit'
p442
aaa(lp443
(lp444
F1.6670055720024
aI72
aI116
aI1
aS'on'
p445
aa(lp446
F0.13616765999905
aI72
aI0
aI1
aS'off'
p447
aa(lp448
F0.16755542999454
aI74
aI116
aI1
aS'on'
p449
aa(lp450
F0.13488422000228
aI74
aI0
aI1
aS'off'
p451
aa(lp452
F0.18904788600048
aI75
aI114
aI1
aS'on'
p453
aa(lp454
F0.10355724200053
aI75
aI0
aI1
aS'off'
p455
aa(lp456
F0.60178199000075
aI0
aI0
aI0
aS'timeAfterLastHit'
p457
aaaI0
aI0
aI0
aI0
aI0
aI0
aI0
aI0
aI0
aI0
aI0
aI0
aI0
aI0
aI0
aI0
aI0
aI0
aI0
aI0
aI0
aI0
aI0
aI0
aI0
aI0
aI0
aI0
aI0
aI0
aI0
aI0
aI0
aI0
aI0
aI0
aI0
aI0
aI0
aI0
aI0
aI0
aI0
aI0
aI0
aI0
aI0
aI0
aI0
aI0
aI0
aI0
aa(lp458
(dp459
a(dp460
a(dp461
a(dp462
a(dp463
S'button'
p464
I34
sS'playing'
p465
I0
sa(dp466
g465
I0
sa(dp467
g465
I0
sa(dp468
g464
I37
sg465
I0
sa(dp469
a(dp470
g465
I0
sa(dp471
a(dp472
a(dp473
g464
I44
sg465
I1
sa(dp474
g464
I45
sg465
I1
sa(dp475
g464
I46
sg465
I1
sa(dp476
g464
I47
sg465
I1
sa(dp477
g464
I48
sg465
I0
sa(dp478
g465
I0
sa(dp479
a(dp480
g464
I53
sg465
I0
sa(dp481
a(dp482
a(dp483
a(dp484
a(dp485
a(dp486
g465
I1
sa(dp487
a(dp488
a(dp489
g465
I0
sa(dp490
g465
I0
sa(dp491
g465
I0
sa(dp492
g465
I0
sa(dp493
g465
I0
sa(dp494
g465
I1
sa(dp495
a(dp496
a(dp497
a(dp498
a(dp499
g465
I0
sa(dp500
g464
I77
sg465
I0
sa(dp501
g464
I78
sg465
I0
sa(dp502
g465
I1
sa(dp503
g464
I82
sg465
I1
sa(dp504
g465
I1
sa(dp505
a(dp506
a(dp507
g464
I86
sg465
I0
sa(dp508
g464
I87
sg465
I0
sa(dp509
a(dp510
a(dp511
a(dp512
a(dp513
a(dp514
a(dp515
a(dp516
a(dp517
a(dp518
a(dp519
a(dp520
a(dp521
a(dp522
a(dp523
a(dp524
a(dp525
a(dp526
a(dp527
a(dp528
a(dp529
a(dp530
a(dp531
a(dp532
a(dp533
a(dp534
a(dp535
a(dp536
a(dp537
a(dp538
a(dp539
a(dp540
a(dp541
a(dp542
a(dp543
a(dp544
a(dp545
a(dp546
a(dp547
a(dp548
a(dp549
a(dp550
a(dp551
a(dp552
a(dp553
a(dp554
a(dp555
a(dp556
a(dp557
a(dp558
a(dp559
a(dp560
aa(lp561
I60
aI60
aI36
aI36
aa(lp562
(lp563
I0
aI2
aI3
aI5
aI7
aI8
aI10
aa(lp564
I0
aI2
aI3
aI5
aI7
aI8
aI10
aa(lp565
I0
aI2
aI3
aI5
aI7
aI8
aI10
aa(lp566
I0
aI2
aI3
aI5
aI7
aI8
aI10
aa(lp567
I0
aI2
aI3
aI5
aI7
aI8
aI10
aa(lp568
I0
aI1
aI2
aI3
aI4
aI5
aI6
aI7
aI8
aI9
aI10
aI11
aaa(lp569
(lp570
(lp571
I0
aI0
aI0
aI0
aI0
aI0
aI0
aI0
aI0
aI0
aI0
aI0
aa(lp572
I0
aI0
aI0
aI0
aI0
aI0
aI0
aI0
aI0
aI0
aI0
aI0
aa(lp573
I0
aI0
aI0
aI0
aI0
aI0
aI0
aI0
aI0
aI0
aI0
aI0
aa(lp574
I0
aI0
aI0
aI0
aI0
aI0
aI0
aI0
aI0
aI0
aI0
aI0
aaa(lp575
(lp576
I0
aI0
aI0
aI0
aI0
aI0
aI0
aI0
aI0
aI0
aI0
aI0
aa(lp577
I0
aI0
aI0
aI0
aI0
aI0
aI0
aI0
aI0
aI0
aI0
aI0
aa(lp578
I0
aI0
aI0
aI0
aI0
aI0
aI0
aI0
aI0
aI0
aI0
aI0
aa(lp579
I0
aI0
aI0
aI0
aI0
aI0
aI0
aI0
aI0
aI0
aI0
aI0
aaa(lp580
(lp581
I0
aI0
aI0
aI0
aI0
aI0
aI0
aI0
aI0
aI0
aI0
aI0
aa(lp582
I0
aI0
aI0
aI0
aI0
aI0
aI0
aI0
aI0
aI0
aI0
aI0
aa(lp583
I0
aI0
aI0
aI0
aI0
aI0
aI0
aI0
aI0
aI0
aI0
aI0
aa(lp584
I0
aI0
aI0
aI0
aI0
aI0
aI0
aI0
aI0
aI0
aI0
aI0
aaa(lp585
(lp586
I0
aI0
aI0
aI0
aI0
aI0
aI0
aI0
aI0
aI0
aI0
aI0
aa(lp587
I0
aI0
aI0
aI0
aI0
aI0
aI0
aI0
aI0
aI0
aI0
aI0
aa(lp588
I0
aI0
aI0
aI0
aI0
aI0
aI0
aI0
aI0
aI0
aI0
aI0
aa(lp589
I0
aI0
aI0
aI0
aI0
aI0
aI0
aI0
aI0
aI0
aI0
aI0
aaaa(lp590
(lp591
I0
aI0
aI0
aI0
aI0
aI0
aI0
aI0
aI0
aI0
aI0
aI0
aa(lp592
I0
aI0
aI0
aI0
aI0
aI0
aI0
aI0
aI0
aI0
aI0
aI0
aa(lp593
I0
aI0
aI0
aI0
aI0
aI0
aI0
aI0
aI0
aI0
aI0
aI0
aa(lp594
I0
aI0
aI0
aI0
aI0
aI0
aI0
aI0
aI0
aI0
aI0
aI0
aaaa(lp595
(lp596
I0
aI0
aI0
aI0
a(lp597
(lp598
F0.5
aI48
aI114
aI2
ag5
aa(lp599
F0.16666666666667
aI44
aI108
aI2
ag7
aa(lp600
F0.06504901733327
aI48
aI0
aI2
ag9
aa(lp601
F0.20615755267014
aI44
aI0
aI2
ag11
aa(lp602
F0.062126763329919
aI48
aI120
aI2
ag13
aa(lp603
F0.33333333333333
aI51
aI101
aI2
ag15
aa(lp604
F0.085501514668674
aI48
aI0
aI2
ag17
aa(lp605
F6.8872978873308
aI51
aI0
aI2
ag19
aa(lp606
F0.027200598000491
aI50
aI97
aI2
ag21
aa(lp607
F0.33333333333333
aI51
aI101
aI2
ag23
aa(lp608
F0.13804862466592
aI50
aI0
aI2
ag25
aa(lp609
F0.19528470866741
aI53
aI115
aI2
ag27
aa(lp610
F0.096478574671588
aI51
aI0
aI2
ag29
aa(lp611
F3.7368547586617
aI55
aI95
aI2
ag31
aa(lp612
F0.13357913666793
aI53
aI0
aI2
ag33
aa(lp613
F0.033087529998738
aI56
aI98
aI2
ag35
aa(lp614
F0.11587442333015
aI55
aI0
aI2
ag37
aa(lp615
F1.8392790426684
aI56
aI0
aI2
ag39
aa(lp616
F0.044846534001408
aI55
aI100
aI2
ag41
aa(lp617
F1.0
aI53
aI97
aI2
ag43
aa(lp618
F0.26461140599713
aI55
aI0
aI2
ag45
aa(lp619
F0.068721927336203
aI51
aI9
aI2
ag47
aa(lp620
F0.13680247666586
aI53
aI0
aI2
ag49
aa(lp621
F0.19653085666748
aI50
aI92
aI2
ag51
aa(lp622
F0.10556897466692
aI51
aI0
aI2
ag53
aa(lp623
F0.22776435866642
aI48
aI118
aI2
ag55
aa(lp624
F0.13934973066595
aI50
aI0
aI2
ag57
aa(lp625
F7.117556411334
aI48
aI0
aI2
ag59
aa(lp626
F0.076427191333398
aI45
aI87
aI2
ag61
aa(lp627
F0.33333333333334
aI46
aI98
aI2
ag63
aa(lp628
F0.2524019486688
aI45
aI0
aI2
ag65
aa(lp629
F0.080931384664535
aI48
aI114
aI2
ag67
aa(lp630
F0.1268170686623
aI46
aI0
aI2
ag69
aa(lp631
F4.8731829313377
aI43
aI24
aI2
ag71
aa(lp632
F0.040814120002324
aI48
aI0
aI2
ag73
aa(lp633
F2.2794121599945
aI43
aI0
aI2
ag75
aa(lp634
F0.67977372000314
aI0
aI0
aI0
ag77
aaaI0
aI0
a(lp635
(lp636
F0.42547741800081
aI36
aI114
aI2
ag80
aa(lp637
F0.32425749200047
aI39
aI97
aI2
ag82
aa(lp638
F0.02168556000106
aI36
aI0
aI2
ag84
aa(lp639
F0.30341418399621
aI41
aI110
aI2
ag86
aa(lp640
F0.00018656800239114
aI39
aI0
aI2
ag88
aa(lp641
F0.30231893999735
aI43
aI114
aI2
ag90
aa(lp642
F0.010694780001359
aI41
aI0
aI2
ag92
aa(lp643
F0.31415531400125
aI43
aI0
aI2
ag94
aa(lp644
F0.072780829999829
aI46
aI109
aI2
ag96
aa(lp645
F0.3135757439959
aI48
aI116
aI2
ag98
aa(lp646
F0.010306004005542
aI46
aI0
aI2
ag100
aa(lp647
F0.30309675199533
aI46
aI115
aI2
ag102
aa(lp648
F0.02062745999865
aI48
aI0
aI2
ag104
aa(lp649
F3.8779098440064
aI45
aI82
aI2
ag106
aa(lp650
F0.09537153999554
aI46
aI0
aI2
ag108
aa(lp651
F3.6102586499983
aI46
aI68
aI2
ag110
aa(lp652
F0.11413744000311
aI45
aI0
aI2
ag112
aa(lp653
F4.0365917960007
aI41
aI94
aI2
ag114
aa(lp654
F0.1469020059958
aI46
aI0
aI2
ag116
aa(lp655
F2.0735368020032
aI43
aI101
aI2
ag118
aa(lp656
F0.12608478200127
aI41
aI0
aI2
ag120
aa(lp657
F1.7762135500016
aI36
aI109
aI2
ag122
aa(lp658
F0.073024407996854
aI43
aI0
aI2
ag124
aa(lp659
F7.905950196
aI39
aI97
aI2
ag126
aa(lp660
F0.12608750000072
aI36
aI0
aI2
ag128
aa(lp661
F0.54521233800187
aI36
aI100
aI2
ag130
aa(lp662
F0.15632358999574
aI39
aI0
aI2
ag132
aa(lp663
F6.9038185120028
aI36
aI0
aI2
ag134
aa(lp664
F0.0099999999999909
aI0
aI0
aI0
ag136
aaaI0
aI0
aI0
aI0
a(lp665
(lp666
F1.3333333333333
aI41
aI123
aI3
ag139
aa(lp667
F2.999
aI41
aI0
aI3
ag141
aa(lp668
F-1.3323333333333
aI0
aI0
aI0
ag143
aaa(lp669
(lp670
F0.0
aI36
aI124
aI3
ag146
aa(lp671
F0.16987656823176
aI36
aI0
aI3
ag148
aa(lp672
F0.49679009843491
aI36
aI123
aI3
ag150
aa(lp673
F2.6150870460042
aI36
aI0
aI3
ag152
aa(lp674
F0.71824628732914
aI0
aI0
aI0
ag154
aaa(lp675
(lp676
F2.3333333333333
aI44
aI116
aI3
ag157
aa(lp677
F0.10516025999823
aI44
aI0
aI3
ag159
aa(lp678
F0.56150640666844
aI44
aI115
aI3
ag161
aa(lp679
F0.18831306799984
aI44
aI0
aI3
ag163
aa(lp680
F0.81168693200016
aI0
aI0
aI0
ag165
aaa(lp681
(lp682
F1.0
aI38
aI124
aI3
ag168
aa(lp683
F2.1933984479983
aI38
aI0
aI3
ag170
aa(lp684
F0.80660155200167
aI0
aI0
aI0
ag172
aaa(lp685
(lp686
F2.3483075839977
aI44
aI110
aI3
ag175
aa(lp687
F0.094599066003866
aI44
aI0
aI3
ag177
aa(lp688
F0.606121083998
aI44
aI112
aI3
ag179
aa(lp689
F0.12586005999765
aI44
aI0
aI3
ag181
aa(lp690
F3.8680474860012
aI44
aI118
aI3
ag183
aa(lp691
F0.1153973679975
aI44
aI0
aI3
ag185
aa(lp692
F0.2192331220067
aI44
aI116
aI3
ag187
aa(lp693
F0.11492876999546
aI44
aI0
aI3
ag189
aa(lp694
F0.50750546000199
aI0
aI0
aI0
ag191
aaaI0
aI0
a(lp695
(lp696
F0.0
aI33
aI117
aI1
ag194
aa(lp697
F3.9169621385445
aI33
aI0
aI1
ag196
aa(lp698
F0.083037861455523
aI34
aI104
aI1
ag198
aa(lp699
F2.0
aI33
aI114
aI1
ag200
aa(lp700
F0.0033232040004805
aI34
aI0
aI1
ag202
aa(lp701
F1.9411459359981
aI33
aI0
aI1
ag204
aa(lp702
F0.055530860001454
aI31
aI112
aI1
ag206
aa(lp703
F7.4933155359977
aI31
aI0
aI1
ag208
aa(lp704
F0.0066844640023191
aI29
aI109
aI1
ag210
aa(lp705
F0.25119402600103
aI29
aI0
aI1
ag212
aa(lp706
F0.082139307332303
aI31
aI114
aI1
ag214
aa(lp707
F0.0
aI29
aI32
aI1
ag216
aa(lp708
F0.10360912400211
aI29
aI0
aI1
ag218
aa(lp709
F5.8963908759979
aI36
aI79
aI1
ag220
aa(lp710
F0.066298056000964
aI31
aI0
aI1
ag222
aa(lp711
F1.1003686106657
aI38
aI31
aI1
ag224
aa(lp712
F0.02627779332882
aI36
aI0
aI1
ag226
aa(lp713
F23.972722206671
aI38
aI0
aI1
ag228
aa(lp714
F-22.999
aI0
aI0
aI0
ag230
aaaI0
aI0
aI0
aI0
aI0
aI0
aI0
aI0
aI0
aI0
aI0
aI0
aI0
aI0
aI0
aI0
aI0
aI0
aI0
a(lp715
(lp716
F0.66666666666667
aI69
aI112
aI0
ag233
aa(lp717
F0.20819120800297
aI69
aI0
aI0
ag235
aa(lp718
F0.12514212533036
aI70
aI117
aI0
ag237
aa(lp719
F0.18926928599831
aI70
aI0
aI0
ag239
aa(lp720
F0.14406404733503
aI72
aI116
aI0
ag241
aa(lp721
F0.13501328599523
aI72
aI0
aI0
ag243
aa(lp722
F0.19832004733811
aI69
aI105
aI0
ag245
aa(lp723
F0.33333333333333
aI70
aI112
aI0
ag247
aa(lp724
F0.085295714665941
aI69
aI0
aI0
ag249
aa(lp725
F0.12356323333127
aI70
aI0
aI0
ag251
aa(lp726
F0.12447438533612
aI72
aI116
aI0
ag253
aa(lp727
F0.15832843200042
aI72
aI0
aI0
ag255
aa(lp728
F0.17500490133292
aI69
aI116
aI0
ag257
aa(lp729
F0.33333333333333
aI70
aI112
aI0
ag259
aa(lp730
F0.10593160466184
aI69
aI0
aI0
ag261
aa(lp731
F0.093268755333459
aI70
aI0
aI0
ag263
aa(lp732
F0.13413297333803
aI72
aI115
aI0
ag265
aa(lp733
F0.14565113199933
aI72
aI0
aI0
ag267
aa(lp734
F0.187682201334
aI70
aI114
aI0
ag269
aa(lp735
F0.2085986940001
aI70
aI0
aI0
ag271
aa(lp736
F0.12473463933323
aI67
aI118
aI0
ag273
aa(lp737
F0.15706758000306
aI67
aI0
aI0
ag275
aa(lp738
F0.17626575333027
aI65
aI118
aI0
ag277
aa(lp739
F0.17875497799832
aI65
aI0
aI0
ag279
aa(lp740
F0.15457835533501
aI67
aI114
aI0
ag281
aa(lp741
F0.14733588600211
aI67
aI0
aI0
ag283
aa(lp742
F0.18599744733122
aI65
aI116
aI0
ag285
aa(lp743
F0.19825500199659
aI65
aI0
aI0
ag287
aa(lp744
F0.13507833133675
aI63
aI119
aI0
ag289
aa(lp745
F0.16810757399799
aI63
aI0
aI0
ag291
aa(lp746
F0.16522575933535
aI62
aI116
aI0
ag293
aa(lp747
F0.15658406599687
aI62
aI0
aI0
ag295
aa(lp748
F0.17674926733647
aI60
aI118
aI0
ag297
aa(lp749
F0.18826931199874
aI60
aI0
aI0
ag299
aa(lp750
F0.1450640213346
aI63
aI118
aI0
ag301
aa(lp751
F0.17671412399795
aI63
aI0
aI0
ag303
aa(lp752
F0.15661920933538
aI62
aI118
aI0
ag305
aa(lp753
F0.16778856800374
aI62
aI0
aI0
ag307
aa(lp754
F0.16554476532959
aI60
aI122
aI0
ag309
aa(lp755
F0.21841053000389
aI60
aI0
aI0
ag311
aa(lp756
F0.11492280332944
aI63
aI119
aI0
ag313
aa(lp757
F0.16737478799769
aI63
aI0
aI0
ag315
aa(lp758
F0.16595854533565
aI62
aI118
aI0
ag317
aa(lp759
F0.17736932000116
aI62
aI0
aI0
ag319
aa(lp760
F0.15596401333217
aI60
aI123
aI0
ag321
aa(lp761
F0.19823132600141
aI60
aI0
aI0
ag323
aa(lp762
F0.13510200733193
aI62
aI121
aI0
ag325
aa(lp763
F0.15724856200541
aI62
aI0
aI0
ag327
aa(lp764
F0.17608477132793
aI60
aI121
aI0
ag329
aa(lp765
F0.18865882799582
aI60
aI0
aI0
ag331
aa(lp766
F0.14467450533751
aI0
aI0
aI0
ag333
aaa(lp767
(lp768
F2.6666666666667
aI75
aI112
aI0
ag336
aa(lp769
F0.14602800000284
aI75
aI0
aI0
ag338
aa(lp770
F0.18730533333049
aI77
aI116
aI0
ag340
aa(lp771
F0.14661027400143
aI77
aI0
aI0
ag342
aa(lp772
F0.1867230593319
aI82
aI114
aI0
ag344
aa(lp773
F0.13663457999792
aI82
aI0
aI0
ag346
aa(lp774
F0.19669875333542
aI75
aI114
aI0
ag348
aa(lp775
F0.12525323400041
aI75
aI0
aI0
ag350
aa(lp776
F0.20808009933292
aI77
aI115
aI0
ag352
aa(lp777
F0.15646494399698
aI77
aI0
aI0
ag354
aa(lp778
F0.17686838933635
aI82
aI110
aI0
ag356
aa(lp779
F0.14645246999862
aI82
aI0
aI0
ag358
aa(lp780
F0.18688086333471
aI75
aI118
aI0
ag360
aa(lp781
F0.15718591399491
aI75
aI0
aI0
ag362
aa(lp782
F0.17614741933842
aI77
aI116
aI0
ag364
aa(lp783
F0.15732543999911
aI77
aI0
aI0
ag366
aa(lp784
F0.17600789333422
aI82
aI110
aI0
ag368
aa(lp785
F0.14789741599816
aI82
aI0
aI0
ag370
aa(lp786
F0.18543591733517
aI75
aI119
aI0
ag372
aa(lp787
F0.16656886800047
aI75
aI0
aI0
ag374
aa(lp788
F0.16676446533287
aI77
aI115
aI0
ag376
aa(lp789
F0.17709857400041
aI77
aI0
aI0
ag378
aa(lp790
F0.15623475933292
aI82
aI103
aI0
ag380
aa(lp791
F0.13608689600369
aI82
aI0
aI0
ag382
aa(lp792
F0.19724643732964
aI75
aI118
aI0
ag384
aa(lp793
F0.16808857000433
aI75
aI0
aI0
ag386
aa(lp794
F0.165244763329
aI77
aI116
aI0
ag388
aa(lp795
F0.17739135000011
aI77
aI0
aI0
ag390
aa(lp796
F0.15594198333323
aI82
aI108
aI0
ag392
aa(lp797
F0.15715044399985
aI82
aI0
aI0
ag394
aa(lp798
F0.17618288933348
aI77
aI116
aI0
ag396
aa(lp799
F0.15596604200255
aI77
aI0
aI0
ag398
aa(lp800
F0.17736729133079
aI75
aI116
aI0
ag400
aa(lp801
F0.16715974399995
aI75
aI0
aI0
ag402
aa(lp802
F0.16617358933339
aI77
aI121
aI0
ag404
aa(lp803
F0.15673195399722
aI77
aI0
aI0
ag406
aa(lp804
F0.17660137933611
aI75
aI121
aI0
ag408
aa(lp805
F0.2311837840025
aI75
aI0
aI0
ag410
aa(lp806
F0.10214954933084
aI0
aI0
aI0
ag412
aaaI0
a(lp807
(lp808
F1.1666666666667
aI38
aI120
aI3
ag415
aa(lp809
F0.57341577199986
aI38
aI0
aI3
ag417
aa(lp810
F0.5932508946668
aI38
aI118
aI3
ag419
aa(lp811
F0.22087446399382
aI38
aI0
aI3
ag421
aa(lp812
F0.44579220267284
aI38
aI122
aI3
ag423
aa(lp813
F3.999
aI38
aI0
aI3
ag425
aa(lp814
F-2.999
aI0
aI0
aI0
ag427
aaaI0
a(lp815
(lp816
F0.0339524209503
aI36
aI114
aI1
aS'on'
p817
aa(lp818
F-0.0099276602268219
aI36
aI0
aI1
aS'off'
p819
aa(lp820
F0.58983045527384
aI36
aI117
aI1
aS'on'
p821
aa(lp822
F0.25254744600534
aI36
aI0
aI1
aS'off'
p823
aa(lp824
F1.7782105819933
aI48
aI115
aI1
aS'on'
p825
aa(lp826
F0.16678148800565
aI48
aI0
aI1
aS'off'
p827
aa(lp828
F0.49364105999848
aI48
aI117
aI1
aS'on'
p829
aa(lp830
F0.17622927799675
aI48
aI0
aI1
aS'off'
p831
aa(lp832
F0.45929130400327
aI36
aI111
aI1
aS'on'
p833
aa(lp834
F0.17767172399908
aI36
aI0
aI1
aS'off'
p835
aa(lp836
F0.57471016400086
aI36
aI111
aI1
aS'on'
p837
aa(lp838
F0.18812948199775
aI36
aI0
aI1
aS'off'
p839
aa(lp840
F1.8301636340038
aI46
aI114
aI1
aS'on'
p841
aa(lp842
F0.26084725599503
aI45
aI111
aI1
aS'on'
p843
aa(lp844
F0.030876714001352
aI46
aI0
aI1
aS'off'
p845
aa(lp846
F0.23078976200486
aI45
aI0
aI1
aS'off'
p847
aa(lp848
F0.052463885993348
aI46
aI101
aI1
aS'on'
p849
aa(lp850
F0.27273047800554
aI45
aI116
aI1
aS'on'
p851
aa(lp852
F0.052793211994867
aI46
aI0
aI1
aS'off'
p853
aa(lp854
F0.3756560000038
aI45
aI0
aI1
aS'off'
p855
aa(lp856
F0.031300905997341
aI43
aI114
aI1
aS'on'
p857
aa(lp858
F0.34548971999902
aI41
aI99
aI1
aS'on'
p859
aa(lp860
F0.021151508000912
aI43
aI0
aI1
aS'off'
p861
aa(lp862
F0.20984379600122
aI41
aI0
aI1
aS'off'
p863
aa(lp864
F0.020670215999417
aI43
aI109
aI1
aS'on'
p865
aa(lp866
F0.2513171899991
aI43
aI0
aI1
aS'off'
p867
aa(lp868
F0.062508975999663
aI45
aI98
aI1
aS'on'
p869
aa(lp870
F0.27106196000386
aI46
aI80
aI1
aS'on'
p871
aa(lp872
F0.083466507996491
aI45
aI0
aI1
aS'off'
p873
aa(lp874
F0.20947980000346
aI48
aI65
aI1
aS'on'
p875
aa(lp876
F0.062579694000306
aI46
aI0
aI1
aS'off'
p877
aa(lp878
F0.31378610200045
aI46
aI107
aI1
aS'on'
p879
aa(lp880
F0.052731575997313
aI48
aI0
aI1
aS'off'
p881
aa(lp882
F0.62863959599781
aI45
aI113
aI1
aS'on'
p883
aa(lp884
F0.062687404002645
aI46
aI0
aI1
aS'off'
p885
aa(lp886
F0.58512682199944
aI45
aI0
aI1
aS'off'
p887
aa(lp888
F0.011214660000405
aI41
aI106
aI1
aS'on'
p889
aa(lp890
F0.68982864399732
aI34
aI115
aI1
aS'on'
p891
aa(lp892
F0.073392138001509
aI41
aI0
aI1
aS'off'
p893
aa(lp894
F0.14699606999784
aI34
aI0
aI1
aS'off'
p895
aa(lp896
F0.51091308800096
aI34
aI119
aI1
aS'on'
p897
aa(lp898
F0.51360635600577
aI34
aI0
aI1
aS'off'
p899
aa(lp900
F0.85481858399726
aI0
aI0
aI0
aS'timeAfterLastHit'
p901
aaaI0
a(lp902
(lp903
F5.6666666666667
aI69
aI112
aI1
ag430
aa(lp904
F0.12510246999591
aI69
aI0
aI1
ag432
aa(lp905
F0.20823086333742
aI70
aI103
aI1
ag434
aa(lp906
F0.12495044599927
aI70
aI0
aI1
ag436
aa(lp907
F0.20838288733406
aI72
aI114
aI1
ag438
aa(lp908
F0.11522732600133
aI72
aI0
aI1
ag440
aa(lp909
F0.55143934066534
aI0
aI0
aI0
ag442
aaa(lp910
(lp911
F1.6670055720024
aI72
aI116
aI1
ag445
aa(lp912
F0.13616765999905
aI72
aI0
aI1
ag447
aa(lp913
F0.16755542999454
aI74
aI116
aI1
ag449
aa(lp914
F0.13488422000228
aI74
aI0
aI1
ag451
aa(lp915
F0.18904788600048
aI75
aI114
aI1
ag453
aa(lp916
F0.10355724200053
aI75
aI0
aI1
ag455
aa(lp917
F0.60178199000075
aI0
aI0
aI0
ag457
aaaI0
aI0
aI0
aI0
aI0
aI0
aI0
aI0
aI0
aI0
aI0
aI0
aI0
aI0
aI0
aI0
aI0
aI0
aI0
aI0
aI0
aI0
aI0
aI0
aI0
aI0
aI0
aI0
aI0
aI0
aI0
aI0
aI0
aI0
aI0
aI0
aI0
aI0
aI0
aI0
aI0
aI0
aI0
aI0
aI0
aI0
aI0
aI0
aI0
aI0
aI0
aI0
aa(lp918
(dp919
a(dp920
a(dp921
a(dp922
a(dp923
g464
I34
sg465
I0
sa(dp924
g465
I0
sa(dp925
g465
I0
sa(dp926
g464
I37
sg465
I0
sa(dp927
a(dp928
g465
I0
sa(dp929
a(dp930
a(dp931
g464
I44
sg465
I0
sa(dp932
g464
I45
sg465
I1
sa(dp933
g464
I46
sg465
I1
sa(dp934
g464
I47
sg465
I0
sa(dp935
g464
I48
sg465
I0
sa(dp936
g465
I0
sa(dp937
a(dp938
g464
I53
sg465
I0
sa(dp939
a(dp940
a(dp941
a(dp942
a(dp943
a(dp944
g465
I1
sa(dp945
a(dp946
a(dp947
g465
I0
sa(dp948
g465
I0
sa(dp949
g465
I0
sa(dp950
g465
I0
sa(dp951
g465
I0
sa(dp952
g465
I1
sa(dp953
a(dp954
a(dp955
a(dp956
a(dp957
g465
I0
sa(dp958
g464
I77
sg465
I0
sa(dp959
g464
I78
sg465
I0
sa(dp960
g465
I1
sa(dp961
g464
I82
sg465
I0
sa(dp962
g465
I0
sa(dp963
g464
I84
sg465
I01
sa(dp964
a(dp965
g464
I86
sg465
I0
sa(dp966
g464
I87
sg465
I0
sa(dp967
a(dp968
a(dp969
a(dp970
a(dp971
a(dp972
a(dp973
a(dp974
a(dp975
a(dp976
a(dp977
a(dp978
a(dp979
a(dp980
a(dp981
a(dp982
a(dp983
a(dp984
a(dp985
a(dp986
a(dp987
a(dp988
a(dp989
a(dp990
a(dp991
a(dp992
a(dp993
a(dp994
a(dp995
a(dp996
a(dp997
a(dp998
a(dp999
a(dp1000
a(dp1001
a(dp1002
a(dp1003
a(dp1004
a(dp1005
a(dp1006
a(dp1007
a(dp1008
a(dp1009
a(dp1010
a(dp1011
a(dp1012
a(dp1013
a(dp1014
a(dp1015
a(dp1016
a(dp1017
a(dp1018
aa(lp1019
I60
aI60
aI36
aI36
aa(lp1020
(lp1021
I0
aI2
aI3
aI5
aI7
aI8
aI10
aa(lp1022
I0
aI2
aI3
aI5
aI7
aI8
aI10
aa(lp1023
I0
aI2
aI3
aI5
aI7
aI8
aI10
aa(lp1024
I0
aI2
aI3
aI5
aI7
aI8
aI10
aa(lp1025
I0
aI2
aI3
aI5
aI7
aI8
aI10
aa(lp1026
I0
aI1
aI2
aI3
aI4
aI5
aI6
aI7
aI8
aI9
aI10
aI11
aaa(lp1027
(lp1028
(lp1029
I0
aI0
aI0
aI0
aI0
aI0
aI0
aI0
aI0
aI0
aI0
aI0
aa(lp1030
I0
aI0
aI0
aI0
aI0
aI0
aI0
aI0
aI0
aI0
aI0
aI0
aa(lp1031
I0
aI0
aI0
aI0
aI0
aI0
aI0
aI0
aI0
aI0
aI0
aI0
aa(lp1032
I0
aI0
aI0
aI0
aI0
aI0
aI0
aI0
aI0
aI0
aI0
aI0
aaa(lp1033
(lp1034
I0
aI0
aI0
aI0
aI0
aI0
aI0
aI0
aI0
aI0
aI0
aI0
aa(lp1035
I0
aI0
aI0
aI0
aI0
aI0
aI0
aI0
aI0
aI0
aI0
aI0
aa(lp1036
I0
aI0
aI0
aI0
aI0
aI0
aI0
aI0
aI0
aI0
aI0
aI0
aa(lp1037
I0
aI0
aI0
aI0
aI0
aI0
aI0
aI0
aI0
aI0
aI0
aI0
aaa(lp1038
(lp1039
I0
aI0
aI0
aI0
aI0
aI0
aI0
aI0
aI0
aI0
aI0
aI0
aa(lp1040
I0
aI0
aI0
aI0
aI0
aI0
aI0
aI0
aI0
aI0
aI0
aI0
aa(lp1041
I0
aI0
aI0
aI0
aI0
aI0
aI0
aI0
aI0
aI0
aI0
aI0
aa(lp1042
I0
aI0
aI0
aI0
aI0
aI0
aI0
aI0
aI0
aI0
aI0
aI0
aaa(lp1043
(lp1044
I0
aI0
aI0
aI0
aI0
aI0
aI0
aI0
aI0
aI0
aI0
aI0
aa(lp1045
I0
aI0
aI0
aI0
aI0
aI0
aI0
aI0
aI0
aI0
aI0
aI0
aa(lp1046
I0
aI0
aI0
aI0
aI0
aI0
aI0
aI0
aI0
aI0
aI0
aI0
aa(lp1047
I0
aI0
aI0
aI0
aI0
aI0
aI0
aI0
aI0
aI0
aI0
aI0
aaaa(lp1048
(lp1049
I0
aI0
aI0
aI0
aI0
aI0
aI0
aI0
aI0
aI0
aI0
aI0
aa(lp1050
I0
aI0
aI0
aI0
aI0
aI0
aI0
aI0
aI0
aI0
aI0
aI0
aa(lp1051
I0
aI0
aI0
aI0
aI0
aI0
aI0
aI0
aI0
aI0
aI0
aI0
aa(lp1052
I0
aI0
aI0
aI0
aI0
aI0
aI0
aI0
aI0
aI0
aI0
aI0
aaaa(lp1053
(lp1054
I0
aI0
aI0
aI0
a(lp1055
(lp1056
F0.089126291997673
aI36
aI120
aI2
aS'on'
p1057
aa(lp1058
F0.2715899399991
aI39
aI113
aI2
aS'on'
p1059
aa(lp1060
F0.030812126002274
aI36
aI0
aI2
aS'off'
p1061
aa(lp1062
F0.28184259800037
aI39
aI0
aI2
aS'off'
p1063
aa(lp1064
F0.073183663997042
aI41
aI116
aI2
aS'on'
p1065
aa(lp1066
F0.3025290680016
aI43
aI114
aI2
aS'on'
p1067
aa(lp1068
F0.010769826003525
aI41
aI0
aI2
aS'off'
p1069
aa(lp1070
F0.27207975599595
aI43
aI0
aI2
aS'off'
p1071
aa(lp1072
F0.031332620004832
aI46
aI103
aI2
aS'on'
p1073
aa(lp1074
F0.34566576199722
aI46
aI0
aI2
aS'off'
p1075
aa(lp1076
F0.021494307999092
aI48
aI119
aI2
aS'on'
p1077
aa(lp1078
F0.30300307599828
aI46
aI114
aI2
aS'on'
p1079
aa(lp1080
F0.0098417219996918
aI48
aI0
aI2
aS'off'
p1081
aa(lp1082
F4.2256563800038
aI44
aI96
aI2
aS'on'
p1083
aa(lp1084
F0.052547459999914
aI46
aI0
aI2
aS'off'
p1085
aa(lp1086
F1.893356544002
aI46
aI91
aI2
aS'on'
p1087
aa(lp1088
F0.10432196799957
aI44
aI0
aI2
aS'off'
p1089
aa(lp1090
F1.8509207839961
aI45
aI93
aI2
aS'on'
p1091
aa(lp1092
F0.052947836004023
aI46
aI0
aI2
aS'off'
p1093
aa(lp1094
F4.0497889719991
aI41
aI109
aI2
aS'on'
p1095
aa(lp1096
F0.14560578399687
aI45
aI0
aI2
aS'off'
p1097
aa(lp1098
F0.020932730003551
aI31
aI43
aI2
aS'on'
p1099
aa(lp1100
F0.13584158999583
aI31
aI0
aI2
aS'off'
p1101
aa(lp1102
F0.44837403199926
aI41
aI0
aI2
aS'off'
p1103
aa(lp1104
F0.00013855600263923
aI43
aI83
aI2
aS'on'
p1105
aa(lp1106
F0.3143556540017
aI44
aI93
aI2
aS'on'
p1107
aa(lp1108
F0.11415941800078
aI43
aI0
aI2
aS'off'
p1109
aa(lp1110
F0.55367632999696
aI43
aI112
aI2
aS'on'
p1111
aa(lp1112
F0.094220634004159
aI44
aI0
aI2
aS'off'
p1113
aa(lp1114
F0.23136293599964
aI41
aI104
aI2
aS'on'
p1115
aa(lp1116
F0.14633933000005
aI43
aI0
aI2
aS'off'
p1117
aa(lp1118
F0.93007676999696
aI39
aI88
aI2
aS'on'
p1119
aa(lp1120
F0.072320892002608
aI41
aI0
aI2
aS'off'
p1121
aa(lp1122
F0.62736230999872
aI38
aI79
aI2
aS'on'
p1123
aa(lp1124
F0.10413303400128
aI39
aI0
aI2
aS'off'
p1125
aa(lp1126
F0.1983718259944
aI36
aI99
aI2
aS'on'
p1127
aa(lp1128
F0.052651612000773
aI38
aI0
aI2
aS'off'
p1129
aa(lp1130
F13.916068534003
aI36
aI0
aI2
aS'off'
p1131
aa(lp1132
F0.62119732599967
aI0
aI0
aI0
aS'timeAfterLastHit'
p1133
aaaI0
aI0
a(lp1134
(lp1135
F0.42547741800081
aI36
aI114
aI2
ag80
aa(lp1136
F0.32425749200047
aI39
aI97
aI2
ag82
aa(lp1137
F0.02168556000106
aI36
aI0
aI2
ag84
aa(lp1138
F0.30341418399621
aI41
aI110
aI2
ag86
aa(lp1139
F0.00018656800239114
aI39
aI0
aI2
ag88
aa(lp1140
F0.30231893999735
aI43
aI114
aI2
ag90
aa(lp1141
F0.010694780001359
aI41
aI0
aI2
ag92
aa(lp1142
F0.31415531400125
aI43
aI0
aI2
ag94
aa(lp1143
F0.072780829999829
aI46
aI109
aI2
ag96
aa(lp1144
F0.3135757439959
aI48
aI116
aI2
ag98
aa(lp1145
F0.010306004005542
aI46
aI0
aI2
ag100
aa(lp1146
F0.30309675199533
aI46
aI115
aI2
ag102
aa(lp1147
F0.02062745999865
aI48
aI0
aI2
ag104
aa(lp1148
F3.8779098440064
aI45
aI82
aI2
ag106
aa(lp1149
F0.09537153999554
aI46
aI0
aI2
ag108
aa(lp1150
F3.6102586499983
aI46
aI68
aI2
ag110
aa(lp1151
F0.11413744000311
aI45
aI0
aI2
ag112
aa(lp1152
F4.0365917960007
aI41
aI94
aI2
ag114
aa(lp1153
F0.1469020059958
aI46
aI0
aI2
ag116
aa(lp1154
F2.0735368020032
aI43
aI101
aI2
ag118
aa(lp1155
F0.12608478200127
aI41
aI0
aI2
ag120
aa(lp1156
F1.7762135500016
aI36
aI109
aI2
ag122
aa(lp1157
F0.073024407996854
aI43
aI0
aI2
ag124
aa(lp1158
F7.905950196
aI39
aI97
aI2
ag126
aa(lp1159
F0.12608750000072
aI36
aI0
aI2
ag128
aa(lp1160
F0.54521233800187
aI36
aI100
aI2
ag130
aa(lp1161
F0.15632358999574
aI39
aI0
aI2
ag132
aa(lp1162
F6.9038185120028
aI36
aI0
aI2
ag134
aa(lp1163
F0.0099999999999909
aI0
aI0
aI0
ag136
aaaI0
aI0
aI0
aI0
a(lp1164
(lp1165
F1.3333333333333
aI41
aI123
aI3
ag139
aa(lp1166
F2.999
aI41
aI0
aI3
ag141
aa(lp1167
F-1.3323333333333
aI0
aI0
aI0
ag143
aaa(lp1168
(lp1169
F0.0
aI36
aI124
aI3
ag146
aa(lp1170
F0.16987656823176
aI36
aI0
aI3
ag148
aa(lp1171
F0.49679009843491
aI36
aI123
aI3
ag150
aa(lp1172
F2.6150870460042
aI36
aI0
aI3
ag152
aa(lp1173
F0.71824628732914
aI0
aI0
aI0
ag154
aaa(lp1174
(lp1175
F2.3333333333333
aI44
aI116
aI3
ag157
aa(lp1176
F0.10516025999823
aI44
aI0
aI3
ag159
aa(lp1177
F0.56150640666844
aI44
aI115
aI3
ag161
aa(lp1178
F0.18831306799984
aI44
aI0
aI3
ag163
aa(lp1179
F0.81168693200016
aI0
aI0
aI0
ag165
aaa(lp1180
(lp1181
F1.0
aI38
aI124
aI3
ag168
aa(lp1182
F2.1933984479983
aI38
aI0
aI3
ag170
aa(lp1183
F0.80660155200167
aI0
aI0
aI0
ag172
aaa(lp1184
(lp1185
F2.3483075839977
aI44
aI110
aI3
ag175
aa(lp1186
F0.094599066003866
aI44
aI0
aI3
ag177
aa(lp1187
F0.606121083998
aI44
aI112
aI3
ag179
aa(lp1188
F0.12586005999765
aI44
aI0
aI3
ag181
aa(lp1189
F3.8680474860012
aI44
aI118
aI3
ag183
aa(lp1190
F0.1153973679975
aI44
aI0
aI3
ag185
aa(lp1191
F0.2192331220067
aI44
aI116
aI3
ag187
aa(lp1192
F0.11492876999546
aI44
aI0
aI3
ag189
aa(lp1193
F0.50750546000199
aI0
aI0
aI0
ag191
aaaI0
aI0
aI0
aI0
aI0
aI0
aI0
aI0
aI0
aI0
aI0
aI0
aI0
aI0
aI0
aI0
aI0
aI0
aI0
aI0
aI0
aI0
aI0
aI0
aI0
a(lp1194
(lp1195
F1.1666666666667
aI38
aI120
aI3
ag415
aa(lp1196
F0.57341577199986
aI38
aI0
aI3
ag417
aa(lp1197
F0.5932508946668
aI38
aI118
aI3
ag419
aa(lp1198
F0.22087446399382
aI38
aI0
aI3
ag421
aa(lp1199
F0.44579220267284
aI38
aI122
aI3
ag423
aa(lp1200
F3.999
aI38
aI0
aI3
ag425
aa(lp1201
F-2.999
aI0
aI0
aI0
ag427
aaaI0
aI0
aI0
aI0
aI0
aI0
aI0
aI0
aI0
aI0
aI0
aI0
aI0
aI0
aI0
aI0
aI0
aI0
aI0
aI0
aI0
aI0
aI0
aI0
aI0
aI0
aI0
aI0
aI0
aI0
aI0
aI0
aI0
aI0
aI0
aI0
aI0
aI0
aI0
aI0
aI0
aI0
aI0
aI0
aI0
aI0
aI0
aI0
aI0
aI0
aI0
aI0
aI0
aI0
aI0
aI0
aI0
aa(lp1202
(dp1203
a(dp1204
a(dp1205
a(dp1206
a(dp1207
g464
I34
sg465
I0
sa(dp1208
g465
I0
sa(dp1209
a(dp1210
g464
I37
sg465
I0
sa(dp1211
a(dp1212
g465
I0
sa(dp1213
a(dp1214
a(dp1215
g464
I44
sg465
I01
sa(dp1216
g464
I45
sg465
I01
sa(dp1217
g464
I46
sg465
I01
sa(dp1218
g464
I47
sg465
I01
sa(dp1219
g464
I48
sg465
I0
sa(dp1220
g465
I0
sa(dp1221
a(dp1222
a(dp1223
a(dp1224
a(dp1225
a(dp1226
a(dp1227
a(dp1228
g465
I0
sa(dp1229
a(dp1230
a(dp1231
g465
I0
sa(dp1232
g465
I0
sa(dp1233
g465
I0
sa(dp1234
g465
I0
sa(dp1235
g465
I0
sa(dp1236
g465
I0
sa(dp1237
a(dp1238
a(dp1239
a(dp1240
a(dp1241
a(dp1242
a(dp1243
a(dp1244
g465
I0
sa(dp1245
g464
I82
sg465
I01
sa(dp1246
g465
I0
sa(dp1247
a(dp1248
a(dp1249
a(dp1250
a(dp1251
a(dp1252
a(dp1253
a(dp1254
a(dp1255
a(dp1256
a(dp1257
a(dp1258
a(dp1259
a(dp1260
a(dp1261
a(dp1262
a(dp1263
a(dp1264
a(dp1265
a(dp1266
a(dp1267
a(dp1268
a(dp1269
a(dp1270
a(dp1271
a(dp1272
a(dp1273
a(dp1274
a(dp1275
a(dp1276
a(dp1277
a(dp1278
a(dp1279
a(dp1280
a(dp1281
a(dp1282
a(dp1283
a(dp1284
a(dp1285
a(dp1286
a(dp1287
a(dp1288
a(dp1289
a(dp1290
a(dp1291
a(dp1292
a(dp1293
a(dp1294
a(dp1295
a(dp1296
a(dp1297
a(dp1298
a(dp1299
a(dp1300
a(dp1301
a(dp1302
aa(lp1303
I60
aI60
aI36
aI36
aa(lp1304
(lp1305
I0
aI2
aI3
aI5
aI7
aI8
aI10
aa(lp1306
I0
aI2
aI3
aI5
aI7
aI8
aI10
aa(lp1307
I0
aI2
aI3
aI5
aI7
aI8
aI10
aa(lp1308
I0
aI2
aI3
aI5
aI7
aI8
aI10
aa(lp1309
I0
aI2
aI3
aI5
aI7
aI8
aI10
aa(lp1310
I0
aI1
aI2
aI3
aI4
aI5
aI6
aI7
aI8
aI9
aI10
aI11
aaa(lp1311
(lp1312
(lp1313
I0
aI0
aI0
aI0
aI0
aI0
aI0
aI0
aI0
aI0
aI0
aI0
aa(lp1314
I0
aI0
aI0
aI0
aI0
aI0
aI0
aI0
aI0
aI0
aI0
aI0
aa(lp1315
I0
aI0
aI0
aI0
aI0
aI0
aI0
aI0
aI0
aI0
aI0
aI0
aa(lp1316
I0
aI0
aI0
aI0
aI0
aI0
aI0
aI0
aI0
aI0
aI0
aI0
aaa(lp1317
(lp1318
I0
aI0
aI0
aI0
aI0
aI0
aI0
aI0
aI0
aI0
aI0
aI0
aa(lp1319
I0
aI0
aI0
aI0
aI0
aI0
aI0
aI0
aI0
aI0
aI0
aI0
aa(lp1320
I0
aI0
aI0
aI0
aI0
aI0
aI0
aI0
aI0
aI0
aI0
aI0
aa(lp1321
I0
aI0
aI0
aI0
aI0
aI0
aI0
aI0
aI0
aI0
aI0
aI0
aaa(lp1322
(lp1323
I0
aI0
aI0
aI0
aI0
aI0
aI0
aI0
aI0
aI0
aI0
aI0
aa(lp1324
I0
aI0
aI0
aI0
aI0
aI0
aI0
aI0
aI0
aI0
aI0
aI0
aa(lp1325
I0
aI0
aI0
aI0
aI0
aI0
aI0
aI0
aI0
aI0
aI0
aI0
aa(lp1326
I0
aI0
aI0
aI0
aI0
aI0
aI0
aI0
aI0
aI0
aI0
aI0
aaa(lp1327
(lp1328
I0
aI0
aI0
aI0
aI0
aI0
aI0
aI0
aI0
aI0
aI0
aI0
aa(lp1329
I0
aI0
aI0
aI0
aI0
aI0
aI0
aI0
aI0
aI0
aI0
aI0
aa(lp1330
I0
aI0
aI0
aI0
aI0
aI0
aI0
aI0
aI0
aI0
aI0
aI0
aa(lp1331
I0
aI0
aI0
aI0
aI0
aI0
aI0
aI0
aI0
aI0
aI0
aI0
aaaa(lp1332
(lp1333
I0
aI0
aI0
aI0
aI0
aI0
aI0
aI0
aI0
aI0
aI0
aI0
aa(lp1334
I0
aI0
aI0
aI0
aI0
aI0
aI0
aI0
aI0
aI0
aI0
aI0
aa(lp1335
I0
aI0
aI0
aI0
aI0
aI0
aI0
aI0
aI0
aI0
aI0
aI0
aa(lp1336
I0
aI0
aI0
aI0
aI0
aI0
aI0
aI0
aI0
aI0
aI0
aI0
aaaa(lp1337
(lp1338
I0
aI0
aI0
aI0
a(lp1339
(lp1340
F0.5
aI48
aI114
aI2
ag5
aa(lp1341
F0.16666666666667
aI44
aI108
aI2
ag7
aa(lp1342
F0.06504901733327
aI48
aI0
aI2
ag9
aa(lp1343
F0.20615755267014
aI44
aI0
aI2
ag11
aa(lp1344
F0.062126763329919
aI48
aI120
aI2
ag13
aa(lp1345
F0.33333333333333
aI51
aI101
aI2
ag15
aa(lp1346
F0.085501514668674
aI48
aI0
aI2
ag17
aa(lp1347
F6.8872978873308
aI51
aI0
aI2
ag19
aa(lp1348
F0.027200598000491
aI50
aI97
aI2
ag21
aa(lp1349
F0.33333333333333
aI51
aI101
aI2
ag23
aa(lp1350
F0.13804862466592
aI50
aI0
aI2
ag25
aa(lp1351
F0.19528470866741
aI53
aI115
aI2
ag27
aa(lp1352
F0.096478574671588
aI51
aI0
aI2
ag29
aa(lp1353
F3.7368547586617
aI55
aI95
aI2
ag31
aa(lp1354
F0.13357913666793
aI53
aI0
aI2
ag33
aa(lp1355
F0.033087529998738
aI56
aI98
aI2
ag35
aa(lp1356
F0.11587442333015
aI55
aI0
aI2
ag37
aa(lp1357
F1.8392790426684
aI56
aI0
aI2
ag39
aa(lp1358
F0.044846534001408
aI55
aI100
aI2
ag41
aa(lp1359
F1.0
aI53
aI97
aI2
ag43
aa(lp1360
F0.26461140599713
aI55
aI0
aI2
ag45
aa(lp1361
F0.068721927336203
aI51
aI9
aI2
ag47
aa(lp1362
F0.13680247666586
aI53
aI0
aI2
ag49
aa(lp1363
F0.19653085666748
aI50
aI92
aI2
ag51
aa(lp1364
F0.10556897466692
aI51
aI0
aI2
ag53
aa(lp1365
F0.22776435866642
aI48
aI118
aI2
ag55
aa(lp1366
F0.13934973066595
aI50
aI0
aI2
ag57
aa(lp1367
F7.117556411334
aI48
aI0
aI2
ag59
aa(lp1368
F0.076427191333398
aI45
aI87
aI2
ag61
aa(lp1369
F0.33333333333334
aI46
aI98
aI2
ag63
aa(lp1370
F0.2524019486688
aI45
aI0
aI2
ag65
aa(lp1371
F0.080931384664535
aI48
aI114
aI2
ag67
aa(lp1372
F0.1268170686623
aI46
aI0
aI2
ag69
aa(lp1373
F4.8731829313377
aI43
aI24
aI2
ag71
aa(lp1374
F0.040814120002324
aI48
aI0
aI2
ag73
aa(lp1375
F2.2794121599945
aI43
aI0
aI2
ag75
aa(lp1376
F0.67977372000314
aI0
aI0
aI0
ag77
aaaI0
aI0
a(lp1377
(lp1378
F0.42547741800081
aI36
aI114
aI2
ag80
aa(lp1379
F0.32425749200047
aI39
aI97
aI2
ag82
aa(lp1380
F0.02168556000106
aI36
aI0
aI2
ag84
aa(lp1381
F0.30341418399621
aI41
aI110
aI2
ag86
aa(lp1382
F0.00018656800239114
aI39
aI0
aI2
ag88
aa(lp1383
F0.30231893999735
aI43
aI114
aI2
ag90
aa(lp1384
F0.010694780001359
aI41
aI0
aI2
ag92
aa(lp1385
F0.31415531400125
aI43
aI0
aI2
ag94
aa(lp1386
F0.072780829999829
aI46
aI109
aI2
ag96
aa(lp1387
F0.3135757439959
aI48
aI116
aI2
ag98
aa(lp1388
F0.010306004005542
aI46
aI0
aI2
ag100
aa(lp1389
F0.30309675199533
aI46
aI115
aI2
ag102
aa(lp1390
F0.02062745999865
aI48
aI0
aI2
ag104
aa(lp1391
F3.8779098440064
aI45
aI82
aI2
ag106
aa(lp1392
F0.09537153999554
aI46
aI0
aI2
ag108
aa(lp1393
F3.6102586499983
aI46
aI68
aI2
ag110
aa(lp1394
F0.11413744000311
aI45
aI0
aI2
ag112
aa(lp1395
F4.0365917960007
aI41
aI94
aI2
ag114
aa(lp1396
F0.1469020059958
aI46
aI0
aI2
ag116
aa(lp1397
F2.0735368020032
aI43
aI101
aI2
ag118
aa(lp1398
F0.12608478200127
aI41
aI0
aI2
ag120
aa(lp1399
F1.7762135500016
aI36
aI109
aI2
ag122
aa(lp1400
F0.073024407996854
aI43
aI0
aI2
ag124
aa(lp1401
F7.905950196
aI39
aI97
aI2
ag126
aa(lp1402
F0.12608750000072
aI36
aI0
aI2
ag128
aa(lp1403
F0.54521233800187
aI36
aI100
aI2
ag130
aa(lp1404
F0.15632358999574
aI39
aI0
aI2
ag132
aa(lp1405
F6.9038185120028
aI36
aI0
aI2
ag134
aa(lp1406
F0.0099999999999909
aI0
aI0
aI0
ag136
aaaI0
aI0
aI0
aI0
a(lp1407
(lp1408
F1.3333333333333
aI41
aI123
aI3
ag139
aa(lp1409
F2.999
aI41
aI0
aI3
ag141
aa(lp1410
F-1.3323333333333
aI0
aI0
aI0
ag143
aaa(lp1411
(lp1412
F0.0
aI36
aI124
aI3
ag146
aa(lp1413
F0.16987656823176
aI36
aI0
aI3
ag148
aa(lp1414
F0.49679009843491
aI36
aI123
aI3
ag150
aa(lp1415
F2.6150870460042
aI36
aI0
aI3
ag152
aa(lp1416
F0.71824628732914
aI0
aI0
aI0
ag154
aaa(lp1417
(lp1418
F2.3333333333333
aI44
aI116
aI3
ag157
aa(lp1419
F0.10516025999823
aI44
aI0
aI3
ag159
aa(lp1420
F0.56150640666844
aI44
aI115
aI3
ag161
aa(lp1421
F0.18831306799984
aI44
aI0
aI3
ag163
aa(lp1422
F0.81168693200016
aI0
aI0
aI0
ag165
aaa(lp1423
(lp1424
F1.0
aI38
aI124
aI3
ag168
aa(lp1425
F2.1933984479983
aI38
aI0
aI3
ag170
aa(lp1426
F0.80660155200167
aI0
aI0
aI0
ag172
aaa(lp1427
(lp1428
F2.3483075839977
aI44
aI110
aI3
ag175
aa(lp1429
F0.094599066003866
aI44
aI0
aI3
ag177
aa(lp1430
F0.606121083998
aI44
aI112
aI3
ag179
aa(lp1431
F0.12586005999765
aI44
aI0
aI3
ag181
aa(lp1432
F3.8680474860012
aI44
aI118
aI3
ag183
aa(lp1433
F0.1153973679975
aI44
aI0
aI3
ag185
aa(lp1434
F0.2192331220067
aI44
aI116
aI3
ag187
aa(lp1435
F0.11492876999546
aI44
aI0
aI3
ag189
aa(lp1436
F0.50750546000199
aI0
aI0
aI0
ag191
aaaI0
aI0
a(lp1437
(lp1438
F0.0
aI33
aI117
aI1
ag194
aa(lp1439
F3.9169621385445
aI33
aI0
aI1
ag196
aa(lp1440
F0.083037861455523
aI34
aI104
aI1
ag198
aa(lp1441
F2.0
aI33
aI114
aI1
ag200
aa(lp1442
F0.0033232040004805
aI34
aI0
aI1
ag202
aa(lp1443
F1.9411459359981
aI33
aI0
aI1
ag204
aa(lp1444
F0.055530860001454
aI31
aI112
aI1
ag206
aa(lp1445
F7.4933155359977
aI31
aI0
aI1
ag208
aa(lp1446
F0.0066844640023191
aI29
aI109
aI1
ag210
aa(lp1447
F0.25119402600103
aI29
aI0
aI1
ag212
aa(lp1448
F0.082139307332303
aI31
aI114
aI1
ag214
aa(lp1449
F0.0
aI29
aI32
aI1
ag216
aa(lp1450
F0.10360912400211
aI29
aI0
aI1
ag218
aa(lp1451
F5.8963908759979
aI36
aI79
aI1
ag220
aa(lp1452
F0.066298056000964
aI31
aI0
aI1
ag222
aa(lp1453
F1.1003686106657
aI38
aI31
aI1
ag224
aa(lp1454
F0.02627779332882
aI36
aI0
aI1
ag226
aa(lp1455
F23.972722206671
aI38
aI0
aI1
ag228
aa(lp1456
F-22.999
aI0
aI0
aI0
ag230
aaaI0
aI0
aI0
aI0
aI0
aI0
aI0
aI0
aI0
aI0
aI0
aI0
aI0
aI0
aI0
aI0
aI0
aI0
aI0
a(lp1457
(lp1458
F0.66666666666667
aI69
aI112
aI0
ag233
aa(lp1459
F0.20819120800297
aI69
aI0
aI0
ag235
aa(lp1460
F0.12514212533036
aI70
aI117
aI0
ag237
aa(lp1461
F0.18926928599831
aI70
aI0
aI0
ag239
aa(lp1462
F0.14406404733503
aI72
aI116
aI0
ag241
aa(lp1463
F0.13501328599523
aI72
aI0
aI0
ag243
aa(lp1464
F0.19832004733811
aI69
aI105
aI0
ag245
aa(lp1465
F0.33333333333333
aI70
aI112
aI0
ag247
aa(lp1466
F0.085295714665941
aI69
aI0
aI0
ag249
aa(lp1467
F0.12356323333127
aI70
aI0
aI0
ag251
aa(lp1468
F0.12447438533612
aI72
aI116
aI0
ag253
aa(lp1469
F0.15832843200042
aI72
aI0
aI0
ag255
aa(lp1470
F0.17500490133292
aI69
aI116
aI0
ag257
aa(lp1471
F0.33333333333333
aI70
aI112
aI0
ag259
aa(lp1472
F0.10593160466184
aI69
aI0
aI0
ag261
aa(lp1473
F0.093268755333459
aI70
aI0
aI0
ag263
aa(lp1474
F0.13413297333803
aI72
aI115
aI0
ag265
aa(lp1475
F0.14565113199933
aI72
aI0
aI0
ag267
aa(lp1476
F0.187682201334
aI70
aI114
aI0
ag269
aa(lp1477
F0.2085986940001
aI70
aI0
aI0
ag271
aa(lp1478
F0.12473463933323
aI67
aI118
aI0
ag273
aa(lp1479
F0.15706758000306
aI67
aI0
aI0
ag275
aa(lp1480
F0.17626575333027
aI65
aI118
aI0
ag277
aa(lp1481
F0.17875497799832
aI65
aI0
aI0
ag279
aa(lp1482
F0.15457835533501
aI67
aI114
aI0
ag281
aa(lp1483
F0.14733588600211
aI67
aI0
aI0
ag283
aa(lp1484
F0.18599744733122
aI65
aI116
aI0
ag285
aa(lp1485
F0.19825500199659
aI65
aI0
aI0
ag287
aa(lp1486
F0.13507833133675
aI63
aI119
aI0
ag289
aa(lp1487
F0.16810757399799
aI63
aI0
aI0
ag291
aa(lp1488
F0.16522575933535
aI62
aI116
aI0
ag293
aa(lp1489
F0.15658406599687
aI62
aI0
aI0
ag295
aa(lp1490
F0.17674926733647
aI60
aI118
aI0
ag297
aa(lp1491
F0.18826931199874
aI60
aI0
aI0
ag299
aa(lp1492
F0.1450640213346
aI63
aI118
aI0
ag301
aa(lp1493
F0.17671412399795
aI63
aI0
aI0
ag303
aa(lp1494
F0.15661920933538
aI62
aI118
aI0
ag305
aa(lp1495
F0.16778856800374
aI62
aI0
aI0
ag307
aa(lp1496
F0.16554476532959
aI60
aI122
aI0
ag309
aa(lp1497
F0.21841053000389
aI60
aI0
aI0
ag311
aa(lp1498
F0.11492280332944
aI63
aI119
aI0
ag313
aa(lp1499
F0.16737478799769
aI63
aI0
aI0
ag315
aa(lp1500
F0.16595854533565
aI62
aI118
aI0
ag317
aa(lp1501
F0.17736932000116
aI62
aI0
aI0
ag319
aa(lp1502
F0.15596401333217
aI60
aI123
aI0
ag321
aa(lp1503
F0.19823132600141
aI60
aI0
aI0
ag323
aa(lp1504
F0.13510200733193
aI62
aI121
aI0
ag325
aa(lp1505
F0.15724856200541
aI62
aI0
aI0
ag327
aa(lp1506
F0.17608477132793
aI60
aI121
aI0
ag329
aa(lp1507
F0.18865882799582
aI60
aI0
aI0
ag331
aa(lp1508
F0.14467450533751
aI0
aI0
aI0
ag333
aaa(lp1509
(lp1510
F2.6666666666667
aI75
aI112
aI0
ag336
aa(lp1511
F0.14602800000284
aI75
aI0
aI0
ag338
aa(lp1512
F0.18730533333049
aI77
aI116
aI0
ag340
aa(lp1513
F0.14661027400143
aI77
aI0
aI0
ag342
aa(lp1514
F0.1867230593319
aI82
aI114
aI0
ag344
aa(lp1515
F0.13663457999792
aI82
aI0
aI0
ag346
aa(lp1516
F0.19669875333542
aI75
aI114
aI0
ag348
aa(lp1517
F0.12525323400041
aI75
aI0
aI0
ag350
aa(lp1518
F0.20808009933292
aI77
aI115
aI0
ag352
aa(lp1519
F0.15646494399698
aI77
aI0
aI0
ag354
aa(lp1520
F0.17686838933635
aI82
aI110
aI0
ag356
aa(lp1521
F0.14645246999862
aI82
aI0
aI0
ag358
aa(lp1522
F0.18688086333471
aI75
aI118
aI0
ag360
aa(lp1523
F0.15718591399491
aI75
aI0
aI0
ag362
aa(lp1524
F0.17614741933842
aI77
aI116
aI0
ag364
aa(lp1525
F0.15732543999911
aI77
aI0
aI0
ag366
aa(lp1526
F0.17600789333422
aI82
aI110
aI0
ag368
aa(lp1527
F0.14789741599816
aI82
aI0
aI0
ag370
aa(lp1528
F0.18543591733517
aI75
aI119
aI0
ag372
aa(lp1529
F0.16656886800047
aI75
aI0
aI0
ag374
aa(lp1530
F0.16676446533287
aI77
aI115
aI0
ag376
aa(lp1531
F0.17709857400041
aI77
aI0
aI0
ag378
aa(lp1532
F0.15623475933292
aI82
aI103
aI0
ag380
aa(lp1533
F0.13608689600369
aI82
aI0
aI0
ag382
aa(lp1534
F0.19724643732964
aI75
aI118
aI0
ag384
aa(lp1535
F0.16808857000433
aI75
aI0
aI0
ag386
aa(lp1536
F0.165244763329
aI77
aI116
aI0
ag388
aa(lp1537
F0.17739135000011
aI77
aI0
aI0
ag390
aa(lp1538
F0.15594198333323
aI82
aI108
aI0
ag392
aa(lp1539
F0.15715044399985
aI82
aI0
aI0
ag394
aa(lp1540
F0.17618288933348
aI77
aI116
aI0
ag396
aa(lp1541
F0.15596604200255
aI77
aI0
aI0
ag398
aa(lp1542
F0.17736729133079
aI75
aI116
aI0
ag400
aa(lp1543
F0.16715974399995
aI75
aI0
aI0
ag402
aa(lp1544
F0.16617358933339
aI77
aI121
aI0
ag404
aa(lp1545
F0.15673195399722
aI77
aI0
aI0
ag406
aa(lp1546
F0.17660137933611
aI75
aI121
aI0
ag408
aa(lp1547
F0.2311837840025
aI75
aI0
aI0
ag410
aa(lp1548
F0.10214954933084
aI0
aI0
aI0
ag412
aaaI0
a(lp1549
(lp1550
F1.1666666666667
aI38
aI120
aI3
ag415
aa(lp1551
F0.57341577199986
aI38
aI0
aI3
ag417
aa(lp1552
F0.5932508946668
aI38
aI118
aI3
ag419
aa(lp1553
F0.22087446399382
aI38
aI0
aI3
ag421
aa(lp1554
F0.44579220267284
aI38
aI122
aI3
ag423
aa(lp1555
F3.999
aI38
aI0
aI3
ag425
aa(lp1556
F-2.999
aI0
aI0
aI0
ag427
aaaI0
aI0
aI0
a(lp1557
(lp1558
F5.6666666666667
aI69
aI112
aI1
ag430
aa(lp1559
F0.12510246999591
aI69
aI0
aI1
ag432
aa(lp1560
F0.20823086333742
aI70
aI103
aI1
ag434
aa(lp1561
F0.12495044599927
aI70
aI0
aI1
ag436
aa(lp1562
F0.20838288733406
aI72
aI114
aI1
ag438
aa(lp1563
F0.11522732600133
aI72
aI0
aI1
ag440
aa(lp1564
F0.55143934066534
aI0
aI0
aI0
ag442
aaa(lp1565
(lp1566
F1.6670055720024
aI72
aI116
aI1
ag445
aa(lp1567
F0.13616765999905
aI72
aI0
aI1
ag447
aa(lp1568
F0.16755542999454
aI74
aI116
aI1
ag449
aa(lp1569
F0.13488422000228
aI74
aI0
aI1
ag451
aa(lp1570
F0.18904788600048
aI75
aI114
aI1
ag453
aa(lp1571
F0.10355724200053
aI75
aI0
aI1
ag455
aa(lp1572
F0.60178199000075
aI0
aI0
aI0
ag457
aaaI0
aI0
aI0
aI0
aI0
aI0
aI0
aI0
aI0
aI0
aI0
aI0
aI0
aI0
aI0
aI0
aI0
aI0
aI0
aI0
aI0
aI0
aI0
aI0
aI0
aI0
aI0
aI0
aI0
aI0
aI0
aI0
aI0
aI0
aI0
aI0
aI0
aI0
aI0
aI0
aI0
aI0
aI0
aI0
aI0
aI0
aI0
aI0
aI0
aI0
aI0
aI0
aa(lp1573
(dp1574
a(dp1575
a(dp1576
a(dp1577
a(dp1578
g464
I34
sg465
I0
sa(dp1579
g465
I1
sa(dp1580
g465
I0
sa(dp1581
g464
I37
sg465
I0
sa(dp1582
a(dp1583
g465
I0
sa(dp1584
a(dp1585
a(dp1586
g464
I44
sg465
I1
sa(dp1587
g464
I45
sg465
I1
sa(dp1588
g464
I46
sg465
I1
sa(dp1589
g464
I47
sg465
I1
sa(dp1590
g464
I48
sg465
I0
sa(dp1591
g465
I0
sa(dp1592
a(dp1593
g464
I53
sg465
I0
sa(dp1594
a(dp1595
a(dp1596
a(dp1597
a(dp1598
a(dp1599
g465
I0
sa(dp1600
a(dp1601
a(dp1602
g465
I0
sa(dp1603
g465
I0
sa(dp1604
g465
I0
sa(dp1605
g465
I0
sa(dp1606
g465
I0
sa(dp1607
g465
I0
sa(dp1608
a(dp1609
a(dp1610
a(dp1611
a(dp1612
g465
I0
sa(dp1613
g464
I77
sg465
I1
sa(dp1614
g464
I78
sg465
I1
sa(dp1615
g465
I0
sa(dp1616
g464
I82
sg465
I1
sa(dp1617
g465
I1
sa(dp1618
a(dp1619
a(dp1620
g464
I86
sg465
I01
sa(dp1621
g464
I87
sg465
I01
sa(dp1622
a(dp1623
a(dp1624
a(dp1625
a(dp1626
a(dp1627
a(dp1628
a(dp1629
a(dp1630
a(dp1631
a(dp1632
a(dp1633
a(dp1634
a(dp1635
a(dp1636
a(dp1637
a(dp1638
a(dp1639
a(dp1640
a(dp1641
a(dp1642
a(dp1643
a(dp1644
a(dp1645
a(dp1646
a(dp1647
a(dp1648
a(dp1649
a(dp1650
a(dp1651
a(dp1652
a(dp1653
a(dp1654
a(dp1655
a(dp1656
a(dp1657
a(dp1658
a(dp1659
a(dp1660
a(dp1661
a(dp1662
a(dp1663
a(dp1664
a(dp1665
a(dp1666
a(dp1667
a(dp1668
a(dp1669
a(dp1670
a(dp1671
a(dp1672
a(dp1673
aa(lp1674
I60
aI60
aI36
aI36
aa(lp1675
(lp1676
I0
aI2
aI3
aI5
aI7
aI8
aI10
aa(lp1677
I0
aI2
aI3
aI5
aI7
aI8
aI10
aa(lp1678
I0
aI2
aI3
aI5
aI7
aI8
aI10
aa(lp1679
I0
aI2
aI3
aI5
aI7
aI8
aI10
aa(lp1680
I0
aI2
aI3
aI5
aI7
aI8
aI10
aa(lp1681
I0
aI1
aI2
aI3
aI4
aI5
aI6
aI7
aI8
aI9
aI10
aI11
aaa(lp1682
(lp1683
(lp1684
I0
aI0
aI0
aI0
aI0
aI0
aI0
aI0
aI0
aI0
aI0
aI0
aa(lp1685
I0
aI0
aI0
aI0
aI0
aI0
aI0
aI0
aI0
aI0
aI0
aI0
aa(lp1686
I0
aI0
aI0
aI0
aI0
aI0
aI0
aI0
aI0
aI0
aI0
aI0
aa(lp1687
I0
aI0
aI0
aI0
aI0
aI0
aI0
aI0
aI0
aI0
aI0
aI0
aaa(lp1688
(lp1689
I0
aI0
aI0
aI0
aI0
aI0
aI0
aI0
aI0
aI0
aI0
aI0
aa(lp1690
I0
aI0
aI0
aI0
aI0
aI0
aI0
aI0
aI0
aI0
aI0
aI0
aa(lp1691
I0
aI0
aI0
aI0
aI0
aI0
aI0
aI0
aI0
aI0
aI0
aI0
aa(lp1692
I0
aI0
aI0
aI0
aI0
aI0
aI0
aI0
aI0
aI0
aI0
aI0
aaa(lp1693
(lp1694
I0
aI0
aI0
aI0
aI0
aI0
aI0
aI0
aI0
aI0
aI0
aI0
aa(lp1695
I0
aI0
aI0
aI0
aI0
aI0
aI0
aI0
aI0
aI0
aI0
aI0
aa(lp1696
I0
aI0
aI0
aI0
aI0
aI0
aI0
aI0
aI0
aI0
aI0
aI0
aa(lp1697
I0
aI0
aI0
aI0
aI0
aI0
aI0
aI0
aI0
aI0
aI0
aI0
aaa(lp1698
(lp1699
I0
aI0
aI0
aI0
aI0
aI0
aI0
aI0
aI0
aI0
aI0
aI0
aa(lp1700
I0
aI0
aI0
aI0
aI0
aI0
aI0
aI0
aI0
aI0
aI0
aI0
aa(lp1701
I0
aI0
aI0
aI0
aI0
aI0
aI0
aI0
aI0
aI0
aI0
aI0
aa(lp1702
I0
aI0
aI0
aI0
aI0
aI0
aI0
aI0
aI0
aI0
aI0
aI0
aaaa(lp1703
(lp1704
I0
aI0
aI0
aI0
aI0
aI0
aI0
aI0
aI0
aI0
aI0
aI0
aa(lp1705
I0
aI0
aI0
aI0
aI0
aI0
aI0
aI0
aI0
aI0
aI0
aI0
aa(lp1706
I0
aI0
aI0
aI0
aI0
aI0
aI0
aI0
aI0
aI0
aI0
aI0
aa(lp1707
I0
aI0
aI0
aI0
aI0
aI0
aI0
aI0
aI0
aI0
aI0
aI0
aaaa(lp1708
(lp1709
I0
aI0
aI0
a(lp1710
(lp1711
F0.024632614850816
aI65
aI114
aI2
aS'on'
p1712
aa(lp1713
F0.00017054677027772
aI60
aI107
aI2
aS'on'
p1714
aa(lp1715
F3.8846530283772
aI58
aI81
aI2
aS'on'
p1716
aa(lp1717
F0.010162210004637
aI63
aI94
aI2
aS'on'
p1718
aa(lp1719
F0.16844352199405
aI60
aI0
aI2
aS'off'
p1720
aa(lp1721
F0.011525781999808
aI65
aI0
aI2
aS'off'
p1722
aa(lp1723
F3.8268072480059
aI60
aI89
aI2
aS'on'
p1724
aa(lp1725
F9.0800000180025e-05
aI55
aI103
aI2
aS'on'
p1726
aa(lp1727
F0.10460839199368
aI58
aI0
aI2
aS'off'
p1728
aa(lp1729
F0.032095779999509
aI63
aI0
aI2
aS'off'
p1730
aa(lp1731
F7.9268100760037
aI60
aI0
aI2
aS'off'
p1732
aa(lp1733
F0.0
aI55
aI0
aI2
aS'off'
p1734
aa(lp1735
F0.010000000000218
aI0
aI0
aI0
aS'timeAfterLastHit'
p1736
aaa(lp1737
(lp1738
F0.0357526242733
aI60
aI97
aI2
aS'on'
p1739
aa(lp1740
F-0.035593551397142
aI64
aI97
aI2
aS'on'
p1741
aa(lp1742
F2.9112806131261
aI65
aI95
aI2
aS'on'
p1743
aa(lp1744
F0.12395363399992
aI64
aI0
aI2
aS'off'
p1745
aa(lp1746
F0.90113579199533
aI67
aI79
aI2
aS'on'
p1747
aa(lp1748
F0.041361444003996
aI65
aI0
aI2
aS'off'
p1749
aa(lp1750
F1.9254303739945
aI63
aI93
aI2
aS'on'
p1751
aa(lp1752
F0.10432374000084
aI67
aI0
aI2
aS'off'
p1753
aa(lp1754
F1.999885448
aI65
aI103
aI2
aS'on'
p1755
aa(lp1756
F0.073732210003072
aI63
aI0
aI2
aS'off'
p1757
aa(lp1758
F3.8608857959989
aI62
aI88
aI2
aS'on'
p1759
aa(lp1760
F0.073238222001237
aI65
aI0
aI2
aS'off'
p1761
aa(lp1762
F3.3232902340023
aI60
aI0
aI2
aS'off'
p1763
aa(lp1764
F0.052063666000322
aI62
aI0
aI2
aS'off'
p1765
aa(lp1766
F0.60925975399732
aI0
aI0
aI0
aS'timeAfterLastHit'
p1767
aaaI0
aI0
a(lp1768
(lp1769
F0.42547741800081
aI36
aI114
aI2
ag80
aa(lp1770
F0.32425749200047
aI39
aI97
aI2
ag82
aa(lp1771
F0.02168556000106
aI36
aI0
aI2
ag84
aa(lp1772
F0.30341418399621
aI41
aI110
aI2
ag86
aa(lp1773
F0.00018656800239114
aI39
aI0
aI2
ag88
aa(lp1774
F0.30231893999735
aI43
aI114
aI2
ag90
aa(lp1775
F0.010694780001359
aI41
aI0
aI2
ag92
aa(lp1776
F0.31415531400125
aI43
aI0
aI2
ag94
aa(lp1777
F0.072780829999829
aI46
aI109
aI2
ag96
aa(lp1778
F0.3135757439959
aI48
aI116
aI2
ag98
aa(lp1779
F0.010306004005542
aI46
aI0
aI2
ag100
aa(lp1780
F0.30309675199533
aI46
aI115
aI2
ag102
aa(lp1781
F0.02062745999865
aI48
aI0
aI2
ag104
aa(lp1782
F3.8779098440064
aI45
aI82
aI2
ag106
aa(lp1783
F0.09537153999554
aI46
aI0
aI2
ag108
aa(lp1784
F3.6102586499983
aI46
aI68
aI2
ag110
aa(lp1785
F0.11413744000311
aI45
aI0
aI2
ag112
aa(lp1786
F4.0365917960007
aI41
aI94
aI2
ag114
aa(lp1787
F0.1469020059958
aI46
aI0
aI2
ag116
aa(lp1788
F2.0735368020032
aI43
aI101
aI2
ag118
aa(lp1789
F0.12608478200127
aI41
aI0
aI2
ag120
aa(lp1790
F1.7762135500016
aI36
aI109
aI2
ag122
aa(lp1791
F0.073024407996854
aI43
aI0
aI2
ag124
aa(lp1792
F7.905950196
aI39
aI97
aI2
ag126
aa(lp1793
F0.12608750000072
aI36
aI0
aI2
ag128
aa(lp1794
F0.54521233800187
aI36
aI100
aI2
ag130
aa(lp1795
F0.15632358999574
aI39
aI0
aI2
ag132
aa(lp1796
F6.9038185120028
aI36
aI0
aI2
ag134
aa(lp1797
F0.0099999999999909
aI0
aI0
aI0
ag136
aaaI0
aI0
aI0
a(lp1798
(lp1799
F0.0
aI74
aI56
aI1
aS'on'
p1800
aa(lp1801
F0.26223124399985
aI74
aI0
aI1
aS'off'
p1802
aa(lp1803
F0.40443542266682
aI74
aI71
aI1
aS'on'
p1804
aa(lp1805
F0.23049842200271
aI74
aI0
aI1
aS'off'
p1806
aa(lp1807
F0.43616824466396
aI72
aI65
aI1
aS'on'
p1808
aa(lp1809
F0.14637673999823
aI72
aI0
aI1
aS'off'
p1810
aa(lp1811
F0.52028992666844
aI72
aI10
aI1
aS'on'
p1812
aa(lp1813
F0.072783011994034
aI72
aI0
aI1
aS'off'
p1814
aa(lp1815
F0.59388365467263
aI74
aI71
aI1
aS'on'
p1816
aa(lp1817
F0.25977960599994
aI74
aI0
aI1
aS'off'
p1818
aa(lp1819
F0.40688706066673
aI74
aI82
aI1
aS'on'
p1820
aa(lp1821
F0.25084002799849
aI74
aI0
aI1
aS'off'
p1822
aa(lp1823
F0.41582663866817
aI72
aI84
aI1
aS'on'
p1824
aa(lp1825
F0.11525532999804
aI72
aI0
aI1
aS'off'
p1826
aa(lp1827
F0.55141133666863
aI72
aI34
aI1
aS'on'
p1828
aa(lp1829
F0.082655466001597
aI72
aI0
aI1
aS'off'
p1830
aa(lp1831
F0.58401120066507
aI74
aI66
aI1
aS'on'
p1832
aa(lp1833
F0.27226701600011
aI74
aI0
aI1
aS'off'
p1834
aa(lp1835
F0.39439965066655
aI74
aI79
aI1
aS'on'
p1836
aa(lp1837
F0.21994950599765
aI74
aI0
aI1
aS'off'
p1838
aa(lp1839
F0.44671716066902
aI72
aI82
aI1
aS'on'
p1840
aa(lp1841
F0.10419142399769
aI72
aI0
aI1
aS'off'
p1842
aa(lp1843
F0.56247524266898
aI72
aI77
aI1
aS'on'
p1844
aa(lp1845
F0.11655469400284
aI72
aI0
aI1
aS'off'
p1846
aa(lp1847
F0.55011197266382
aI0
aI0
aI0
aS'timeAfterLastHit'
p1848
aaa(lp1849
(lp1850
F1.3333333333333
aI41
aI123
aI3
ag139
aa(lp1851
F2.999
aI41
aI0
aI3
ag141
aa(lp1852
F-1.3323333333333
aI0
aI0
aI0
ag143
aaa(lp1853
(lp1854
F0.0
aI36
aI124
aI3
ag146
aa(lp1855
F0.16987656823176
aI36
aI0
aI3
ag148
aa(lp1856
F0.49679009843491
aI36
aI123
aI3
ag150
aa(lp1857
F2.6150870460042
aI36
aI0
aI3
ag152
aa(lp1858
F0.71824628732914
aI0
aI0
aI0
ag154
aaa(lp1859
(lp1860
F2.3333333333333
aI44
aI116
aI3
ag157
aa(lp1861
F0.10516025999823
aI44
aI0
aI3
ag159
aa(lp1862
F0.56150640666844
aI44
aI115
aI3
ag161
aa(lp1863
F0.18831306799984
aI44
aI0
aI3
ag163
aa(lp1864
F0.81168693200016
aI0
aI0
aI0
ag165
aaa(lp1865
(lp1866
F1.0
aI38
aI124
aI3
ag168
aa(lp1867
F2.1933984479983
aI38
aI0
aI3
ag170
aa(lp1868
F0.80660155200167
aI0
aI0
aI0
ag172
aaa(lp1869
(lp1870
F2.3483075839977
aI44
aI110
aI3
ag175
aa(lp1871
F0.094599066003866
aI44
aI0
aI3
ag177
aa(lp1872
F0.606121083998
aI44
aI112
aI3
ag179
aa(lp1873
F0.12586005999765
aI44
aI0
aI3
ag181
aa(lp1874
F3.8680474860012
aI44
aI118
aI3
ag183
aa(lp1875
F0.1153973679975
aI44
aI0
aI3
ag185
aa(lp1876
F0.2192331220067
aI44
aI116
aI3
ag187
aa(lp1877
F0.11492876999546
aI44
aI0
aI3
ag189
aa(lp1878
F0.50750546000199
aI0
aI0
aI0
ag191
aaaI0
aI0
a(lp1879
(lp1880
F0.0
aI67
aI52
aI1
aS'on'
p1881
aa(lp1882
F0.15624359000503
aI67
aI0
aI1
aS'off'
p1883
aa(lp1884
F0.51042307666163
aI67
aI41
aI1
aS'on'
p1885
aa(lp1886
F0.22020492400043
aI67
aI0
aI1
aS'off'
p1887
aa(lp1888
F0.44646174266624
aI65
aI61
aI1
aS'on'
p1889
aa(lp1890
F0.22963616199559
aI65
aI0
aI1
aS'off'
p1891
aa(lp1892
F0.43703050467108
aI65
aI46
aI1
aS'on'
p1893
aa(lp1894
F0.26136627999949
aI65
aI0
aI1
aS'off'
p1895
aa(lp1896
F0.40530038666717
aI67
aI55
aI1
aS'on'
p1897
aa(lp1898
F0.25093730799563
aI67
aI0
aI1
aS'off'
p1899
aa(lp1900
F0.41572935867104
aI67
aI69
aI1
aS'on'
p1901
aa(lp1902
F0.21969265399821
aI67
aI0
aI1
aS'off'
p1903
aa(lp1904
F0.44697401266846
aI65
aI55
aI1
aS'on'
p1905
aa(lp1906
F0.30418359200121
aI65
aI0
aI1
aS'off'
p1907
aa(lp1908
F0.36248307466546
aI65
aI45
aI1
aS'on'
p1909
aa(lp1910
F0.260825080004
aI65
aI0
aI1
aS'off'
p1911
aa(lp1912
F0.40584158666267
aI67
aI56
aI1
aS'on'
p1913
aa(lp1914
F0.24878297800024
aI67
aI0
aI1
aS'off'
p1915
aa(lp1916
F0.41788368866643
aI67
aI58
aI1
aS'on'
p1917
aa(lp1918
F0.16789296600473
aI67
aI0
aI1
aS'off'
p1919
aa(lp1920
F0.49877370066194
aI65
aI62
aI1
aS'on'
p1921
aa(lp1922
F0.26066186199751
aI65
aI0
aI1
aS'off'
p1923
aa(lp1924
F0.40600480466916
aI65
aI29
aI1
aS'on'
p1925
aa(lp1926
F0.2093169219952
aI65
aI0
aI1
aS'off'
p1927
aa(lp1928
F0.45734974467147
aI0
aI0
aI0
aS'timeAfterLastHit'
p1929
aaaI0
aI0
aI0
aI0
aI0
aI0
aI0
aI0
aI0
aI0
aI0
aI0
aI0
aI0
aI0
aI0
aI0
aI0
aI0
a(lp1930
(lp1931
F0.66666666666667
aI69
aI112
aI0
ag233
aa(lp1932
F0.20819120800297
aI69
aI0
aI0
ag235
aa(lp1933
F0.12514212533036
aI70
aI117
aI0
ag237
aa(lp1934
F0.18926928599831
aI70
aI0
aI0
ag239
aa(lp1935
F0.14406404733503
aI72
aI116
aI0
ag241
aa(lp1936
F0.13501328599523
aI72
aI0
aI0
ag243
aa(lp1937
F0.19832004733811
aI69
aI105
aI0
ag245
aa(lp1938
F0.33333333333333
aI70
aI112
aI0
ag247
aa(lp1939
F0.085295714665941
aI69
aI0
aI0
ag249
aa(lp1940
F0.12356323333127
aI70
aI0
aI0
ag251
aa(lp1941
F0.12447438533612
aI72
aI116
aI0
ag253
aa(lp1942
F0.15832843200042
aI72
aI0
aI0
ag255
aa(lp1943
F0.17500490133292
aI69
aI116
aI0
ag257
aa(lp1944
F0.33333333333333
aI70
aI112
aI0
ag259
aa(lp1945
F0.10593160466184
aI69
aI0
aI0
ag261
aa(lp1946
F0.093268755333459
aI70
aI0
aI0
ag263
aa(lp1947
F0.13413297333803
aI72
aI115
aI0
ag265
aa(lp1948
F0.14565113199933
aI72
aI0
aI0
ag267
aa(lp1949
F0.187682201334
aI70
aI114
aI0
ag269
aa(lp1950
F0.2085986940001
aI70
aI0
aI0
ag271
aa(lp1951
F0.12473463933323
aI67
aI118
aI0
ag273
aa(lp1952
F0.15706758000306
aI67
aI0
aI0
ag275
aa(lp1953
F0.17626575333027
aI65
aI118
aI0
ag277
aa(lp1954
F0.17875497799832
aI65
aI0
aI0
ag279
aa(lp1955
F0.15457835533501
aI67
aI114
aI0
ag281
aa(lp1956
F0.14733588600211
aI67
aI0
aI0
ag283
aa(lp1957
F0.18599744733122
aI65
aI116
aI0
ag285
aa(lp1958
F0.19825500199659
aI65
aI0
aI0
ag287
aa(lp1959
F0.13507833133675
aI63
aI119
aI0
ag289
aa(lp1960
F0.16810757399799
aI63
aI0
aI0
ag291
aa(lp1961
F0.16522575933535
aI62
aI116
aI0
ag293
aa(lp1962
F0.15658406599687
aI62
aI0
aI0
ag295
aa(lp1963
F0.17674926733647
aI60
aI118
aI0
ag297
aa(lp1964
F0.18826931199874
aI60
aI0
aI0
ag299
aa(lp1965
F0.1450640213346
aI63
aI118
aI0
ag301
aa(lp1966
F0.17671412399795
aI63
aI0
aI0
ag303
aa(lp1967
F0.15661920933538
aI62
aI118
aI0
ag305
aa(lp1968
F0.16778856800374
aI62
aI0
aI0
ag307
aa(lp1969
F0.16554476532959
aI60
aI122
aI0
ag309
aa(lp1970
F0.21841053000389
aI60
aI0
aI0
ag311
aa(lp1971
F0.11492280332944
aI63
aI119
aI0
ag313
aa(lp1972
F0.16737478799769
aI63
aI0
aI0
ag315
aa(lp1973
F0.16595854533565
aI62
aI118
aI0
ag317
aa(lp1974
F0.17736932000116
aI62
aI0
aI0
ag319
aa(lp1975
F0.15596401333217
aI60
aI123
aI0
ag321
aa(lp1976
F0.19823132600141
aI60
aI0
aI0
ag323
aa(lp1977
F0.13510200733193
aI62
aI121
aI0
ag325
aa(lp1978
F0.15724856200541
aI62
aI0
aI0
ag327
aa(lp1979
F0.17608477132793
aI60
aI121
aI0
ag329
aa(lp1980
F0.18865882799582
aI60
aI0
aI0
ag331
aa(lp1981
F0.14467450533751
aI0
aI0
aI0
ag333
aaa(lp1982
(lp1983
F2.6666666666667
aI75
aI112
aI0
ag336
aa(lp1984
F0.14602800000284
aI75
aI0
aI0
ag338
aa(lp1985
F0.18730533333049
aI77
aI116
aI0
ag340
aa(lp1986
F0.14661027400143
aI77
aI0
aI0
ag342
aa(lp1987
F0.1867230593319
aI82
aI114
aI0
ag344
aa(lp1988
F0.13663457999792
aI82
aI0
aI0
ag346
aa(lp1989
F0.19669875333542
aI75
aI114
aI0
ag348
aa(lp1990
F0.12525323400041
aI75
aI0
aI0
ag350
aa(lp1991
F0.20808009933292
aI77
aI115
aI0
ag352
aa(lp1992
F0.15646494399698
aI77
aI0
aI0
ag354
aa(lp1993
F0.17686838933635
aI82
aI110
aI0
ag356
aa(lp1994
F0.14645246999862
aI82
aI0
aI0
ag358
aa(lp1995
F0.18688086333471
aI75
aI118
aI0
ag360
aa(lp1996
F0.15718591399491
aI75
aI0
aI0
ag362
aa(lp1997
F0.17614741933842
aI77
aI116
aI0
ag364
aa(lp1998
F0.15732543999911
aI77
aI0
aI0
ag366
aa(lp1999
F0.17600789333422
aI82
aI110
aI0
ag368
aa(lp2000
F0.14789741599816
aI82
aI0
aI0
ag370
aa(lp2001
F0.18543591733517
aI75
aI119
aI0
ag372
aa(lp2002
F0.16656886800047
aI75
aI0
aI0
ag374
aa(lp2003
F0.16676446533287
aI77
aI115
aI0
ag376
aa(lp2004
F0.17709857400041
aI77
aI0
aI0
ag378
aa(lp2005
F0.15623475933292
aI82
aI103
aI0
ag380
aa(lp2006
F0.13608689600369
aI82
aI0
aI0
ag382
aa(lp2007
F0.19724643732964
aI75
aI118
aI0
ag384
aa(lp2008
F0.16808857000433
aI75
aI0
aI0
ag386
aa(lp2009
F0.165244763329
aI77
aI116
aI0
ag388
aa(lp2010
F0.17739135000011
aI77
aI0
aI0
ag390
aa(lp2011
F0.15594198333323
aI82
aI108
aI0
ag392
aa(lp2012
F0.15715044399985
aI82
aI0
aI0
ag394
aa(lp2013
F0.17618288933348
aI77
aI116
aI0
ag396
aa(lp2014
F0.15596604200255
aI77
aI0
aI0
ag398
aa(lp2015
F0.17736729133079
aI75
aI116
aI0
ag400
aa(lp2016
F0.16715974399995
aI75
aI0
aI0
ag402
aa(lp2017
F0.16617358933339
aI77
aI121
aI0
ag404
aa(lp2018
F0.15673195399722
aI77
aI0
aI0
ag406
aa(lp2019
F0.17660137933611
aI75
aI121
aI0
ag408
aa(lp2020
F0.2311837840025
aI75
aI0
aI0
ag410
aa(lp2021
F0.10214954933084
aI0
aI0
aI0
ag412
aaaI0
a(lp2022
(lp2023
F1.1666666666667
aI38
aI120
aI3
ag415
aa(lp2024
F0.57341577199986
aI38
aI0
aI3
ag417
aa(lp2025
F0.5932508946668
aI38
aI118
aI3
ag419
aa(lp2026
F0.22087446399382
aI38
aI0
aI3
ag421
aa(lp2027
F0.44579220267284
aI38
aI122
aI3
ag423
aa(lp2028
F3.999
aI38
aI0
aI3
ag425
aa(lp2029
F-2.999
aI0
aI0
aI0
ag427
aaaI0
a(lp2030
(lp2031
F0.0339524209503
aI36
aI114
aI1
ag817
aa(lp2032
F-0.0099276602268219
aI36
aI0
aI1
ag819
aa(lp2033
F0.58983045527384
aI36
aI117
aI1
ag821
aa(lp2034
F0.25254744600534
aI36
aI0
aI1
ag823
aa(lp2035
F1.7782105819933
aI48
aI115
aI1
ag825
aa(lp2036
F0.16678148800565
aI48
aI0
aI1
ag827
aa(lp2037
F0.49364105999848
aI48
aI117
aI1
ag829
aa(lp2038
F0.17622927799675
aI48
aI0
aI1
ag831
aa(lp2039
F0.45929130400327
aI36
aI111
aI1
ag833
aa(lp2040
F0.17767172399908
aI36
aI0
aI1
ag835
aa(lp2041
F0.57471016400086
aI36
aI111
aI1
ag837
aa(lp2042
F0.18812948199775
aI36
aI0
aI1
ag839
aa(lp2043
F1.8301636340038
aI46
aI114
aI1
ag841
aa(lp2044
F0.26084725599503
aI45
aI111
aI1
ag843
aa(lp2045
F0.030876714001352
aI46
aI0
aI1
ag845
aa(lp2046
F0.23078976200486
aI45
aI0
aI1
ag847
aa(lp2047
F0.052463885993348
aI46
aI101
aI1
ag849
aa(lp2048
F0.27273047800554
aI45
aI116
aI1
ag851
aa(lp2049
F0.052793211994867
aI46
aI0
aI1
ag853
aa(lp2050
F0.3756560000038
aI45
aI0
aI1
ag855
aa(lp2051
F0.031300905997341
aI43
aI114
aI1
ag857
aa(lp2052
F0.34548971999902
aI41
aI99
aI1
ag859
aa(lp2053
F0.021151508000912
aI43
aI0
aI1
ag861
aa(lp2054
F0.20984379600122
aI41
aI0
aI1
ag863
aa(lp2055
F0.020670215999417
aI43
aI109
aI1
ag865
aa(lp2056
F0.2513171899991
aI43
aI0
aI1
ag867
aa(lp2057
F0.062508975999663
aI45
aI98
aI1
ag869
aa(lp2058
F0.27106196000386
aI46
aI80
aI1
ag871
aa(lp2059
F0.083466507996491
aI45
aI0
aI1
ag873
aa(lp2060
F0.20947980000346
aI48
aI65
aI1
ag875
aa(lp2061
F0.062579694000306
aI46
aI0
aI1
ag877
aa(lp2062
F0.31378610200045
aI46
aI107
aI1
ag879
aa(lp2063
F0.052731575997313
aI48
aI0
aI1
ag881
aa(lp2064
F0.62863959599781
aI45
aI113
aI1
ag883
aa(lp2065
F0.062687404002645
aI46
aI0
aI1
ag885
aa(lp2066
F0.58512682199944
aI45
aI0
aI1
ag887
aa(lp2067
F0.011214660000405
aI41
aI106
aI1
ag889
aa(lp2068
F0.68982864399732
aI34
aI115
aI1
ag891
aa(lp2069
F0.073392138001509
aI41
aI0
aI1
ag893
aa(lp2070
F0.14699606999784
aI34
aI0
aI1
ag895
aa(lp2071
F0.51091308800096
aI34
aI119
aI1
ag897
aa(lp2072
F0.51360635600577
aI34
aI0
aI1
ag899
aa(lp2073
F0.85481858399726
aI0
aI0
aI0
ag901
aaaI0
a(lp2074
(lp2075
F5.6666666666667
aI69
aI112
aI1
ag430
aa(lp2076
F0.12510246999591
aI69
aI0
aI1
ag432
aa(lp2077
F0.20823086333742
aI70
aI103
aI1
ag434
aa(lp2078
F0.12495044599927
aI70
aI0
aI1
ag436
aa(lp2079
F0.20838288733406
aI72
aI114
aI1
ag438
aa(lp2080
F0.11522732600133
aI72
aI0
aI1
ag440
aa(lp2081
F0.55143934066534
aI0
aI0
aI0
ag442
aaa(lp2082
(lp2083
F1.6670055720024
aI72
aI116
aI1
ag445
aa(lp2084
F0.13616765999905
aI72
aI0
aI1
ag447
aa(lp2085
F0.16755542999454
aI74
aI116
aI1
ag449
aa(lp2086
F0.13488422000228
aI74
aI0
aI1
ag451
aa(lp2087
F0.18904788600048
aI75
aI114
aI1
ag453
aa(lp2088
F0.10355724200053
aI75
aI0
aI1
ag455
aa(lp2089
F0.60178199000075
aI0
aI0
aI0
ag457
aaaI0
aI0
aI0
aI0
aI0
aI0
aI0
aI0
aI0
aI0
aI0
aI0
aI0
aI0
aI0
aI0
aI0
aI0
aI0
aI0
aI0
aI0
aI0
aI0
aI0
aI0
aI0
aI0
aI0
aI0
aI0
aI0
aI0
aI0
aI0
aI0
aI0
aI0
aI0
aI0
aI0
aI0
aI0
aI0
aI0
aI0
aI0
aI0
aI0
aI0
aI0
aI0
aa(lp2090
(dp2091
a(dp2092
a(dp2093
a(dp2094
g464
I33
sg465
I0
sa(dp2095
g464
I34
sg465
I01
sa(dp2096
g465
I0
sa(dp2097
g465
I0
sa(dp2098
g464
I37
sg465
I0
sa(dp2099
a(dp2100
g465
I0
sa(dp2101
a(dp2102
g464
I43
sg465
I1
sa(dp2103
g464
I44
sg465
I0
sa(dp2104
g464
I45
sg465
I1
sa(dp2105
g464
I46
sg465
I1
sa(dp2106
g464
I47
sg465
I0
sa(dp2107
g464
I48
sg465
I0
sa(dp2108
g465
I0
sa(dp2109
a(dp2110
g464
I53
sg465
I1
sa(dp2111
a(dp2112
a(dp2113
a(dp2114
a(dp2115
a(dp2116
g465
I1
sa(dp2117
a(dp2118
a(dp2119
g465
I0
sa(dp2120
g465
I0
sa(dp2121
g465
I0
sa(dp2122
g465
I0
sa(dp2123
g465
I0
sa(dp2124
g465
I1
sa(dp2125
a(dp2126
a(dp2127
a(dp2128
a(dp2129
g465
I0
sa(dp2130
g464
I77
sg465
I0
sa(dp2131
g464
I78
sg465
I0
sa(dp2132
g465
I1
sa(dp2133
g464
I82
sg465
I0
sa(dp2134
g465
I0
sa(dp2135
g464
I84
sg465
I01
sa(dp2136
a(dp2137
g464
I86
sg465
I0
sa(dp2138
g464
I87
sg465
I0
sa(dp2139
a(dp2140
a(dp2141
a(dp2142
a(dp2143
a(dp2144
a(dp2145
a(dp2146
a(dp2147
a(dp2148
a(dp2149
a(dp2150
a(dp2151
a(dp2152
a(dp2153
a(dp2154
a(dp2155
a(dp2156
a(dp2157
a(dp2158
a(dp2159
a(dp2160
a(dp2161
a(dp2162
a(dp2163
a(dp2164
a(dp2165
a(dp2166
a(dp2167
a(dp2168
a(dp2169
a(dp2170
a(dp2171
a(dp2172
a(dp2173
a(dp2174
a(dp2175
a(dp2176
a(dp2177
a(dp2178
a(dp2179
a(dp2180
a(dp2181
a(dp2182
a(dp2183
a(dp2184
a(dp2185
a(dp2186
a(dp2187
a(dp2188
a(dp2189
a(dp2190
aa(lp2191
I60
aI60
aI36
aI36
aa(lp2192
(lp2193
I0
aI2
aI3
aI5
aI7
aI8
aI10
aa(lp2194
I0
aI2
aI3
aI5
aI7
aI8
aI10
aa(lp2195
I0
aI2
aI3
aI5
aI7
aI8
aI10
aa(lp2196
I0
aI2
aI3
aI5
aI7
aI8
aI10
aa(lp2197
I0
aI2
aI3
aI5
aI7
aI8
aI10
aa(lp2198
I0
aI1
aI2
aI3
aI4
aI5
aI6
aI7
aI8
aI9
aI10
aI11
aaa(lp2199
(lp2200
(lp2201
I0
aI0
aI0
aI0
aI0
aI0
aI0
aI0
aI0
aI0
aI0
aI0
aa(lp2202
I0
aI0
aI0
aI0
aI0
aI0
aI0
aI0
aI0
aI0
aI0
aI0
aa(lp2203
I0
aI0
aI0
aI0
aI0
aI0
aI0
aI0
aI0
aI0
aI0
aI0
aa(lp2204
I0
aI0
aI0
aI0
aI0
aI0
aI0
aI0
aI0
aI0
aI0
aI0
aaa(lp2205
(lp2206
I0
aI0
aI0
aI0
aI0
aI0
aI0
aI0
aI0
aI0
aI0
aI0
aa(lp2207
I0
aI0
aI0
aI0
aI0
aI0
aI0
aI0
aI0
aI0
aI0
aI0
aa(lp2208
I0
aI0
aI0
aI0
aI0
aI0
aI0
aI0
aI0
aI0
aI0
aI0
aa(lp2209
I0
aI0
aI0
aI0
aI0
aI0
aI0
aI0
aI0
aI0
aI0
aI0
aaa(lp2210
(lp2211
I0
aI0
aI0
aI0
aI0
aI0
aI0
aI0
aI0
aI0
aI0
aI0
aa(lp2212
I0
aI0
aI0
aI0
aI0
aI0
aI0
aI0
aI0
aI0
aI0
aI0
aa(lp2213
I0
aI0
aI0
aI0
aI0
aI0
aI0
aI0
aI0
aI0
aI0
aI0
aa(lp2214
I0
aI0
aI0
aI0
aI0
aI0
aI0
aI0
aI0
aI0
aI0
aI0
aaa(lp2215
(lp2216
I0
aI0
aI0
aI0
aI0
aI0
aI0
aI0
aI0
aI0
aI0
aI0
aa(lp2217
I0
aI0
aI0
aI0
aI0
aI0
aI0
aI0
aI0
aI0
aI0
aI0
aa(lp2218
I0
aI0
aI0
aI0
aI0
aI0
aI0
aI0
aI0
aI0
aI0
aI0
aa(lp2219
I0
aI0
aI0
aI0
aI0
aI0
aI0
aI0
aI0
aI0
aI0
aI0
aaaa(lp2220
(lp2221
I0
aI0
aI0
aI0
aI0
aI0
aI0
aI0
aI0
aI0
aI0
aI0
aa(lp2222
I0
aI0
aI0
aI0
aI0
aI0
aI0
aI0
aI0
aI0
aI0
aI0
aa(lp2223
I0
aI0
aI0
aI0
aI0
aI0
aI0
aI0
aI0
aI0
aI0
aI0
aa(lp2224
I0
aI0
aI0
aI0
aI0
aI0
aI0
aI0
aI0
aI0
aI0
aI0
aaaa(lp2225
(lp2226
I0
a(lp2227
(lp2228
F0.0
aI60
aI114
aI2
aS'on'
p2229
aa(lp2230
F7.951441113999
aI60
aI0
aI2
aS'off'
p2231
aa(lp2232
F0.048558886001047
aI0
aI0
aI0
aS'timeAfterLastHit'
p2233
aaa(lp2234
(lp2235
F0.0
aI69
aI94
aI2
aS'on'
p2236
aa(lp2237
F0.33333333333333
aI70
aI62
aI2
aS'on'
p2238
aa(lp2239
F0.078437601886132
aI69
aI0
aI2
aS'off'
p2240
aa(lp2241
F0.22431023011389
aI70
aI0
aI2
aS'off'
p2242
aa(lp2243
F0.030585501333311
aI72
aI97
aI2
aS'on'
p2244
aa(lp2245
F0.33333333333333
aI74
aI89
aI2
aS'on'
p2246
aa(lp2247
F0.073905398664162
aI72
aI0
aI2
aS'off'
p2248
aa(lp2249
F0.25942793466917
aI72
aI118
aI2
aS'on'
p2250
aa(lp2251
F0.032499494666505
aI74
aI0
aI2
aS'off'
p2252
aa(lp2253
F0.30083383866683
aI70
aI35
aI2
aS'on'
p2254
aa(lp2255
F0.12551013466388
aI72
aI0
aI2
aS'off'
p2256
aa(lp2257
F0.20782319866945
aI69
aI99
aI2
aS'on'
p2258
aa(lp2259
F0.095435468664315
aI70
aI0
aI2
aS'off'
p2260
aa(lp2261
F0.23789786466902
aI70
aI96
aI2
aS'on'
p2262
aa(lp2263
F0.074699172665229
aI69
aI0
aI2
aS'off'
p2264
aa(lp2265
F0.2586341606681
aI69
aI114
aI2
aS'on'
p2266
aa(lp2267
F0.04260416666754
aI70
aI0
aI2
aS'off'
p2268
aa(lp2269
F0.29072916666579
aI67
aI112
aI2
aS'on'
p2270
aa(lp2271
F0.0432059646652
aI69
aI0
aI2
aS'off'
p2272
aa(lp2273
F0.79012736866813
aI69
aI97
aI2
aS'on'
p2274
aa(lp2275
F0.21185443867095
aI67
aI0
aI2
aS'off'
p2276
aa(lp2277
F0.78814556132905
aI70
aI96
aI2
aS'on'
p2278
aa(lp2279
F0.10823044599965
aI69
aI0
aI2
aS'off'
p2280
aa(lp2281
F0.55843622066701
aI69
aI106
aI2
aS'on'
p2282
aa(lp2283
F0.10741404133053
aI70
aI0
aI2
aS'off'
p2284
aa(lp2285
F0.2259192920028
aI70
aI92
aI2
aS'on'
p2286
aa(lp2287
F0.053986858666273
aI69
aI0
aI2
aS'off'
p2288
aa(lp2289
F0.61267980800039
aI69
aI106
aI2
aS'on'
p2290
aa(lp2291
F0.13698254133245
aI70
aI0
aI2
aS'off'
p2292
aa(lp2293
F0.15571802066794
aI69
aI0
aI2
aS'off'
p2294
aa(lp2295
F0.040632771332942
aI67
aI114
aI2
aS'on'
p2296
aa(lp2297
F0.6798698279963
aI67
aI0
aI2
aS'off'
p2298
aa(lp2299
F0.48679683867037
aI0
aI0
aI0
aS'timeAfterLastHit'
p2300
aaa(lp2301
(lp2302
F0.024632614850816
aI65
aI114
aI2
ag1712
aa(lp2303
F0.00017054677027772
aI60
aI107
aI2
ag1714
aa(lp2304
F3.8846530283772
aI58
aI81
aI2
ag1716
aa(lp2305
F0.010162210004637
aI63
aI94
aI2
ag1718
aa(lp2306
F0.16844352199405
aI60
aI0
aI2
ag1720
aa(lp2307
F0.011525781999808
aI65
aI0
aI2
ag1722
aa(lp2308
F3.8268072480059
aI60
aI89
aI2
ag1724
aa(lp2309
F9.0800000180025e-05
aI55
aI103
aI2
ag1726
aa(lp2310
F0.10460839199368
aI58
aI0
aI2
ag1728
aa(lp2311
F0.032095779999509
aI63
aI0
aI2
ag1730
aa(lp2312
F7.9268100760037
aI60
aI0
aI2
ag1732
aa(lp2313
F0.0
aI55
aI0
aI2
ag1734
aa(lp2314
F0.010000000000218
aI0
aI0
aI0
ag1736
aaa(lp2315
(lp2316
F0.0357526242733
aI60
aI97
aI2
ag1739
aa(lp2317
F-0.035593551397142
aI64
aI97
aI2
ag1741
aa(lp2318
F2.9112806131261
aI65
aI95
aI2
ag1743
aa(lp2319
F0.12395363399992
aI64
aI0
aI2
ag1745
aa(lp2320
F0.90113579199533
aI67
aI79
aI2
ag1747
aa(lp2321
F0.041361444003996
aI65
aI0
aI2
ag1749
aa(lp2322
F1.9254303739945
aI63
aI93
aI2
ag1751
aa(lp2323
F0.10432374000084
aI67
aI0
aI2
ag1753
aa(lp2324
F1.999885448
aI65
aI103
aI2
ag1755
aa(lp2325
F0.073732210003072
aI63
aI0
aI2
ag1757
aa(lp2326
F3.8608857959989
aI62
aI88
aI2
ag1759
aa(lp2327
F0.073238222001237
aI65
aI0
aI2
ag1761
aa(lp2328
F3.3232902340023
aI60
aI0
aI2
ag1763
aa(lp2329
F0.052063666000322
aI62
aI0
aI2
ag1765
aa(lp2330
F0.60925975399732
aI0
aI0
aI0
ag1767
aaaI0
aI0
a(lp2331
(lp2332
F0.42547741800081
aI36
aI114
aI2
ag80
aa(lp2333
F0.32425749200047
aI39
aI97
aI2
ag82
aa(lp2334
F0.02168556000106
aI36
aI0
aI2
ag84
aa(lp2335
F0.30341418399621
aI41
aI110
aI2
ag86
aa(lp2336
F0.00018656800239114
aI39
aI0
aI2
ag88
aa(lp2337
F0.30231893999735
aI43
aI114
aI2
ag90
aa(lp2338
F0.010694780001359
aI41
aI0
aI2
ag92
aa(lp2339
F0.31415531400125
aI43
aI0
aI2
ag94
aa(lp2340
F0.072780829999829
aI46
aI109
aI2
ag96
aa(lp2341
F0.3135757439959
aI48
aI116
aI2
ag98
aa(lp2342
F0.010306004005542
aI46
aI0
aI2
ag100
aa(lp2343
F0.30309675199533
aI46
aI115
aI2
ag102
aa(lp2344
F0.02062745999865
aI48
aI0
aI2
ag104
aa(lp2345
F3.8779098440064
aI45
aI82
aI2
ag106
aa(lp2346
F0.09537153999554
aI46
aI0
aI2
ag108
aa(lp2347
F3.6102586499983
aI46
aI68
aI2
ag110
aa(lp2348
F0.11413744000311
aI45
aI0
aI2
ag112
aa(lp2349
F4.0365917960007
aI41
aI94
aI2
ag114
aa(lp2350
F0.1469020059958
aI46
aI0
aI2
ag116
aa(lp2351
F2.0735368020032
aI43
aI101
aI2
ag118
aa(lp2352
F0.12608478200127
aI41
aI0
aI2
ag120
aa(lp2353
F1.7762135500016
aI36
aI109
aI2
ag122
aa(lp2354
F0.073024407996854
aI43
aI0
aI2
ag124
aa(lp2355
F7.905950196
aI39
aI97
aI2
ag126
aa(lp2356
F0.12608750000072
aI36
aI0
aI2
ag128
aa(lp2357
F0.54521233800187
aI36
aI100
aI2
ag130
aa(lp2358
F0.15632358999574
aI39
aI0
aI2
ag132
aa(lp2359
F6.9038185120028
aI36
aI0
aI2
ag134
aa(lp2360
F0.0099999999999909
aI0
aI0
aI0
ag136
aaaI0
aI0
aI0
a(lp2361
(lp2362
F0.0
aI74
aI56
aI1
ag1800
aa(lp2363
F0.26223124399985
aI74
aI0
aI1
ag1802
aa(lp2364
F0.40443542266682
aI74
aI71
aI1
ag1804
aa(lp2365
F0.23049842200271
aI74
aI0
aI1
ag1806
aa(lp2366
F0.43616824466396
aI72
aI65
aI1
ag1808
aa(lp2367
F0.14637673999823
aI72
aI0
aI1
ag1810
aa(lp2368
F0.52028992666844
aI72
aI10
aI1
ag1812
aa(lp2369
F0.072783011994034
aI72
aI0
aI1
ag1814
aa(lp2370
F0.59388365467263
aI74
aI71
aI1
ag1816
aa(lp2371
F0.25977960599994
aI74
aI0
aI1
ag1818
aa(lp2372
F0.40688706066673
aI74
aI82
aI1
ag1820
aa(lp2373
F0.25084002799849
aI74
aI0
aI1
ag1822
aa(lp2374
F0.41582663866817
aI72
aI84
aI1
ag1824
aa(lp2375
F0.11525532999804
aI72
aI0
aI1
ag1826
aa(lp2376
F0.55141133666863
aI72
aI34
aI1
ag1828
aa(lp2377
F0.082655466001597
aI72
aI0
aI1
ag1830
aa(lp2378
F0.58401120066507
aI74
aI66
aI1
ag1832
aa(lp2379
F0.27226701600011
aI74
aI0
aI1
ag1834
aa(lp2380
F0.39439965066655
aI74
aI79
aI1
ag1836
aa(lp2381
F0.21994950599765
aI74
aI0
aI1
ag1838
aa(lp2382
F0.44671716066902
aI72
aI82
aI1
ag1840
aa(lp2383
F0.10419142399769
aI72
aI0
aI1
ag1842
aa(lp2384
F0.56247524266898
aI72
aI77
aI1
ag1844
aa(lp2385
F0.11655469400284
aI72
aI0
aI1
ag1846
aa(lp2386
F0.55011197266382
aI0
aI0
aI0
ag1848
aaa(lp2387
(lp2388
F1.3333333333333
aI41
aI123
aI3
ag139
aa(lp2389
F2.999
aI41
aI0
aI3
ag141
aa(lp2390
F-1.3323333333333
aI0
aI0
aI0
ag143
aaa(lp2391
(lp2392
F0.0
aI36
aI124
aI3
ag146
aa(lp2393
F0.16987656823176
aI36
aI0
aI3
ag148
aa(lp2394
F0.49679009843491
aI36
aI123
aI3
ag150
aa(lp2395
F2.6150870460042
aI36
aI0
aI3
ag152
aa(lp2396
F0.71824628732914
aI0
aI0
aI0
ag154
aaa(lp2397
(lp2398
F2.3333333333333
aI44
aI116
aI3
ag157
aa(lp2399
F0.10516025999823
aI44
aI0
aI3
ag159
aa(lp2400
F0.56150640666844
aI44
aI115
aI3
ag161
aa(lp2401
F0.18831306799984
aI44
aI0
aI3
ag163
aa(lp2402
F0.81168693200016
aI0
aI0
aI0
ag165
aaa(lp2403
(lp2404
F1.0
aI38
aI124
aI3
ag168
aa(lp2405
F2.1933984479983
aI38
aI0
aI3
ag170
aa(lp2406
F0.80660155200167
aI0
aI0
aI0
ag172
aaa(lp2407
(lp2408
F0.0
aI36
aI122
aI3
aS'on'
p2409
aa(lp2410
F0.090861341882373
aI36
aI0
aI3
aS'off'
p2411
aa(lp2412
F0.57580532478429
aI36
aI121
aI3
aS'on'
p2413
aa(lp2414
F0.1980232539936
aI36
aI0
aI3
aS'off'
p2415
aa(lp2416
F0.13531007933974
aI38
aI120
aI3
aS'on'
p2417
aa(lp2418
F0.32410533999791
aI38
aI0
aI3
aS'off'
p2419
aa(lp2420
F0.0092279933354196
aI36
aI123
aI3
aS'on'
p2421
aa(lp2422
F0.20885969599476
aI36
aI0
aI3
aS'off'
p2423
aa(lp2424
F0.45780697067191
aI36
aI124
aI3
aS'on'
p2425
aa(lp2426
F0.20950751400233
aI36
aI0
aI3
aS'off'
p2427
aa(lp2428
F0.45715915266434
aI36
aI123
aI3
aS'on'
p2429
aa(lp2430
F0.20896857600019
aI36
aI0
aI3
aS'off'
p2431
aa(lp2432
F0.12436475733315
aI38
aI120
aI3
aS'on'
p2433
aa(lp2434
F0.47026634599752
aI38
aI0
aI3
aS'off'
p2435
aa(lp2436
F0.52973365400248
aI0
aI0
aI0
aS'timeAfterLastHit'
p2437
aaaI0
aI0
a(lp2438
(lp2439
F0.0
aI67
aI52
aI1
ag1881
aa(lp2440
F0.15624359000503
aI67
aI0
aI1
ag1883
aa(lp2441
F0.51042307666163
aI67
aI41
aI1
ag1885
aa(lp2442
F0.22020492400043
aI67
aI0
aI1
ag1887
aa(lp2443
F0.44646174266624
aI65
aI61
aI1
ag1889
aa(lp2444
F0.22963616199559
aI65
aI0
aI1
ag1891
aa(lp2445
F0.43703050467108
aI65
aI46
aI1
ag1893
aa(lp2446
F0.26136627999949
aI65
aI0
aI1
ag1895
aa(lp2447
F0.40530038666717
aI67
aI55
aI1
ag1897
aa(lp2448
F0.25093730799563
aI67
aI0
aI1
ag1899
aa(lp2449
F0.41572935867104
aI67
aI69
aI1
ag1901
aa(lp2450
F0.21969265399821
aI67
aI0
aI1
ag1903
aa(lp2451
F0.44697401266846
aI65
aI55
aI1
ag1905
aa(lp2452
F0.30418359200121
aI65
aI0
aI1
ag1907
aa(lp2453
F0.36248307466546
aI65
aI45
aI1
ag1909
aa(lp2454
F0.260825080004
aI65
aI0
aI1
ag1911
aa(lp2455
F0.40584158666267
aI67
aI56
aI1
ag1913
aa(lp2456
F0.24878297800024
aI67
aI0
aI1
ag1915
aa(lp2457
F0.41788368866643
aI67
aI58
aI1
ag1917
aa(lp2458
F0.16789296600473
aI67
aI0
aI1
ag1919
aa(lp2459
F0.49877370066194
aI65
aI62
aI1
ag1921
aa(lp2460
F0.26066186199751
aI65
aI0
aI1
ag1923
aa(lp2461
F0.40600480466916
aI65
aI29
aI1
ag1925
aa(lp2462
F0.2093169219952
aI65
aI0
aI1
ag1927
aa(lp2463
F0.45734974467147
aI0
aI0
aI0
ag1929
aaaI0
aI0
a(lp2464
(lp2465
F0.0
aI75
aI115
aI0
aS'on'
p2466
aa(lp2467
F0.039540962167848
aI75
aI0
aI0
aS'off'
p2468
aa(lp2469
F0.12712570449882
aI75
aI105
aI0
aS'on'
p2470
aa(lp2471
F0.13614160400175
aI75
aI0
aI0
aS'off'
p2472
aa(lp2473
F0.36385839599825
aI74
aI114
aI0
aS'on'
p2474
aa(lp2475
F0.12516011400294
aI74
aI0
aI0
aS'off'
p2476
aa(lp2477
F0.2081732193304
aI74
aI112
aI0
aS'on'
p2478
aa(lp2479
F0.13663620800071
aI74
aI0
aI0
aS'off'
p2480
aa(lp2481
F0.19669712533262
aI72
aI116
aI0
aS'on'
p2482
aa(lp2483
F0.11566783799935
aI72
aI0
aI0
aS'off'
p2484
aa(lp2485
F0.21766549533398
aI72
aI114
aI0
aS'on'
p2486
aa(lp2487
F0.094039513998723
aI72
aI0
aI0
aS'off'
p2488
aa(lp2489
F0.23929381933461
aI75
aI119
aI0
aS'on'
p2490
aa(lp2491
F0.13648498400289
aI75
aI0
aI0
aS'off'
p2492
aa(lp2493
F0.19684834933044
aI75
aI118
aI0
aS'on'
p2494
aa(lp2495
F0.13557918399601
aI75
aI0
aI0
aS'off'
p2496
aa(lp2497
F0.19775414933732
aI74
aI114
aI0
aS'on'
p2498
aa(lp2499
F0.15804908800055
aI74
aI0
aI0
aS'off'
p2500
aa(lp2501
F0.17528424533278
aI74
aI114
aI0
aS'on'
p2502
aa(lp2503
F0.15731304400106
aI74
aI0
aI0
aS'off'
p2504
aa(lp2505
F0.17602028933228
aI72
aI120
aI0
aS'on'
p2506
aa(lp2507
F0.14606432800065
aI72
aI0
aI0
aS'off'
p2508
aa(lp2509
F0.18726900533269
aI72
aI118
aI0
aS'on'
p2510
aa(lp2511
F0.12557124200248
aI72
aI0
aI0
aS'off'
p2512
aa(lp2513
F0.20776209133085
aI0
aI0
aI0
aS'timeAfterLastHit'
p2514
aaaI0
a(lp2515
(lp2516
F0.33110847799981
aI42
aI120
aI3
aS'on'
p2517
aa(lp2518
F0.083021475998976
aI42
aI0
aI3
aS'off'
p2519
aa(lp2520
F0.6480968820033
aI38
aI118
aI3
aS'on'
p2521
aa(lp2522
F0.051951884001028
aI38
aI0
aI3
aS'off'
p2523
aa(lp2524
F1.967418799999
aI42
aI123
aI3
aS'on'
p2525
aa(lp2526
F0.124375899999
aI42
aI0
aI3
aS'off'
p2527
aa(lp2528
F0.7940265799989
aI0
aI0
aI0
aS'timeAfterLastHit'
p2529
aaaI0
aI0
aI0
aI0
aI0
aI0
aI0
aI0
aI0
aI0
aI0
aI0
aI0
aI0
a(lp2530
(lp2531
F0.66666666666667
aI69
aI112
aI0
ag233
aa(lp2532
F0.20819120800297
aI69
aI0
aI0
ag235
aa(lp2533
F0.12514212533036
aI70
aI117
aI0
ag237
aa(lp2534
F0.18926928599831
aI70
aI0
aI0
ag239
aa(lp2535
F0.14406404733503
aI72
aI116
aI0
ag241
aa(lp2536
F0.13501328599523
aI72
aI0
aI0
ag243
aa(lp2537
F0.19832004733811
aI69
aI105
aI0
ag245
aa(lp2538
F0.33333333333333
aI70
aI112
aI0
ag247
aa(lp2539
F0.085295714665941
aI69
aI0
aI0
ag249
aa(lp2540
F0.12356323333127
aI70
aI0
aI0
ag251
aa(lp2541
F0.12447438533612
aI72
aI116
aI0
ag253
aa(lp2542
F0.15832843200042
aI72
aI0
aI0
ag255
aa(lp2543
F0.17500490133292
aI69
aI116
aI0
ag257
aa(lp2544
F0.33333333333333
aI70
aI112
aI0
ag259
aa(lp2545
F0.10593160466184
aI69
aI0
aI0
ag261
aa(lp2546
F0.093268755333459
aI70
aI0
aI0
ag263
aa(lp2547
F0.13413297333803
aI72
aI115
aI0
ag265
aa(lp2548
F0.14565113199933
aI72
aI0
aI0
ag267
aa(lp2549
F0.187682201334
aI70
aI114
aI0
ag269
aa(lp2550
F0.2085986940001
aI70
aI0
aI0
ag271
aa(lp2551
F0.12473463933323
aI67
aI118
aI0
ag273
aa(lp2552
F0.15706758000306
aI67
aI0
aI0
ag275
aa(lp2553
F0.17626575333027
aI65
aI118
aI0
ag277
aa(lp2554
F0.17875497799832
aI65
aI0
aI0
ag279
aa(lp2555
F0.15457835533501
aI67
aI114
aI0
ag281
aa(lp2556
F0.14733588600211
aI67
aI0
aI0
ag283
aa(lp2557
F0.18599744733122
aI65
aI116
aI0
ag285
aa(lp2558
F0.19825500199659
aI65
aI0
aI0
ag287
aa(lp2559
F0.13507833133675
aI63
aI119
aI0
ag289
aa(lp2560
F0.16810757399799
aI63
aI0
aI0
ag291
aa(lp2561
F0.16522575933535
aI62
aI116
aI0
ag293
aa(lp2562
F0.15658406599687
aI62
aI0
aI0
ag295
aa(lp2563
F0.17674926733647
aI60
aI118
aI0
ag297
aa(lp2564
F0.18826931199874
aI60
aI0
aI0
ag299
aa(lp2565
F0.1450640213346
aI63
aI118
aI0
ag301
aa(lp2566
F0.17671412399795
aI63
aI0
aI0
ag303
aa(lp2567
F0.15661920933538
aI62
aI118
aI0
ag305
aa(lp2568
F0.16778856800374
aI62
aI0
aI0
ag307
aa(lp2569
F0.16554476532959
aI60
aI122
aI0
ag309
aa(lp2570
F0.21841053000389
aI60
aI0
aI0
ag311
aa(lp2571
F0.11492280332944
aI63
aI119
aI0
ag313
aa(lp2572
F0.16737478799769
aI63
aI0
aI0
ag315
aa(lp2573
F0.16595854533565
aI62
aI118
aI0
ag317
aa(lp2574
F0.17736932000116
aI62
aI0
aI0
ag319
aa(lp2575
F0.15596401333217
aI60
aI123
aI0
ag321
aa(lp2576
F0.19823132600141
aI60
aI0
aI0
ag323
aa(lp2577
F0.13510200733193
aI62
aI121
aI0
ag325
aa(lp2578
F0.15724856200541
aI62
aI0
aI0
ag327
aa(lp2579
F0.17608477132793
aI60
aI121
aI0
ag329
aa(lp2580
F0.18865882799582
aI60
aI0
aI0
ag331
aa(lp2581
F0.14467450533751
aI0
aI0
aI0
ag333
aaa(lp2582
(lp2583
F2.6666666666667
aI75
aI112
aI0
ag336
aa(lp2584
F0.14602800000284
aI75
aI0
aI0
ag338
aa(lp2585
F0.18730533333049
aI77
aI116
aI0
ag340
aa(lp2586
F0.14661027400143
aI77
aI0
aI0
ag342
aa(lp2587
F0.1867230593319
aI82
aI114
aI0
ag344
aa(lp2588
F0.13663457999792
aI82
aI0
aI0
ag346
aa(lp2589
F0.19669875333542
aI75
aI114
aI0
ag348
aa(lp2590
F0.12525323400041
aI75
aI0
aI0
ag350
aa(lp2591
F0.20808009933292
aI77
aI115
aI0
ag352
aa(lp2592
F0.15646494399698
aI77
aI0
aI0
ag354
aa(lp2593
F0.17686838933635
aI82
aI110
aI0
ag356
aa(lp2594
F0.14645246999862
aI82
aI0
aI0
ag358
aa(lp2595
F0.18688086333471
aI75
aI118
aI0
ag360
aa(lp2596
F0.15718591399491
aI75
aI0
aI0
ag362
aa(lp2597
F0.17614741933842
aI77
aI116
aI0
ag364
aa(lp2598
F0.15732543999911
aI77
aI0
aI0
ag366
aa(lp2599
F0.17600789333422
aI82
aI110
aI0
ag368
aa(lp2600
F0.14789741599816
aI82
aI0
aI0
ag370
aa(lp2601
F0.18543591733517
aI75
aI119
aI0
ag372
aa(lp2602
F0.16656886800047
aI75
aI0
aI0
ag374
aa(lp2603
F0.16676446533287
aI77
aI115
aI0
ag376
aa(lp2604
F0.17709857400041
aI77
aI0
aI0
ag378
aa(lp2605
F0.15623475933292
aI82
aI103
aI0
ag380
aa(lp2606
F0.13608689600369
aI82
aI0
aI0
ag382
aa(lp2607
F0.19724643732964
aI75
aI118
aI0
ag384
aa(lp2608
F0.16808857000433
aI75
aI0
aI0
ag386
aa(lp2609
F0.165244763329
aI77
aI116
aI0
ag388
aa(lp2610
F0.17739135000011
aI77
aI0
aI0
ag390
aa(lp2611
F0.15594198333323
aI82
aI108
aI0
ag392
aa(lp2612
F0.15715044399985
aI82
aI0
aI0
ag394
aa(lp2613
F0.17618288933348
aI77
aI116
aI0
ag396
aa(lp2614
F0.15596604200255
aI77
aI0
aI0
ag398
aa(lp2615
F0.17736729133079
aI75
aI116
aI0
ag400
aa(lp2616
F0.16715974399995
aI75
aI0
aI0
ag402
aa(lp2617
F0.16617358933339
aI77
aI121
aI0
ag404
aa(lp2618
F0.15673195399722
aI77
aI0
aI0
ag406
aa(lp2619
F0.17660137933611
aI75
aI121
aI0
ag408
aa(lp2620
F0.2311837840025
aI75
aI0
aI0
ag410
aa(lp2621
F0.10214954933084
aI0
aI0
aI0
ag412
aaaI0
a(lp2622
(lp2623
F1.1666666666667
aI38
aI120
aI3
ag415
aa(lp2624
F0.57341577199986
aI38
aI0
aI3
ag417
aa(lp2625
F0.5932508946668
aI38
aI118
aI3
ag419
aa(lp2626
F0.22087446399382
aI38
aI0
aI3
ag421
aa(lp2627
F0.44579220267284
aI38
aI122
aI3
ag423
aa(lp2628
F3.999
aI38
aI0
aI3
ag425
aa(lp2629
F-2.999
aI0
aI0
aI0
ag427
aaaI0
a(lp2630
(lp2631
F0.0339524209503
aI36
aI114
aI1
ag817
aa(lp2632
F-0.0099276602268219
aI36
aI0
aI1
ag819
aa(lp2633
F0.58983045527384
aI36
aI117
aI1
ag821
aa(lp2634
F0.25254744600534
aI36
aI0
aI1
ag823
aa(lp2635
F1.7782105819933
aI48
aI115
aI1
ag825
aa(lp2636
F0.16678148800565
aI48
aI0
aI1
ag827
aa(lp2637
F0.49364105999848
aI48
aI117
aI1
ag829
aa(lp2638
F0.17622927799675
aI48
aI0
aI1
ag831
aa(lp2639
F0.45929130400327
aI36
aI111
aI1
ag833
aa(lp2640
F0.17767172399908
aI36
aI0
aI1
ag835
aa(lp2641
F0.57471016400086
aI36
aI111
aI1
ag837
aa(lp2642
F0.18812948199775
aI36
aI0
aI1
ag839
aa(lp2643
F1.8301636340038
aI46
aI114
aI1
ag841
aa(lp2644
F0.26084725599503
aI45
aI111
aI1
ag843
aa(lp2645
F0.030876714001352
aI46
aI0
aI1
ag845
aa(lp2646
F0.23078976200486
aI45
aI0
aI1
ag847
aa(lp2647
F0.052463885993348
aI46
aI101
aI1
ag849
aa(lp2648
F0.27273047800554
aI45
aI116
aI1
ag851
aa(lp2649
F0.052793211994867
aI46
aI0
aI1
ag853
aa(lp2650
F0.3756560000038
aI45
aI0
aI1
ag855
aa(lp2651
F0.031300905997341
aI43
aI114
aI1
ag857
aa(lp2652
F0.34548971999902
aI41
aI99
aI1
ag859
aa(lp2653
F0.021151508000912
aI43
aI0
aI1
ag861
aa(lp2654
F0.20984379600122
aI41
aI0
aI1
ag863
aa(lp2655
F0.020670215999417
aI43
aI109
aI1
ag865
aa(lp2656
F0.2513171899991
aI43
aI0
aI1
ag867
aa(lp2657
F0.062508975999663
aI45
aI98
aI1
ag869
aa(lp2658
F0.27106196000386
aI46
aI80
aI1
ag871
aa(lp2659
F0.083466507996491
aI45
aI0
aI1
ag873
aa(lp2660
F0.20947980000346
aI48
aI65
aI1
ag875
aa(lp2661
F0.062579694000306
aI46
aI0
aI1
ag877
aa(lp2662
F0.31378610200045
aI46
aI107
aI1
ag879
aa(lp2663
F0.052731575997313
aI48
aI0
aI1
ag881
aa(lp2664
F0.62863959599781
aI45
aI113
aI1
ag883
aa(lp2665
F0.062687404002645
aI46
aI0
aI1
ag885
aa(lp2666
F0.58512682199944
aI45
aI0
aI1
ag887
aa(lp2667
F0.011214660000405
aI41
aI106
aI1
ag889
aa(lp2668
F0.68982864399732
aI34
aI115
aI1
ag891
aa(lp2669
F0.073392138001509
aI41
aI0
aI1
ag893
aa(lp2670
F0.14699606999784
aI34
aI0
aI1
ag895
aa(lp2671
F0.51091308800096
aI34
aI119
aI1
ag897
aa(lp2672
F0.51360635600577
aI34
aI0
aI1
ag899
aa(lp2673
F0.85481858399726
aI0
aI0
aI0
ag901
aaaI0
a(lp2674
(lp2675
F5.6666666666667
aI69
aI112
aI1
ag430
aa(lp2676
F0.12510246999591
aI69
aI0
aI1
ag432
aa(lp2677
F0.20823086333742
aI70
aI103
aI1
ag434
aa(lp2678
F0.12495044599927
aI70
aI0
aI1
ag436
aa(lp2679
F0.20838288733406
aI72
aI114
aI1
ag438
aa(lp2680
F0.11522732600133
aI72
aI0
aI1
ag440
aa(lp2681
F0.55143934066534
aI0
aI0
aI0
ag442
aaa(lp2682
(lp2683
F0.046419894695646
aI65
aI0
aI1
aS'off'
p2684
aa(lp2685
F-0.0098257146983087
aI60
aI122
aI1
aS'on'
p2686
aa(lp2687
F5.8826686880057
aI64
aI114
aI1
aS'on'
p2688
aa(lp2689
F0.072802469992894
aI60
aI0
aI1
aS'off'
p2690
aa(lp2691
F0.95183112200175
aI65
aI114
aI1
aS'on'
p2692
aa(lp2693
F0.093858373998955
aI64
aI0
aI1
aS'off'
p2694
aa(lp2695
F0.9192662600035
aI67
aI105
aI1
aS'on'
p2696
aa(lp2697
F0.031759092002176
aI65
aI0
aI1
aS'off'
p2698
aa(lp2699
F1.9672862839943
aI67
aI0
aI1
aS'off'
p2700
aa(lp2701
F0.010603788003209
aI70
aI105
aI1
aS'on'
p2702
aa(lp2703
F1.9644030560012
aI69
aI109
aI1
aS'on'
p2704
aa(lp2705
F0.072709029998805
aI70
aI0
aI1
aS'off'
p2706
aa(lp2707
F1.9244164880001
aI65
aI103
aI1
aS'on'
p2708
aa(lp2709
F0.073286626000481
aI69
aI0
aI1
aS'off'
p2710
aa(lp2711
F1.9885145419994
aI65
aI0
aI1
aS'off'
p2712
aa(lp2713
F0.010000000000218
aI0
aI0
aI0
aS'timeAfterLastHit'
p2714
aaa(lp2715
(lp2716
F0.0
aI76
aI58
aI1
aS'on'
p2717
aa(lp2718
F0.062657744005264
aI76
aI0
aI1
aS'off'
p2719
aa(lp2720
F0.27067558932807
aI76
aI67
aI1
aS'on'
p2721
aa(lp2722
F0.073039574002905
aI76
aI0
aI1
aS'off'
p2723
aa(lp2724
F0.26029375933043
aI77
aI86
aI1
aS'on'
p2725
aa(lp2726
F0.061532205996627
aI77
aI0
aI1
aS'off'
p2727
aa(lp2728
F0.27180112733671
aI77
aI57
aI1
aS'on'
p2729
aa(lp2730
F0.063091422001889
aI77
aI0
aI1
aS'off'
p2731
aa(lp2732
F0.27024191133144
aI79
aI94
aI1
aS'on'
p2733
aa(lp2734
F0.093483750002633
aI79
aI0
aI1
aS'off'
p2735
aa(lp2736
F0.2398495833307
aI79
aI89
aI1
aS'on'
p2737
aa(lp2738
F0.10514722999505
aI79
aI0
aI1
aS'off'
p2739
aa(lp2740
F0.22818610333828
aI0
aI0
aI0
aS'timeAfterLastHit'
p2741
aaaI0
aI0
aI0
aI0
aI0
aI0
aI0
aI0
aI0
aI0
aI0
aI0
aI0
aI0
aI0
aI0
aI0
aI0
aI0
aI0
aI0
aI0
aI0
aI0
aI0
aI0
aI0
aI0
aI0
aI0
aI0
aI0
aI0
aI0
aI0
aI0
aI0
aI0
aI0
aI0
aI0
aI0
aI0
aI0
aI0
aI0
aI0
aI0
aI0
aI0
aI0
aa(lp2742
(dp2743
a(dp2744
g464
I31
sg465
I01
sa(dp2745
g464
I32
sg465
I01
sa(dp2746
g464
I33
sg465
I0
sa(dp2747
g464
I34
sg465
I0
sa(dp2748
g465
I0
sa(dp2749
g465
I0
sa(dp2750
g464
I37
sg465
I0
sa(dp2751
a(dp2752
g465
I0
sa(dp2753
a(dp2754
g464
I43
sg465
I0
sa(dp2755
g464
I44
sg465
I0
sa(dp2756
g464
I45
sg465
I0
sa(dp2757
g464
I46
sg465
I0
sa(dp2758
g464
I47
sg465
I0
sa(dp2759
g464
I48
sg465
I01
sa(dp2760
g465
I0
sa(dp2761
a(dp2762
g464
I53
sg465
I0
sa(dp2763
a(dp2764
a(dp2765
g464
I56
sg465
I0
sa(dp2766
a(dp2767
g464
I58
sg465
I01
sa(dp2768
g465
I1
sa(dp2769
a(dp2770
a(dp2771
g465
I0
sa(dp2772
g465
I0
sa(dp2773
g465
I0
sa(dp2774
g465
I0
sa(dp2775
g465
I0
sa(dp2776
g465
I1
sa(dp2777
a(dp2778
a(dp2779
a(dp2780
a(dp2781
g465
I0
sa(dp2782
g464
I77
sg465
I0
sa(dp2783
g464
I78
sg465
I0
sa(dp2784
g465
I1
sa(dp2785
g464
I82
sg465
I0
sa(dp2786
g465
I0
sa(dp2787
g464
I84
sg465
I1
sa(dp2788
a(dp2789
g464
I86
sg465
I0
sa(dp2790
g464
I87
sg465
I0
sa(dp2791
g464
I88
sg465
I0
sa(dp2792
a(dp2793
a(dp2794
a(dp2795
a(dp2796
a(dp2797
a(dp2798
a(dp2799
a(dp2800
a(dp2801
a(dp2802
a(dp2803
a(dp2804
a(dp2805
a(dp2806
a(dp2807
a(dp2808
a(dp2809
a(dp2810
a(dp2811
a(dp2812
a(dp2813
a(dp2814
a(dp2815
a(dp2816
a(dp2817
a(dp2818
a(dp2819
a(dp2820
a(dp2821
a(dp2822
a(dp2823
a(dp2824
a(dp2825
a(dp2826
a(dp2827
a(dp2828
a(dp2829
a(dp2830
a(dp2831
a(dp2832
a(dp2833
a(dp2834
a(dp2835
a(dp2836
a(dp2837
a(dp2838
a(dp2839
a(dp2840
a(dp2841
a(dp2842
aa(lp2843
I60
aI60
aI36
aI36
aa(lp2844
(lp2845
I0
aI2
aI3
aI5
aI7
aI8
aI10
aa(lp2846
I0
aI2
aI3
aI5
aI7
aI8
aI10
aa(lp2847
I0
aI2
aI3
aI5
aI7
aI8
aI10
aa(lp2848
I0
aI2
aI3
aI5
aI7
aI8
aI10
aa(lp2849
I0
aI2
aI3
aI5
aI7
aI8
aI10
aa(lp2850
I0
aI1
aI2
aI3
aI4
aI5
aI6
aI7
aI8
aI9
aI10
aI11
aaa(lp2851
(lp2852
(lp2853
I0
aI0
aI0
aI0
aI0
aI0
aI0
aI0
aI0
aI0
aI0
aI0
aa(lp2854
I0
aI0
aI0
aI0
aI0
aI0
aI0
aI0
aI0
aI0
aI0
aI0
aa(lp2855
I0
aI0
aI0
aI0
aI0
aI0
aI0
aI0
aI0
aI0
aI0
aI0
aa(lp2856
I0
aI0
aI0
aI0
aI0
aI0
aI0
aI0
aI0
aI0
aI0
aI0
aaa(lp2857
(lp2858
I0
aI0
aI0
aI0
aI0
aI0
aI0
aI0
aI0
aI0
aI0
aI0
aa(lp2859
I0
aI0
aI0
aI0
aI0
aI0
aI0
aI0
aI0
aI0
aI0
aI0
aa(lp2860
I0
aI0
aI0
aI0
aI0
aI0
aI0
aI0
aI0
aI0
aI0
aI0
aa(lp2861
I0
aI0
aI0
aI0
aI0
aI0
aI0
aI0
aI0
aI0
aI0
aI0
aaa(lp2862
(lp2863
I0
aI0
aI0
aI0
aI0
aI0
aI0
aI0
aI0
aI0
aI0
aI0
aa(lp2864
I0
aI0
aI0
aI0
aI0
aI0
aI0
aI0
aI0
aI0
aI0
aI0
aa(lp2865
I0
aI0
aI0
aI0
aI0
aI0
aI0
aI0
aI0
aI0
aI0
aI0
aa(lp2866
I0
aI0
aI0
aI0
aI0
aI0
aI0
aI0
aI0
aI0
aI0
aI0
aaa(lp2867
(lp2868
I0
aI0
aI0
aI0
aI0
aI0
aI0
aI0
aI0
aI0
aI0
aI0
aa(lp2869
I0
aI0
aI0
aI0
aI0
aI0
aI0
aI0
aI0
aI0
aI0
aI0
aa(lp2870
I0
aI0
aI0
aI0
aI0
aI0
aI0
aI0
aI0
aI0
aI0
aI0
aa(lp2871
I0
aI0
aI0
aI0
aI0
aI0
aI0
aI0
aI0
aI0
aI0
aI0
aaaa(lp2872
(lp2873
I0
aI0
aI0
aI0
aI0
aI0
aI0
aI0
aI0
aI0
aI0
aI0
aa(lp2874
I0
aI0
aI0
aI0
aI0
aI0
aI0
aI0
aI0
aI0
aI0
aI0
aa(lp2875
I0
aI0
aI0
aI0
aI0
aI0
aI0
aI0
aI0
aI0
aI0
aI0
aa(lp2876
I0
aI0
aI0
aI0
aI0
aI0
aI0
aI0
aI0
aI0
aI0
aI0
aaaaI0
aI0
aI0
aI0
aI0
aI0
aI0
aI0
aI0
aI0
aI0
aI0
aI0
aI0
aI0
aI0
aI0
aI0
aI0
aI0
aI0
aI0
aI0
aI0
aI0
a.