(lp0
I0
aI0
a(lp1
(lp2
I0
aI0
aI0
aI0
aI0
a(lp3
(lp4
F0.064914742304609
aI55
aI93
aI2
aS'on'
p5
aa(lp6
F0.68151695379493
aI53
aI94
aI2
aS'on'
p7
aa(lp8
F0.048812906700732
aI55
aI0
aI2
aS'off'
p9
aa(lp10
F0.5071379001356
aI55
aI99
aI2
aS'on'
p11
aa(lp12
F0.11598124597549
aI53
aI0
aI2
aS'off'
p13
aa(lp14
F0.59522689894584
aI53
aI108
aI2
aS'on'
p15
aa(lp16
F0.060562161264897
aI55
aI0
aI2
aS'off'
p17
aa(lp18
F0.60284126980878
aI55
aI106
aI2
aS'on'
p19
aa(lp20
F0.048629588744006
aI53
aI0
aI2
aS'off'
p21
aa(lp22
F0.60426290648775
aI53
aI110
aI2
aS'on'
p23
aa(lp24
F0.038373856307771
aI55
aI0
aI2
aS'off'
p25
aa(lp26
F0.5682629957264
aI55
aI107
aI2
aS'on'
p27
aa(lp28
F0.048231141860924
aI53
aI0
aI2
aS'off'
p29
aa(lp30
F0.67139825881804
aI53
aI108
aI2
aS'on'
p31
aa(lp32
F0.019354409581865
aI55
aI0
aI2
aS'off'
p33
aa(lp34
F0.62433088145644
aI55
aI112
aI2
aS'on'
p35
aa(lp36
F0.057953175351031
aI53
aI0
aI2
aS'off'
p37
aa(lp38
F0.62428525510768
aI58
aI101
aI2
aS'on'
p39
aa(lp40
F0.16693973910969
aI55
aI0
aI2
aS'off'
p41
aa(lp42
F0.53434298078537
aI55
aI115
aI2
aS'on'
p43
aa(lp44
F0.059204088750448
aI58
aI0
aI2
aS'off'
p45
aa(lp46
F0.25352013125394
aI53
aI101
aI2
aS'on'
p47
aa(lp48
F0.057685984826094
aI55
aI0
aI2
aS'off'
p49
aa(lp50
F0.31204184498256
aI50
aI115
aI2
aS'on'
p51
aa(lp52
F0.07732271419809
aI53
aI0
aI2
aS'off'
p53
aa(lp54
F0.24348256179746
aI53
aI116
aI2
aS'on'
p55
aa(lp56
F0.010429629544888
aI50
aI0
aI2
aS'off'
p57
aa(lp58
F0.29083345169693
aI53
aI0
aI2
aS'off'
p59
aa(lp60
F0.012120324681746
aI0
aI0
aI0
aS'timeAfterLastHit'
p61
aaa(lp62
(lp63
F0.053855888889302
aI77
aI114
aI2
aS'on'
p64
aa(lp65
F0.5169506477223
aI75
aI52
aI2
aS'on'
p66
aa(lp67
F0.12625702031164
aI77
aI0
aI2
aS'off'
p68
aa(lp69
F0.51435045459948
aI74
aI105
aI2
aS'on'
p70
aa(lp71
F0.077500847428382
aI75
aI0
aI2
aS'off'
p72
aa(lp73
F0.52632238595106
aI74
aI0
aI2
aS'off'
p74
aa(lp75
F0.0096929732953868
aI72
aI97
aI2
aS'on'
p76
aa(lp77
F0.65304692817881
aI70
aI85
aI2
aS'on'
p78
aa(lp79
F0.08770854379145
aI72
aI0
aI2
aS'off'
p80
aa(lp81
F0.59490837924386
aI69
aI30
aI2
aS'on'
p82
aa(lp83
F0.097787035696456
aI70
aI0
aI2
aS'off'
p84
aa(lp85
F0.54484645822413
aI67
aI60
aI2
aS'on'
p86
aa(lp87
F0.068209588025638
aI69
aI0
aI2
aS'off'
p88
aa(lp89
F0.7424081179015
aI69
aI70
aI2
aS'on'
p90
aa(lp91
F0.096985698943172
aI67
aI0
aI2
aS'off'
p92
aa(lp93
F0.60354805889438
aI70
aI36
aI2
aS'on'
p94
aa(lp95
F0.05899420791684
aI69
aI0
aI2
aS'off'
p96
aa(lp97
F0.55525222534834
aI72
aI79
aI2
aS'on'
p98
aa(lp99
F0.17608129928249
aI70
aI0
aI2
aS'off'
p100
aa(lp101
F0.42884301781123
aI72
aI0
aI2
aS'off'
p102
aa(lp103
F0.00017783504154067
aI70
aI91
aI2
aS'on'
p104
aa(lp105
F0.70037651634084
aI69
aI41
aI2
aS'on'
p106
aa(lp107
F0.10729691467532
aI70
aI0
aI2
aS'off'
p108
aa(lp109
F0.64859895648624
aI69
aI0
aI2
aS'off'
p110
aa(lp111
F0.010000000000218
aI0
aI0
aI0
aS'timeAfterLastHit'
p112
aaaI0
a(lp113
(lp114
F0.0
aI55
aI106
aI2
aS'on'
p115
aa(lp116
F0.65180928969494
aI55
aI0
aI2
aS'off'
p117
aa(lp118
F0.014857376971728
aI53
aI98
aI2
aS'on'
p119
aa(lp120
F0.66666666666667
aI55
aI108
aI2
aS'on'
p121
aa(lp122
F0.014997641860949
aI53
aI0
aI2
aS'off'
p123
aa(lp124
F0.65166902480572
aI53
aI105
aI2
aS'on'
p125
aa(lp126
F0.033974889524264
aI55
aI0
aI2
aS'off'
p127
aa(lp128
F0.62067517621441
aI53
aI0
aI2
aS'off'
p129
aa(lp130
F0.012016600927988
aI55
aI116
aI2
aS'on'
p131
aa(lp132
F0.61554540137513
aI55
aI0
aI2
aS'off'
p133
aa(lp134
F0.051121265291537
aI53
aI102
aI2
aS'on'
p135
aa(lp136
F0.66666666666667
aI55
aI116
aI2
aS'on'
p137
aa(lp138
F0.084042409007756
aI53
aI0
aI2
aS'off'
p139
aa(lp140
F0.58262425765891
aI53
aI98
aI2
aS'on'
p141
aa(lp142
F0.12378893781382
aI55
aI0
aI2
aS'off'
p143
aa(lp144
F0.54287772885285
aI55
aI107
aI2
aS'on'
p145
aa(lp146
F0.004380379964763
aI53
aI0
aI2
aS'off'
p147
aa(lp148
F0.6622862867019
aI58
aI85
aI2
aS'on'
p149
aa(lp150
F0.1605310194221
aI55
aI0
aI2
aS'off'
p151
aa(lp152
F0.50237045285273
aI58
aI0
aI2
aS'off'
p153
aa(lp154
F0.0037651943918418
aI55
aI117
aI2
aS'on'
p155
aa(lp156
F0.31240264947519
aI55
aI0
aI2
aS'off'
p157
aa(lp158
F0.020930683858144
aI53
aI99
aI2
aS'on'
p159
aa(lp160
F0.33333333333333
aI50
aI117
aI2
aS'on'
p161
aa(lp162
F0.066597505210363
aI53
aI0
aI2
aS'off'
p163
aa(lp164
F0.22718184279014
aI50
aI0
aI2
aS'off'
p165
aa(lp166
F0.039553985332835
aI53
aI119
aI2
aS'on'
p167
aa(lp168
F0.27371511341516
aI53
aI0
aI2
aS'off'
p169
aa(lp170
F0.059618219918169
aI0
aI0
aI0
aS'timeAfterLastHit'
p171
aaa(lp172
(lp173
F0.0
aI87
aI53
aI1
aS'on'
p174
aa(lp175
F0.046685515811987
aI87
aI0
aI1
aS'off'
p176
aa(lp177
F0.28664781752135
aI87
aI18
aI1
aS'on'
p178
aa(lp179
F0.047116286971345
aI87
aI0
aI1
aS'off'
p180
aa(lp181
F0.28621704636199
aI87
aI56
aI1
aS'on'
p182
aa(lp183
F0.046454133947577
aI87
aI0
aI1
aS'off'
p184
aa(lp185
F0.28687919938576
aI87
aI65
aI1
aS'on'
p186
aa(lp187
F0.04574697506132
aI87
aI0
aI1
aS'off'
p188
aa(lp189
F0.28758635827201
aI87
aI70
aI1
aS'on'
p190
aa(lp191
F0.046343154878286
aI87
aI0
aI1
aS'off'
p192
aa(lp193
F0.28699017845505
aI87
aI84
aI1
aS'on'
p194
aa(lp195
F0.064915565723936
aI87
aI0
aI1
aS'off'
p196
aa(lp197
F0.2684177676094
aI86
aI97
aI1
aS'on'
p198
aa(lp199
F0.046726452904863
aI86
aI0
aI1
aS'off'
p200
aa(lp201
F0.28660688042847
aI86
aI94
aI1
aS'on'
p202
aa(lp203
F0.046035401642598
aI86
aI0
aI1
aS'off'
p204
aa(lp205
F0.28729793169073
aI86
aI88
aI1
aS'on'
p206
aa(lp207
F0.046988464550623
aI86
aI0
aI1
aS'off'
p208
aa(lp209
F0.28634486878271
aI86
aI95
aI1
aS'on'
p210
aa(lp211
F0.046611494137437
aI86
aI0
aI1
aS'off'
p212
aa(lp213
F0.2867218391959
aI86
aI86
aI1
aS'on'
p214
aa(lp215
F0.046625912972559
aI86
aI0
aI1
aS'off'
p216
aa(lp217
F0.28670742036077
aI86
aI92
aI1
aS'on'
p218
aa(lp219
F0.04651237399878
aI86
aI0
aI1
aS'off'
p220
aa(lp221
F0.28682095933455
aI84
aI99
aI1
aS'on'
p222
aa(lp223
F0.093104206574139
aI84
aI0
aI1
aS'off'
p224
aa(lp225
F0.24022912675919
aI84
aI96
aI1
aS'on'
p226
aa(lp227
F0.046070422630692
aI84
aI0
aI1
aS'off'
p228
aa(lp229
F0.28726291070264
aI84
aI86
aI1
aS'on'
p230
aa(lp231
F0.046662494486895
aI84
aI0
aI1
aS'off'
p232
aa(lp233
F0.28667083884644
aI84
aI96
aI1
aS'on'
p234
aa(lp235
F0.047604223984081
aI84
aI0
aI1
aS'off'
p236
aa(lp237
F0.28572910934925
aI84
aI91
aI1
aS'on'
p238
aa(lp239
F0.047083947024248
aI84
aI0
aI1
aS'off'
p240
aa(lp241
F0.28624938630909
aI84
aI86
aI1
aS'on'
p242
aa(lp243
F0.046012376754447
aI84
aI0
aI1
aS'off'
p244
aa(lp245
F0.28732095657889
aI84
aI96
aI1
aS'on'
p246
aa(lp247
F0.04646785090199
aI84
aI0
aI1
aS'off'
p248
aa(lp249
F0.28686548243134
aI84
aI86
aI1
aS'on'
p250
aa(lp251
F0.046608398024773
aI84
aI0
aI1
aS'off'
p252
aa(lp253
F0.28672493530856
aI84
aI92
aI1
aS'on'
p254
aa(lp255
F0.046189587337267
aI84
aI0
aI1
aS'off'
p256
aa(lp257
F0.28714374599607
aI84
aI95
aI1
aS'on'
p258
aa(lp259
F0.046698703684115
aI84
aI0
aI1
aS'off'
p260
aa(lp261
F0.28663462964922
aI84
aI86
aI1
aS'on'
p262
aa(lp263
F0.046774782902048
aI84
aI0
aI1
aS'off'
p264
aa(lp265
F0.28655855043129
aI84
aI91
aI1
aS'on'
p266
aa(lp267
F0.045893805261699
aI84
aI0
aI1
aS'off'
p268
aa(lp269
F0.28743952807163
aI0
aI0
aI0
aS'timeAfterLastHit'
p270
aaaI0
aI0
aI0
a(lp271
(lp272
F0.0
aI42
aI89
aI3
aS'on'
p273
aa(lp274
F0.10661755092588
aI42
aI0
aI3
aS'off'
p275
aa(lp276
F0.22671578240746
aI42
aI99
aI3
aS'on'
p277
aa(lp278
F0.17412977732056
aI42
aI0
aI3
aS'off'
p279
aa(lp280
F0.15920355601277
aI42
aI95
aI3
aS'on'
p281
aa(lp282
F0.096817944568102
aI42
aI0
aI3
aS'off'
p283
aa(lp284
F0.23651538876523
aI42
aI103
aI3
aS'on'
p285
aa(lp286
F0.13567967338349
aI42
aI0
aI3
aS'off'
p287
aa(lp288
F0.19765365994984
aI42
aI99
aI3
aS'on'
p289
aa(lp290
F0.15540021266133
aI42
aI0
aI3
aS'off'
p291
aa(lp292
F0.177933120672
aI42
aI116
aI3
aS'on'
p293
aa(lp294
F0.20482389866265
aI42
aI0
aI3
aS'off'
p295
aa(lp296
F0.12850943467068
aI0
aI0
aI0
aS'timeAfterLastHit'
p297
aaaI0
aI0
aI0
a(lp298
(lp299
F0.0
aI82
aI99
aI1
aS'on'
p300
aa(lp301
F0.053228238127645
aI82
aI0
aI1
aS'off'
p302
aa(lp303
F0.28010509520569
aI82
aI74
aI1
aS'on'
p304
aa(lp305
F0.053230834363717
aI82
aI0
aI1
aS'off'
p306
aa(lp307
F0.28010249896962
aI82
aI93
aI1
aS'on'
p308
aa(lp309
F0.052198918515387
aI82
aI0
aI1
aS'off'
p310
aa(lp311
F0.28113441481795
aI82
aI94
aI1
aS'on'
p312
aa(lp313
F0.052436084587498
aI82
aI0
aI1
aS'off'
p314
aa(lp315
F0.28089724874584
aI82
aI92
aI1
aS'on'
p316
aa(lp317
F0.053705395170937
aI82
aI0
aI1
aS'off'
p318
aa(lp319
F0.2796279381624
aI82
aI70
aI1
aS'on'
p320
aa(lp321
F0.052597045158677
aI82
aI0
aI1
aS'off'
p322
aa(lp323
F0.28073628817466
aI82
aI82
aI1
aS'on'
p324
aa(lp325
F0.053358033746917
aI82
aI0
aI1
aS'off'
p326
aa(lp327
F0.27997529958642
aI82
aI58
aI1
aS'on'
p328
aa(lp329
F0.053200248152052
aI82
aI0
aI1
aS'off'
p330
aa(lp331
F0.28013308518128
aI82
aI79
aI1
aS'on'
p332
aa(lp333
F0.05315066469575
aI82
aI0
aI1
aS'off'
p334
aa(lp335
F0.28018266863758
aI82
aI93
aI1
aS'on'
p336
aa(lp337
F0.052399557183776
aI82
aI0
aI1
aS'off'
p338
aa(lp339
F0.28093377614956
aI82
aI79
aI1
aS'on'
p340
aa(lp341
F0.052522537430264
aI82
aI0
aI1
aS'off'
p342
aa(lp343
F0.28081079590307
aI82
aI92
aI1
aS'on'
p344
aa(lp345
F0.10765377214454
aI82
aI0
aI1
aS'off'
p346
aa(lp347
F0.22567956118879
aI0
aI0
aI0
aS'timeAfterLastHit'
p348
aaaI0
aI0
aI0
aI0
aI0
aI0
aI0
a(lp349
(lp350
F0.0
aI65
aI97
aI1
aS'on'
p351
aa(lp352
F0.063628895558054
aI65
aI0
aI1
aS'off'
p353
aa(lp354
F0.26970443777528
aI67
aI96
aI1
aS'on'
p355
aa(lp356
F0.052175530130626
aI67
aI0
aI1
aS'off'
p357
aa(lp358
F0.28115780320271
aI70
aI85
aI1
aS'on'
p359
aa(lp360
F0.11650014433565
aI70
aI0
aI1
aS'off'
p361
aa(lp362
F0.21683318899769
aI72
aI102
aI1
aS'on'
p363
aa(lp364
F0.084338505010237
aI72
aI0
aI1
aS'off'
p365
aa(lp366
F0.2489948283231
aI75
aI98
aI1
aS'on'
p367
aa(lp368
F0.12633373583253
aI75
aI0
aI1
aS'off'
p369
aa(lp370
F0.2069995975008
aI77
aI114
aI1
aS'on'
p371
aa(lp372
F0.09591866531207
aI77
aI0
aI1
aS'off'
p373
aa(lp374
F2.2374146680213
aI65
aI115
aI1
aS'on'
p375
aa(lp376
F0.16920768433397
aI65
aI0
aI1
aS'off'
p377
aa(lp378
F0.16412564899936
aI67
aI88
aI1
aS'on'
p379
aa(lp380
F0.052795781674035
aI67
aI0
aI1
aS'off'
p381
aa(lp382
F0.2805375516593
aI70
aI84
aI1
aS'on'
p383
aa(lp384
F0.13772561538804
aI70
aI0
aI1
aS'off'
p385
aa(lp386
F0.1956077179453
aI72
aI110
aI1
aS'on'
p387
aa(lp388
F0.053198766901232
aI72
aI0
aI1
aS'off'
p389
aa(lp390
F0.2801345664321
aI75
aI101
aI1
aS'on'
p391
aa(lp392
F0.1589889453511
aI75
aI0
aI1
aS'off'
p393
aa(lp394
F0.17434438798224
aI77
aI105
aI1
aS'on'
p395
aa(lp396
F0.10562705873292
aI77
aI0
aI1
aS'off'
p397
aa(lp398
F0.22770627460041
aI79
aI103
aI1
aS'on'
p399
aa(lp400
F0.14730415450629
aI79
aI0
aI1
aS'off'
p401
aa(lp402
F0.51936251216038
aI77
aI108
aI1
aS'on'
p403
aa(lp404
F0.083985526165179
aI77
aI0
aI1
aS'off'
p405
aa(lp406
F0.58268114050149
aI75
aI104
aI1
aS'on'
p407
aa(lp408
F0.15932003325099
aI75
aI0
aI1
aS'off'
p409
aa(lp410
F0.50734663341567
aI0
aI0
aI0
aS'timeAfterLastHit'
p411
aaaI0
aI0
a(lp412
(lp413
F0.079361576958036
aI63
aI93
aI0
aS'on'
p414
aa(lp415
F0.22757422130599
aI63
aI0
aI0
aS'off'
p416
aa(lp417
F0.41468121068647
aI62
aI105
aI0
aS'on'
p418
aa(lp419
F0.1849060723016
aI62
aI0
aI0
aS'off'
p420
aa(lp421
F0.42366260307244
aI60
aI103
aI0
aS'on'
p422
aa(lp423
F0.22812129622071
aI60
aI0
aI0
aS'off'
p424
aa(lp425
F0.42896990390909
aI58
aI109
aI0
aS'on'
p426
aa(lp427
F0.16885158197874
aI58
aI0
aI0
aS'off'
p428
aa(lp429
F0.55023686428285
aI60
aI104
aI0
aS'on'
p430
aa(lp431
F0.21923114031051
aI60
aI0
aI0
aS'off'
p432
aa(lp433
F0.46407431772241
aI62
aI105
aI0
aS'on'
p434
aa(lp435
F0.16944135007179
aI62
aI0
aI0
aS'off'
p436
aa(lp437
F0.48047001434315
aI63
aI105
aI0
aS'on'
p438
aa(lp439
F0.21981082770981
aI63
aI0
aI0
aS'off'
p440
aa(lp441
F0.47248569487601
aI62
aI112
aI0
aS'on'
p442
aa(lp443
F0.21981013499499
aI62
aI0
aI0
aS'off'
p444
aa(lp445
F0.44787898675531
aI60
aI105
aI0
aS'on'
p446
aa(lp447
F0.23637145497378
aI60
aI0
aI0
aS'off'
p448
aa(lp449
F0.3713841414974
aI58
aI91
aI0
aS'on'
p450
aa(lp451
F0.20351872823994
aI58
aI0
aI0
aS'off'
p452
aa(lp453
F0.48161198408343
aI60
aI108
aI0
aS'on'
p454
aa(lp455
F0.23712252866062
aI60
aI0
aI0
aS'off'
p456
aa(lp457
F0.37161338963233
aI62
aI87
aI0
aS'on'
p458
aa(lp459
F0.26231758230642
aI62
aI0
aI0
aS'off'
p460
aa(lp461
F0.44561886922565
aI60
aI107
aI0
aS'on'
p462
aa(lp463
F0.23724077615771
aI60
aI0
aI0
aS'off'
p464
aa(lp465
F0.45597159090175
aI63
aI102
aI0
aS'on'
p466
aa(lp467
F0.23695228559336
aI63
aI0
aI0
aS'off'
p468
aa(lp469
F0.43107127032454
aI62
aI98
aI0
aS'on'
p470
aa(lp471
F0.24587530749704
aI62
aI0
aI0
aS'off'
p472
aa(lp473
F0.40467255175099
aI60
aI98
aI0
aS'on'
p474
aa(lp475
F0.21044714088021
aI60
aI0
aI0
aS'off'
p476
aa(lp477
F0.43862235580309
aI62
aI101
aI0
aS'on'
p478
aa(lp479
F0.2451542691997
aI62
aI0
aI0
aS'off'
p480
aa(lp481
F0.42232308859457
aI60
aI99
aI0
aS'on'
p482
aa(lp483
F0.24459660333923
aI60
aI0
aI0
aS'off'
p484
aa(lp485
F0.45577783913905
aI58
aI101
aI0
aS'on'
p486
aa(lp487
F0.15201219929259
aI58
aI0
aI0
aS'off'
p488
aa(lp489
F0.43902855616398
aI60
aI88
aI0
aS'on'
p490
aa(lp491
F0.2278523195364
aI60
aI0
aI0
aS'off'
p492
aa(lp493
F0.45575365226068
aI58
aI97
aI0
aS'on'
p494
aa(lp495
F0.18507510109885
aI58
aI0
aI0
aS'off'
p496
aa(lp497
F0.44753823580504
aI57
aI88
aI0
aS'on'
p498
aa(lp499
F0.26984452127545
aI57
aI0
aI0
aS'off'
p500
aa(lp501
F0.46377082641811
aI58
aI101
aI0
aS'on'
p502
aa(lp503
F0.24535966147414
aI58
aI0
aI0
aS'off'
p504
aa(lp505
F0.44708945207094
aI57
aI98
aI0
aS'on'
p506
aa(lp507
F0.21131667682312
aI57
aI0
aI0
aS'off'
p508
aa(lp509
F0.47269158287054
aI55
aI112
aI0
aS'on'
p510
aa(lp511
F0.21128390932608
aI55
aI0
aI0
aS'off'
p512
aa(lp513
F0.39773281185262
aI58
aI96
aI0
aS'on'
p514
aa(lp515
F0.21164469732685
aI58
aI0
aI0
aS'off'
p516
aa(lp517
F0.47223394563298
aI60
aI105
aI0
aS'on'
p518
aa(lp519
F0.18647814185897
aI60
aI0
aI0
aS'off'
p520
aa(lp521
F0.49624259569646
aI62
aI110
aI0
aS'on'
p522
aa(lp523
F0.15284691704619
aI62
aI0
aI0
aS'off'
p524
aa(lp525
F0.47246061182886
aI55
aI107
aI0
aS'on'
p526
aa(lp527
F0.2117740815429
aI55
aI0
aI0
aS'off'
p528
aa(lp529
F0.38769965116626
aI58
aI93
aI0
aS'on'
p530
aa(lp531
F0.17707981446074
aI58
aI0
aI0
aS'off'
p532
aa(lp533
F0.55034461449213
aI60
aI108
aI0
aS'on'
p534
aa(lp535
F0.19411668375506
aI60
aI0
aI0
aS'off'
p536
aa(lp537
F0.49773259876929
aI62
aI107
aI0
aS'on'
p538
aa(lp539
F0.21835250219556
aI62
aI0
aI0
aS'off'
p540
aa(lp541
F0.44863207884191
aI55
aI110
aI0
aS'on'
p542
aa(lp543
F0.21814169092431
aI55
aI0
aI0
aS'off'
p544
aa(lp545
F0.50733728242994
aI58
aI97
aI0
aS'on'
p546
aa(lp547
F0.16015493239684
aI58
aI0
aI0
aS'off'
p548
aa(lp549
F0.47382883762839
aI60
aI96
aI0
aS'on'
p550
aa(lp551
F0.21144189506413
aI60
aI0
aI0
aS'off'
p552
aa(lp553
F0.43958235961327
aI62
aI109
aI0
aS'on'
p554
aa(lp555
F0.21930210237406
aI62
aI0
aI0
aS'off'
p556
aa(lp557
F0.45554162833469
aI55
aI115
aI0
aS'on'
p558
aa(lp559
F0.19479517097352
aI55
aI0
aI0
aS'off'
p560
aa(lp561
F0.45586604478558
aI58
aI86
aI0
aS'on'
p562
aa(lp563
F0.14278945483784
aI58
aI0
aI0
aS'off'
p564
aa(lp565
F0.53326709302382
aI60
aI64
aI0
aS'on'
p566
aa(lp567
F0.22657638301098
aI60
aI0
aI0
aS'off'
p568
aa(lp569
F0.45550285408353
aI62
aI109
aI0
aS'on'
p570
aa(lp571
F0.20276862499668
aI62
aI0
aI0
aS'off'
p572
aa(lp573
F0.43118067239084
aI55
aI107
aI0
aS'on'
p574
aa(lp575
F0.22881540423259
aI55
aI0
aI0
aS'off'
p576
aa(lp577
F0.47171401575724
aI58
aI97
aI0
aS'on'
p578
aa(lp579
F0.19482985029754
aI58
aI0
aI0
aS'off'
p580
aa(lp581
F0.48909091745554
aI60
aI103
aI0
aS'on'
p582
aa(lp583
F0.19515648052766
aI60
aI0
aI0
aS'off'
p584
aa(lp585
F0.41214398474767
aI62
aI98
aI0
aS'on'
p586
aa(lp587
F0.2031873087526
aI62
aI0
aI0
aS'off'
p588
aa(lp589
F0.52363418407367
aI63
aI111
aI0
aS'on'
p590
aa(lp591
F0.21151662103512
aI63
aI0
aI0
aS'off'
p592
aa(lp593
F0.43061930559452
aI62
aI114
aI0
aS'on'
p594
aa(lp595
F0.19443089841116
aI62
aI0
aI0
aS'off'
p596
aa(lp597
F0.48191363138176
aI60
aI111
aI0
aS'on'
p598
aa(lp599
F0.17651068409396
aI60
aI0
aI0
aS'off'
p600
aa(lp601
F0.47218399268058
aI58
aI114
aI0
aS'on'
p602
aa(lp603
F0.16086319826536
aI58
aI0
aI0
aS'off'
p604
aa(lp605
F0.48349249964122
aI0
aI0
aI0
aS'timeAfterLastHit'
p606
aaa(lp607
(lp608
F0.0
aI63
aI97
aI0
aS'on'
p609
aa(lp610
F0.19339447732818
aI63
aI0
aI0
aS'off'
p611
aa(lp612
F0.47327218933848
aI62
aI107
aI0
aS'on'
p613
aa(lp614
F0.14540283368842
aI62
aI0
aI0
aS'off'
p615
aa(lp616
F0.52126383297824
aI60
aI111
aI0
aS'on'
p617
aa(lp618
F0.20304039001348
aI60
aI0
aI0
aS'off'
p619
aa(lp620
F0.63029294331985
aI58
aI110
aI0
aS'on'
p621
aa(lp622
F0.15540339667859
aI58
aI0
aI0
aS'off'
p623
aa(lp624
F0.51126326998807
aI60
aI110
aI0
aS'on'
p625
aa(lp626
F0.1738747889176
aI60
aI0
aI0
aS'off'
p627
aa(lp628
F0.3261252110824
aI62
aI98
aI0
aS'on'
p629
aa(lp630
F0.17455829640312
aI62
aI0
aI0
aS'off'
p631
aa(lp632
F0.65877503693021
aI63
aI106
aI0
aS'on'
p633
aa(lp634
F0.15493396596685
aI63
aI0
aI0
aS'off'
p635
aa(lp636
F0.34506603403315
aI62
aI109
aI0
aS'on'
p637
aa(lp638
F0.15467152592828
aI62
aI0
aI0
aS'off'
p639
aa(lp640
F0.51199514073839
aI60
aI101
aI0
aS'on'
p641
aa(lp642
F0.17400722799175
aI60
aI0
aI0
aS'off'
p643
aa(lp644
F0.49265943867492
aI58
aI98
aI0
aS'on'
p645
aa(lp646
F0.13402548658996
aI58
aI0
aI0
aS'off'
p647
aa(lp648
F0.5326411800767
aI60
aI103
aI0
aS'on'
p649
aa(lp650
F0.17371816728701
aI60
aI0
aI0
aS'off'
p651
aa(lp652
F0.49294849937966
aI62
aI94
aI0
aS'on'
p653
aa(lp654
F0.18478188332483
aI62
aI0
aI0
aS'off'
p655
aa(lp656
F0.48188478334184
aI60
aI101
aI0
aS'on'
p657
aa(lp658
F0.19400529241284
aI60
aI0
aI0
aS'off'
p659
aa(lp660
F0.47266137425383
aI63
aI100
aI0
aS'on'
p661
aa(lp662
F0.16477284555367
aI63
aI0
aI0
aS'off'
p663
aa(lp664
F0.501893821113
aI62
aI89
aI0
aS'on'
p665
aa(lp666
F0.16510817467497
aI62
aI0
aI0
aS'off'
p667
aa(lp668
F0.5015584919917
aI60
aI105
aI0
aS'on'
p669
aa(lp670
F0.18514381455861
aI60
aI0
aI0
aS'off'
p671
aa(lp672
F0.48152285210805
aI62
aI99
aI0
aS'on'
p673
aa(lp674
F0.17573003439247
aI62
aI0
aI0
aS'off'
p675
aa(lp676
F0.4909366322742
aI60
aI108
aI0
aS'on'
p677
aa(lp678
F0.20296030349709
aI60
aI0
aI0
aS'off'
p679
aa(lp680
F0.46370636316957
aI58
aI96
aI0
aS'on'
p681
aa(lp682
F0.15439829438219
aI58
aI0
aI0
aS'off'
p683
aa(lp684
F0.51226837228448
aI60
aI108
aI0
aS'on'
p685
aa(lp686
F0.16635046754709
aI60
aI0
aI0
aS'off'
p687
aa(lp688
F0.50031619911958
aI58
aI94
aI0
aS'on'
p689
aa(lp690
F0.16377942354848
aI58
aI0
aI0
aS'off'
p691
aa(lp692
F0.50288724311819
aI57
aI92
aI0
aS'on'
p693
aa(lp694
F0.17373510973448
aI57
aI0
aI0
aS'off'
p695
aa(lp696
F0.49293155693219
aI58
aI91
aI0
aS'on'
p697
aa(lp698
F0.21337402399513
aI58
aI0
aI0
aS'off'
p699
aa(lp700
F0.45329264267154
aI57
aI97
aI0
aS'on'
p701
aa(lp702
F0.16450300583892
aI57
aI0
aI0
aS'off'
p703
aa(lp704
F0.50216366082774
aI55
aI111
aI0
aS'on'
p705
aa(lp706
F0.18468515680433
aI55
aI0
aI0
aS'off'
p707
aa(lp708
F0.48198150986233
aI58
aI85
aI0
aS'on'
p709
aa(lp710
F0.17375257543245
aI58
aI0
aI0
aS'off'
p711
aa(lp712
F0.49291409123422
aI60
aI105
aI0
aS'on'
p713
aa(lp714
F0.16488108908197
aI60
aI0
aI0
aS'off'
p715
aa(lp716
F0.50178557758469
aI62
aI98
aI0
aS'on'
p717
aa(lp718
F0.13553080026395
aI62
aI0
aI0
aS'off'
p719
aa(lp720
F0.53113586640272
aI55
aI108
aI0
aS'on'
p721
aa(lp722
F0.16523909224998
aI55
aI0
aI0
aS'off'
p723
aa(lp724
F0.50142757441669
aI58
aI89
aI0
aS'on'
p725
aa(lp726
F0.13526233175253
aI58
aI0
aI0
aS'off'
p727
aa(lp728
F0.53140433491414
aI60
aI110
aI0
aS'on'
p729
aa(lp730
F0.17454407224432
aI60
aI0
aI0
aS'off'
p731
aa(lp732
F0.49212259442235
aI62
aI100
aI0
aS'on'
p733
aa(lp734
F0.14494287152593
aI62
aI0
aI0
aS'off'
p735
aa(lp736
F0.52172379514074
aI55
aI114
aI0
aS'on'
p737
aa(lp738
F0.18502499661372
aI55
aI0
aI0
aS'off'
p739
aa(lp740
F0.48164167005295
aI58
aI99
aI0
aS'on'
p741
aa(lp742
F0.13529591977203
aI58
aI0
aI0
aS'off'
p743
aa(lp744
F0.53137074689463
aI60
aI105
aI0
aS'on'
p745
aa(lp746
F0.17478426314119
aI60
aI0
aI0
aS'off'
p747
aa(lp748
F0.49188240352547
aI62
aI101
aI0
aS'on'
p749
aa(lp750
F0.12715413510159
aI62
aI0
aI0
aS'off'
p751
aa(lp752
F0.53951253156508
aI55
aI114
aI0
aS'on'
p753
aa(lp754
F0.19407357989076
aI55
aI0
aI0
aS'off'
p755
aa(lp756
F0.47259308677591
aI58
aI90
aI0
aS'on'
p757
aa(lp758
F0.12579459031986
aI58
aI0
aI0
aS'off'
p759
aa(lp760
F0.54087207634681
aI60
aI101
aI0
aS'on'
p761
aa(lp762
F0.17539478691288
aI60
aI0
aI0
aS'off'
p763
aa(lp764
F0.49127187975379
aI62
aI103
aI0
aS'on'
p765
aa(lp766
F0.15476381412554
aI62
aI0
aI0
aS'off'
p767
aa(lp768
F0.51190285254112
aI55
aI108
aI0
aS'on'
p769
aa(lp770
F0.20358406987725
aI55
aI0
aI0
aS'off'
p771
aa(lp772
F0.46308259678941
aI58
aI84
aI0
aS'on'
p773
aa(lp774
F0.12618675856538
aI58
aI0
aI0
aS'off'
p775
aa(lp776
F0.54047990810129
aI60
aI105
aI0
aS'on'
p777
aa(lp778
F0.1761603273244
aI60
aI0
aI0
aS'off'
p779
aa(lp780
F0.49050633934227
aI62
aI102
aI0
aS'on'
p781
aa(lp782
F0.17420008913177
aI62
aI0
aI0
aS'off'
p783
aa(lp784
F0.49246657753489
aI63
aI93
aI0
aS'on'
p785
aa(lp786
F0.16507921795164
aI63
aI0
aI0
aS'off'
p787
aa(lp788
F0.50158744871502
aI62
aI101
aI0
aS'on'
p789
aa(lp790
F0.15527698051301
aI62
aI0
aI0
aS'off'
p791
aa(lp792
F0.51138968615366
aI60
aI107
aI0
aS'on'
p793
aa(lp794
F0.18465462662789
aI60
aI0
aI0
aS'off'
p795
aa(lp796
F0.48201204003878
aI58
aI81
aI0
aS'on'
p797
aa(lp798
F0.24214455115361
aI58
aI0
aI0
aS'off'
p799
aa(lp800
F0.42452211551305
aI0
aI0
aI0
aS'timeAfterLastHit'
p801
aaa(lp802
(lp803
F0.0
aI63
aI103
aI0
aS'on'
p804
aa(lp805
F0.13554161336742
aI63
aI0
aI0
aS'off'
p806
aa(lp807
F0.19779171996591
aI65
aI101
aI0
aS'on'
p808
aa(lp809
F0.11728872732692
aI65
aI0
aI0
aS'off'
p810
aa(lp811
F0.21604460600641
aI69
aI106
aI0
aS'on'
p812
aa(lp813
F0.11683321675628
aI69
aI0
aI0
aS'off'
p814
aa(lp815
F0.21650011657706
aI70
aI93
aI0
aS'on'
p816
aa(lp817
F0.049644917583464
aI70
aI0
aI0
aS'off'
p818
aa(lp819
F0.28368841574987
aI72
aI107
aI0
aS'on'
p820
aa(lp821
F0.12595205321122
aI72
aI0
aI0
aS'off'
p822
aa(lp823
F0.20738128012211
aI63
aI81
aI0
aS'on'
p824
aa(lp825
F0.048794225282109
aI63
aI0
aI0
aS'off'
p826
aa(lp827
F0.28453910805122
aI65
aI99
aI0
aS'on'
p828
aa(lp829
F0.12772088587008
aI65
aI0
aI0
aS'off'
p830
aa(lp831
F0.20561244746326
aI69
aI98
aI0
aS'on'
p832
aa(lp833
F0.10684565699921
aI69
aI0
aI0
aS'off'
p834
aa(lp835
F0.22648767633412
aI70
aI95
aI0
aS'on'
p836
aa(lp837
F0.096612935283702
aI70
aI0
aI0
aS'off'
p838
aa(lp839
F0.23672039804963
aI72
aI104
aI0
aS'on'
p840
aa(lp841
F0.13671176652497
aI72
aI0
aI0
aS'off'
p842
aa(lp843
F0.19662156680837
aI63
aI92
aI0
aS'on'
p844
aa(lp845
F0.1069360039528
aI63
aI0
aI0
aS'off'
p846
aa(lp847
F0.22639732938054
aI65
aI103
aI0
aS'on'
p848
aa(lp849
F0.13652467277552
aI65
aI0
aI0
aS'off'
p850
aa(lp851
F0.19680866055781
aI69
aI95
aI0
aS'on'
p852
aa(lp853
F0.10807194946392
aI69
aI0
aI0
aS'off'
p854
aa(lp855
F0.22526138386941
aI70
aI91
aI0
aS'on'
p856
aa(lp857
F0.088062883215571
aI70
aI0
aI0
aS'off'
p858
aa(lp859
F0.24527045011776
aI72
aI110
aI0
aS'on'
p860
aa(lp861
F0.14649725235995
aI72
aI0
aI0
aS'off'
p862
aa(lp863
F0.18683608097338
aI63
aI101
aI0
aS'on'
p864
aa(lp865
F0.11634148204757
aI63
aI0
aI0
aS'off'
p866
aa(lp867
F0.21699185128576
aI65
aI100
aI0
aS'on'
p868
aa(lp869
F0.14587473652864
aI65
aI0
aI0
aS'off'
p870
aa(lp871
F0.18745859680469
aI69
aI108
aI0
aS'on'
p872
aa(lp873
F0.11658299680403
aI69
aI0
aI0
aS'off'
p874
aa(lp875
F0.21675033652931
aI70
aI98
aI0
aS'on'
p876
aa(lp877
F0.15600789171731
aI70
aI0
aI0
aS'off'
p878
aa(lp879
F0.17732544161602
aI72
aI114
aI0
aS'on'
p880
aa(lp881
F0.1381904165728
aI72
aI0
aI0
aS'off'
p882
aa(lp883
F0.52847625009387
aI0
aI0
aI0
aS'timeAfterLastHit'
p884
aaa(lp885
(lp886
F0.075489122573345
aI84
aI113
aI0
aS'on'
p887
aa(lp888
F0.18515123678435
aI84
aI0
aI0
aS'off'
p889
aa(lp890
F0.50755311258672
aI82
aI114
aI0
aS'on'
p891
aa(lp892
F0.17500469672586
aI82
aI0
aI0
aS'off'
p893
aa(lp894
F0.56370332776714
aI84
aI99
aI0
aS'on'
p895
aa(lp896
F0.10761850943163
aI84
aI0
aI0
aS'off'
p897
aa(lp898
F0.13649936228376
aI82
aI107
aI0
aS'on'
p899
aa(lp900
F0.1567597704161
aI82
aI0
aI0
aS'off'
p901
aa(lp902
F0.17475466313954
aI84
aI104
aI0
aS'on'
p903
aa(lp904
F0.12628508157741
aI84
aI0
aI0
aS'off'
p905
aa(lp906
F0.1746068760358
aI87
aI90
aI0
aS'on'
p907
aa(lp908
F0.11639697839018
aI87
aI0
aI0
aS'off'
p909
aa(lp910
F0.23306651839948
aI84
aI111
aI0
aS'on'
p911
aa(lp912
F0.1364860184126
aI84
aI0
aI0
aS'off'
p913
aa(lp914
F0.22453430350606
aI82
aI98
aI0
aS'on'
p915
aa(lp916
F0.12725062435948
aI82
aI0
aI0
aS'off'
p917
aa(lp918
F0.17605186076298
aI84
aI114
aI0
aS'on'
p919
aa(lp920
F0.1456393737476
aI84
aI0
aI0
aS'off'
p921
aa(lp922
F0.17568502357426
aI87
aI109
aI0
aS'on'
p923
aa(lp924
F0.18489115429338
aI87
aI0
aI0
aS'off'
p925
aa(lp926
F0.20575958636391
aI89
aI115
aI0
aS'on'
p927
aa(lp928
F0.13580064661164
aI89
aI0
aI0
aS'off'
p929
aa(lp930
F0.41938991551388
aI87
aI108
aI0
aS'on'
p931
aa(lp932
F0.1647626007566
aI87
aI0
aI0
aS'off'
p933
aa(lp934
F0.59341791353472
aI84
aI98
aI0
aS'on'
p935
aa(lp936
F0.12682669925516
aI84
aI0
aI0
aS'off'
p937
aa(lp938
F0.18647259315185
aI82
aI104
aI0
aS'on'
p939
aa(lp940
F0.15464597445225
aI82
aI0
aI0
aS'off'
p941
aa(lp942
F0.15838409975777
aI84
aI111
aI0
aS'on'
p943
aa(lp944
F0.12508941478745
aI84
aI0
aI0
aS'off'
p945
aa(lp946
F0.16543839329779
aI87
aI76
aI0
aS'on'
p947
aa(lp948
F0.11610252424816
aI87
aI0
aI0
aS'off'
p949
aa(lp950
F0.24372307948806
aI84
aI99
aI0
aS'on'
p951
aa(lp952
F0.1269237777833
aI84
aI0
aI0
aS'off'
p953
aa(lp954
F0.19392969642468
aI82
aI98
aI0
aS'on'
p955
aa(lp956
F0.14579606173493
aI82
aI0
aI0
aS'off'
p957
aa(lp958
F0.18431743491419
aI84
aI108
aI0
aS'on'
p959
aa(lp960
F0.1380791816141
aI84
aI0
aI0
aS'off'
p961
aa(lp962
F0.19446106392115
aI87
aI91
aI0
aS'on'
p963
aa(lp964
F0.12608980259211
aI87
aI0
aI0
aS'off'
p965
aa(lp966
F0.23364640838736
aI91
aI111
aI0
aS'on'
p967
aa(lp968
F0.12641043010399
aI91
aI0
aI0
aS'off'
p969
aa(lp970
F0.51712740556422
aI89
aI108
aI0
aS'on'
p971
aa(lp972
F0.12633271882623
aI89
aI0
aI0
aS'off'
p973
aa(lp974
F0.60417189792997
aI84
aI86
aI0
aS'on'
p975
aa(lp976
F0.087882329079093
aI84
aI0
aI0
aS'off'
p977
aa(lp978
F0.18564946824245
aI82
aI99
aI0
aS'on'
p979
aa(lp980
F0.16499480648372
aI82
aI0
aI0
aS'off'
p981
aa(lp982
F0.16606165645908
aI84
aI108
aI0
aS'on'
p983
aa(lp984
F0.11753374764203
aI84
aI0
aI0
aS'off'
p985
aa(lp986
F0.10711829502907
aI87
aI82
aI0
aS'on'
p987
aa(lp988
F0.10754526723213
aI87
aI0
aI0
aS'off'
p989
aa(lp990
F0.27324113201939
aI84
aI106
aI0
aS'on'
p991
aa(lp992
F0.1367359811793
aI84
aI0
aI0
aS'off'
p993
aa(lp994
F0.23514456546127
aI82
aI91
aI0
aS'on'
p995
aa(lp996
F0.13508302774244
aI82
aI0
aI0
aS'off'
p997
aa(lp998
F0.19497926086842
aI84
aI101
aI0
aS'on'
p999
aa(lp1000
F0.16562170566294
aI84
aI0
aI0
aS'off'
p1001
aa(lp1002
F0.18576218854651
aI87
aI98
aI0
aS'on'
p1003
aa(lp1004
F0.14673053342449
aI87
aI0
aI0
aS'off'
p1005
aa(lp1006
F0.20497907052322
aI94
aI102
aI0
aS'on'
p1007
aa(lp1008
F0.1365042730522
aI94
aI0
aI0
aS'off'
p1009
aa(lp1010
F0.50674310977229
aI93
aI95
aI0
aS'on'
p1011
aa(lp1012
F0.13715517256378
aI93
aI0
aI0
aS'off'
p1013
aa(lp1014
F0.47684380643341
aI91
aI108
aI0
aS'on'
p1015
aa(lp1016
F0.1556092305118
aI91
aI0
aI0
aS'off'
p1017
aa(lp1018
F0.49549381428778
aI89
aI98
aI0
aS'on'
p1019
aa(lp1020
F0.14648856207077
aI89
aI0
aI0
aS'off'
p1021
aa(lp1022
F0.52489282122269
aI91
aI98
aI0
aS'on'
p1023
aa(lp1024
F0.18542180800478
aI91
aI0
aI0
aS'off'
p1025
aa(lp1026
F0.48836545294307
aI93
aI88
aI0
aS'on'
p1027
aa(lp1028
F0.1172698129476
aI93
aI0
aI0
aS'off'
p1029
aa(lp1030
F0.58308755046482
aI84
aI97
aI0
aS'on'
p1031
aa(lp1032
F0.10708125833071
aI84
aI0
aI0
aS'off'
p1033
aa(lp1034
F0.19598500672146
aI84
aI91
aI0
aS'on'
p1035
aa(lp1036
F0.10787252567889
aI84
aI0
aI0
aS'off'
p1037
aa(lp1038
F0.27100330887151
aI84
aI91
aI0
aS'on'
p1039
aa(lp1040
F0.067655791270681
aI84
aI0
aI0
aS'off'
p1041
aa(lp1042
F0.29137263169514
aI84
aI93
aI0
aS'on'
p1043
aa(lp1044
F0.10757111632347
aI84
aI0
aI0
aS'off'
p1045
aa(lp1046
F0.22362596977791
aI84
aI93
aI0
aS'on'
p1047
aa(lp1048
F0.097177563686728
aI84
aI0
aI0
aS'off'
p1049
aa(lp1050
F0.26297482885184
aI84
aI95
aI0
aS'on'
p1051
aa(lp1052
F0.087589928700709
aI84
aI0
aI0
aS'off'
p1053
aa(lp1054
F0.223971794097
aI84
aI98
aI0
aS'on'
p1055
aa(lp1056
F0.10823720473945
aI84
aI0
aI0
aS'off'
p1057
aa(lp1058
F0.18440010541599
aI84
aI103
aI0
aS'on'
p1059
aa(lp1060
F0.1263743550594
aI84
aI0
aI0
aS'off'
p1061
aa(lp1062
F0.24302398735472
aI84
aI98
aI0
aS'on'
p1063
aa(lp1064
F0.077730233422699
aI84
aI0
aI0
aS'off'
p1065
aa(lp1066
F0.26302215113992
aI84
aI103
aI0
aS'on'
p1067
aa(lp1068
F0.10717171337865
aI84
aI0
aI0
aS'off'
p1069
aa(lp1070
F0.22382609243959
aI84
aI97
aI0
aS'on'
p1071
aa(lp1072
F0.099614236610705
aI84
aI0
aI0
aS'off'
p1073
aa(lp1074
F0.28241287245191
aI84
aI90
aI0
aS'on'
p1075
aa(lp1076
F0.068229221781166
aI84
aI0
aI0
aS'off'
p1077
aa(lp1078
F0.29253699816127
aI84
aI85
aI0
aS'on'
p1079
aa(lp1080
F0.068542303296454
aI84
aI0
aI0
aS'off'
p1081
aa(lp1082
F0.91546947916595
aI84
aI98
aI0
aS'on'
p1083
aa(lp1084
F0.097110052270182
aI84
aI0
aI0
aS'off'
p1085
aa(lp1086
F0.17447060640779
aI84
aI89
aI0
aS'on'
p1087
aa(lp1088
F0.10699793368121
aI84
aI0
aI0
aS'off'
p1089
aa(lp1090
F0.21525212949246
aI84
aI93
aI0
aS'on'
p1091
aa(lp1092
F0.087975566585555
aI84
aI0
aI0
aS'off'
p1093
aa(lp1094
F0.21486304195651
aI84
aI98
aI0
aS'on'
p1095
aa(lp1096
F0.10703569720999
aI84
aI0
aI0
aS'off'
p1097
aa(lp1098
F0.25361738123911
aI84
aI99
aI0
aS'on'
p1099
aa(lp1100
F0.09717289146829
aI84
aI0
aI0
aS'off'
p1101
aa(lp1102
F0.26243252348013
aI84
aI94
aI0
aS'on'
p1103
aa(lp1104
F0.07776648365234
aI84
aI0
aI0
aS'off'
p1105
aa(lp1106
F0.23300212862887
aI84
aI95
aI0
aS'on'
p1107
aa(lp1108
F0.097400352293334
aI84
aI0
aI0
aS'off'
p1109
aa(lp1110
F0.19481711232993
aI84
aI94
aI0
aS'on'
p1111
aa(lp1112
F0.13824089591708
aI84
aI0
aI0
aS'off'
p1113
aa(lp1114
F0.17407313981539
aI79
aI59
aI0
aS'on'
p1115
aa(lp1116
F0.14634493281301
aI79
aI0
aI0
aS'off'
p1117
aa(lp1118
F0.19444181221843
aI82
aI98
aI0
aS'on'
p1119
aa(lp1120
F0.13740028233633
aI82
aI0
aI0
aS'off'
p1121
aa(lp1122
F0.17481857021949
aI84
aI112
aI0
aS'on'
p1123
aa(lp1124
F0.10698146443701
aI84
aI0
aI0
aS'off'
p1125
aa(lp1126
F0.24405551707105
aI79
aI87
aI0
aS'on'
p1127
aa(lp1128
F0.11698031989317
aI79
aI0
aI0
aS'off'
p1129
aa(lp1130
F0.30213957418255
aI82
aI105
aI0
aS'on'
p1131
aa(lp1132
F0.14713461976953
aI82
aI0
aI0
aS'off'
p1133
aa(lp1134
F0.19382935461135
aI84
aI112
aI0
aS'on'
p1135
aa(lp1136
F0.12641148866805
aI84
aI0
aI0
aS'off'
p1137
aa(lp1138
F0.18639357730535
aI79
aI88
aI0
aS'on'
p1139
aa(lp1140
F0.12666076560481
aI79
aI0
aI0
aS'off'
p1141
aa(lp1142
F0.22439558315364
aI82
aI110
aI0
aS'on'
p1143
aa(lp1144
F0.12761892266508
aI82
aI0
aI0
aS'off'
p1145
aa(lp1146
F0.18492645032438
aI84
aI113
aI0
aS'on'
p1147
aa(lp1148
F0.12675145174762
aI84
aI0
aI0
aS'off'
p1149
aa(lp1150
F0.19416083054148
aI79
aI82
aI0
aS'on'
p1151
aa(lp1152
F0.12602309068961
aI79
aI0
aI0
aS'off'
p1153
aa(lp1154
F0.22322599282279
aI82
aI102
aI0
aS'on'
p1155
aa(lp1156
F0.13650130236374
aI82
aI0
aI0
aS'off'
p1157
aa(lp1158
F0.18401640202001
aI84
aI115
aI0
aS'on'
p1159
aa(lp1160
F0.13717319610851
aI84
aI0
aI0
aS'off'
p1161
aa(lp1162
F0.19448784484803
aI79
aI88
aI0
aS'on'
p1163
aa(lp1164
F0.1071143328677
aI79
aI0
aI0
aS'off'
p1165
aa(lp1166
F0.2522865742053
aI82
aI115
aI0
aS'on'
p1167
aa(lp1168
F0.14548881164092
aI82
aI0
aI0
aS'off'
p1169
aa(lp1170
F0.1756055082642
aI84
aI114
aI0
aS'on'
p1171
aa(lp1172
F0.13709626384389
aI84
aI0
aI0
aS'off'
p1173
aa(lp1174
F0.21462704925398
aI79
aI90
aI0
aS'on'
p1175
aa(lp1176
F0.10746155493916
aI79
aI0
aI0
aS'off'
p1177
aa(lp1178
F0.22433098837928
aI82
aI113
aI0
aS'on'
p1179
aa(lp1180
F0.14715049077631
aI82
aI0
aI0
aS'off'
p1181
aa(lp1182
F0.16481833937496
aI84
aI113
aI0
aS'on'
p1183
aa(lp1184
F0.1272932371553
aI84
aI0
aI0
aS'off'
p1185
aa(lp1186
F0.20408596297239
aI79
aI75
aI0
aS'on'
p1187
aa(lp1188
F0.17488756138937
aI79
aI0
aI0
aS'off'
p1189
aa(lp1190
F0.18478731064624
aI82
aI112
aI0
aS'on'
p1191
aa(lp1192
F0.16559633739826
aI82
aI0
aI0
aS'off'
p1193
aa(lp1194
F0.18665099102191
aI84
aI116
aI0
aS'on'
p1195
aa(lp1196
F0.11616363396115
aI84
aI0
aI0
aS'off'
p1197
aa(lp1198
F0.18508989038537
aI82
aI94
aI0
aS'on'
p1199
aa(lp1200
F0.14602451216842
aI82
aI0
aI0
aS'off'
p1201
aa(lp1202
F0.11684895730696
aI79
aI116
aI0
aS'on'
p1203
aa(lp1204
F0.12683634187897
aI79
aI0
aI0
aS'off'
p1205
aa(lp1206
F0.29348040055265
aI77
aI104
aI0
aS'on'
p1207
aa(lp1208
F0.14559457300402
aI77
aI0
aI0
aS'off'
p1209
aa(lp1210
F0.13651944518278
aI79
aI113
aI0
aS'on'
p1211
aa(lp1212
F0.096916253038216
aI79
aI0
aI0
aS'off'
p1213
aa(lp1214
F0.2322053314715
aI0
aI0
aI0
aS'timeAfterLastHit'
p1215
aaa(lp1216
(lp1217
F0.0
aI72
aI99
aI0
aS'on'
p1218
aa(lp1219
F0.056102339285189
aI72
aI0
aI0
aS'off'
p1220
aa(lp1221
F0.61056432738148
aI70
aI98
aI0
aS'on'
p1222
aa(lp1223
F0.1120876615305
aI70
aI0
aI0
aS'off'
p1224
aa(lp1225
F0.55457900513617
aI72
aI99
aI0
aS'on'
p1226
aa(lp1227
F0.056895353612163
aI72
aI0
aI0
aS'off'
p1228
aa(lp1229
F0.6097713130545
aI70
aI103
aI0
aS'on'
p1230
aa(lp1231
F0.1467970685153
aI70
aI0
aI0
aS'off'
p1232
aa(lp1233
F0.51986959815137
aI72
aI99
aI0
aS'on'
p1234
aa(lp1235
F0.056070893646847
aI72
aI0
aI0
aS'off'
p1236
aa(lp1237
F0.61059577301982
aI70
aI103
aI0
aS'on'
p1238
aa(lp1239
F0.11295176220256
aI70
aI0
aI0
aS'off'
p1240
aa(lp1241
F0.55371490446411
aI0
aI0
aI0
aS'timeAfterLastHit'
p1242
aaa(lp1243
(lp1244
F0.0
aI60
aI99
aI1
aS'on'
p1245
aa(lp1246
F0.10660996784156
aI60
aI0
aI1
aS'off'
p1247
aa(lp1248
F0.22672336549177
aI63
aI94
aI1
aS'on'
p1249
aa(lp1250
F0.08526471377786
aI63
aI0
aI1
aS'off'
p1251
aa(lp1252
F0.24806861955547
aI65
aI99
aI1
aS'on'
p1253
aa(lp1254
F0.13775816243594
aI65
aI0
aI1
aS'off'
p1255
aa(lp1256
F0.19557517089739
aI67
aI90
aI1
aS'on'
p1257
aa(lp1258
F0.053563253770676
aI67
aI0
aI1
aS'off'
p1259
aa(lp1260
F0.27977007956266
aI70
aI95
aI1
aS'on'
p1261
aa(lp1262
F0.1277212793749
aI70
aI0
aI1
aS'off'
p1263
aa(lp1264
F0.20561205395844
aI72
aI107
aI1
aS'on'
p1265
aa(lp1266
F0.10615958461017
aI72
aI0
aI1
aS'off'
p1267
aa(lp1268
F0.22717374872317
aI0
aI0
aI0
aS'timeAfterLastHit'
p1269
aaaI0
aI0
aI0
aI0
a(lp1270
(lp1271
F0.0
aI74
aI96
aI0
aS'on'
p1272
aa(lp1273
F0.33333333333333
aI75
aI43
aI0
aS'on'
p1274
aa(lp1275
F0.15365766357869
aI74
aI0
aI0
aS'off'
p1276
aa(lp1277
F0.13874213125503
aI75
aI0
aI0
aS'off'
p1278
aa(lp1279
F0.040933538499606
aI77
aI37
aI0
aS'on'
p1280
aa(lp1281
F0.2741547604337
aI77
aI0
aI0
aS'off'
p1282
aa(lp1283
F0.05917857289963
aI74
aI95
aI0
aS'on'
p1284
aa(lp1285
F0.33333333333333
aI75
aI64
aI0
aS'on'
p1286
aa(lp1287
F0.086373577402507
aI74
aI0
aI0
aS'off'
p1288
aa(lp1289
F0.18707734226731
aI75
aI0
aI0
aS'off'
p1290
aa(lp1291
F0.059882413663521
aI77
aI97
aI0
aS'on'
p1292
aa(lp1293
F0.2443710903126
aI77
aI0
aI0
aS'off'
p1294
aa(lp1295
F0.088962243020736
aI74
aI91
aI0
aS'on'
p1296
aa(lp1297
F0.33333333333333
aI75
aI66
aI0
aS'on'
p1298
aa(lp1299
F0.04860004213333
aI75
aI0
aI0
aS'off'
p1300
aa(lp1301
F0.066582329350846
aI74
aI0
aI0
aS'off'
p1302
aa(lp1303
F0.05148429518249
aI75
aI25
aI0
aS'on'
p1304
aa(lp1305
F0.14587183479762
aI75
aI0
aI0
aS'off'
p1306
aa(lp1307
F0.020794831869049
aI77
aI93
aI0
aS'on'
p1308
aa(lp1309
F0.27292710562324
aI77
aI0
aI0
aS'off'
p1310
aa(lp1311
F0.060406227710094
aI74
aI95
aI0
aS'on'
p1312
aa(lp1313
F0.33333333333333
aI75
aI96
aI0
aS'on'
p1314
aa(lp1315
F0.14393521076333
aI74
aI0
aI0
aS'off'
p1316
aa(lp1317
F0.17660189255397
aI75
aI0
aI0
aS'off'
p1318
aa(lp1319
F0.012796230016041
aI77
aI101
aI0
aS'on'
p1320
aa(lp1321
F0.29098342302223
aI77
aI0
aI0
aS'off'
p1322
aa(lp1323
F0.042349910311108
aI0
aI0
aI0
aS'timeAfterLastHit'
p1324
aaaI0
aI0
a(lp1325
(lp1326
F0.074138010538263
aI57
aI115
aI1
aS'on'
p1327
aa(lp1328
F7.8815526705512
aI58
aI92
aI1
aS'on'
p1329
aa(lp1330
F0.03362329252468
aI57
aI0
aI1
aS'off'
p1331
aa(lp1332
F2.0405180694752
aI57
aI53
aI1
aS'on'
p1333
aa(lp1334
F0.14641971223728
aI58
aI0
aI1
aS'off'
p1335
aa(lp1336
F1.9030864391691
aI55
aI74
aI1
aS'on'
p1337
aa(lp1338
F0.067634063000241
aI57
aI0
aI1
aS'off'
p1339
aa(lp1340
F1.9027650771377
aI53
aI92
aI1
aS'on'
p1341
aa(lp1342
F0.090978777548798
aI55
aI0
aI1
aS'off'
p1343
aa(lp1344
F1.9447885528994
aI55
aI103
aI1
aS'on'
p1345
aa(lp1346
F0.068643502884015
aI53
aI0
aI1
aS'off'
p1347
aa(lp1348
F15.336687737559
aI55
aI0
aI1
aS'off'
p1349
aa(lp1350
F0.50916409447495
aI0
aI0
aI0
aS'timeAfterLastHit'
p1351
aaa(lp1352
(lp1353
F0.11469906810044
aI51
aI98
aI1
aS'on'
p1354
aa(lp1355
F15.960848927707
aI48
aI87
aI1
aS'on'
p1356
aa(lp1357
F0.054268594426503
aI51
aI0
aI1
aS'off'
p1358
aa(lp1359
F15.860183409766
aI48
aI0
aI1
aS'off'
p1360
aa(lp1361
F0.0099999999999909
aI0
aI0
aI0
aS'timeAfterLastHit'
p1362
aaa(lp1363
(lp1364
F0.064505030126384
aI41
aI112
aI1
aS'on'
p1365
aa(lp1366
F7.5508678254464
aI41
aI0
aI1
aS'off'
p1367
aa(lp1368
F0.056204593580787
aI36
aI96
aI1
aS'on'
p1369
aa(lp1370
F0.37219573198104
aI39
aI97
aI1
aS'on'
p1371
aa(lp1372
F0.044969315189292
aI36
aI0
aI1
aS'off'
p1373
aa(lp1374
F0.27013372715737
aI41
aI108
aI1
aS'on'
p1375
aa(lp1376
F0.067939984206532
aI39
aI0
aI1
aS'off'
p1377
aa(lp1378
F3.5913354677887
aI43
aI91
aI1
aS'on'
p1379
aa(lp1380
F0.11424364238974
aI41
aI0
aI1
aS'off'
p1381
aa(lp1382
F1.8467265935087
aI41
aI107
aI1
aS'on'
p1383
aa(lp1384
F0.1117096400892
aI43
aI0
aI1
aS'off'
p1385
aa(lp1386
F1.5855975149336
aI39
aI99
aI1
aS'on'
p1387
aa(lp1388
F0.011632365688911
aI41
aI0
aI1
aS'off'
p1389
aa(lp1390
F0.36078971548022
aI36
aI112
aI1
aS'on'
p1391
aa(lp1392
F0.045373788164852
aI39
aI0
aI1
aS'off'
p1393
aa(lp1394
F15.394038928084
aI36
aI0
aI1
aS'off'
p1395
aa(lp1396
F0.51173613618471
aI0
aI0
aI0
aS'timeAfterLastHit'
p1397
aaaI0
aI0
aI0
aI0
aI0
aI0
aI0
aI0
aI0
aI0
aI0
aI0
aI0
aI0
aI0
aI0
aI0
aI0
aI0
aI0
aI0
aI0
aI0
aI0
aI0
aI0
aI0
aI0
aI0
aI0
aI0
aI0
aI0
aI0
aI0
aI0
aI0
aI0
aI0
aI0
aI0
aI0
aI0
aI0
aI0
aI0
aI0
aI0
aI0
aI0
aI0
aI0
aI0
aI0
aI0
aI0
aa(lp1398
(dp1399
a(dp1400
a(dp1401
a(dp1402
a(dp1403
a(dp1404
S'button'
p1405
I35
sS'playing'
p1406
I1
sa(dp1407
g1405
I36
sg1406
I0
sa(dp1408
a(dp1409
g1405
I38
sg1406
I0
sa(dp1410
g1405
I41
sg1406
I0
sa(dp1411
a(dp1412
a(dp1413
a(dp1414
g1405
I45
sg1406
I0
sa(dp1415
a(dp1416
a(dp1417
a(dp1418
g1405
I51
sg1406
I0
sa(dp1419
a(dp1420
a(dp1421
a(dp1422
a(dp1423
a(dp1424
a(dp1425
a(dp1426
g1405
I61
sg1406
I0
sa(dp1427
a(dp1428
a(dp1429
g1405
I64
sg1406
I1
sa(dp1430
g1405
I65
sg1406
I0
sa(dp1431
g1405
I66
sg1406
I1
sa(dp1432
g1405
I67
sg1406
I0
sa(dp1433
g1405
I68
sg1406
I0
sa(dp1434
g1405
I71
sg1406
I0
sa(dp1435
a(dp1436
a(dp1437
a(dp1438
a(dp1439
g1405
I76
sg1406
I0
sa(dp1440
a(dp1441
a(dp1442
g1405
I81
sg1406
I0
sa(dp1443
g1405
I82
sg1406
I1
sa(dp1444
g1405
I83
sg1406
I1
sa(dp1445
a(dp1446
a(dp1447
a(dp1448
a(dp1449
a(dp1450
a(dp1451
a(dp1452
a(dp1453
a(dp1454
a(dp1455
a(dp1456
a(dp1457
a(dp1458
a(dp1459
a(dp1460
a(dp1461
a(dp1462
a(dp1463
a(dp1464
a(dp1465
a(dp1466
a(dp1467
a(dp1468
a(dp1469
a(dp1470
a(dp1471
a(dp1472
a(dp1473
a(dp1474
a(dp1475
a(dp1476
a(dp1477
a(dp1478
a(dp1479
a(dp1480
a(dp1481
a(dp1482
a(dp1483
a(dp1484
a(dp1485
a(dp1486
a(dp1487
a(dp1488
a(dp1489
a(dp1490
a(dp1491
a(dp1492
a(dp1493
a(dp1494
a(dp1495
a(dp1496
a(dp1497
a(dp1498
a(dp1499
a(dp1500
aa(lp1501
I60
aI60
aI36
aI36
aa(lp1502
(lp1503
I0
aI2
aI3
aI5
aI7
aI8
aI10
aa(lp1504
I0
aI2
aI3
aI5
aI7
aI8
aI10
aa(lp1505
I0
aI2
aI3
aI5
aI7
aI8
aI10
aa(lp1506
I0
aI2
aI3
aI5
aI7
aI8
aI10
aa(lp1507
I0
aI2
aI3
aI5
aI7
aI8
aI10
aa(lp1508
I0
aI1
aI2
aI3
aI4
aI5
aI6
aI7
aI8
aI9
aI10
aI11
aaa(lp1509
(lp1510
(lp1511
I0
aI0
aI0
aI0
aI0
aI0
aI0
aI0
aI0
aI0
aI0
aI0
aa(lp1512
I0
aI0
aI0
aI0
aI0
aI0
aI0
aI0
aI0
aI0
aI0
aI0
aa(lp1513
I0
aI0
aI0
aI0
aI0
aI0
aI0
aI0
aI0
aI0
aI0
aI0
aa(lp1514
I0
aI0
aI0
aI0
aI0
aI0
aI0
aI0
aI0
aI0
aI0
aI0
aaa(lp1515
(lp1516
I0
aI0
aI0
aI0
aI0
aI0
aI0
aI0
aI0
aI0
aI0
aI0
aa(lp1517
I0
aI0
aI0
aI0
aI0
aI0
aI0
aI0
aI0
aI0
aI0
aI0
aa(lp1518
I0
aI0
aI0
aI0
aI0
aI0
aI0
aI0
aI0
aI0
aI0
aI0
aa(lp1519
I0
aI0
aI0
aI0
aI0
aI0
aI0
aI0
aI0
aI0
aI0
aI0
aaa(lp1520
(lp1521
I0
aI0
aI0
aI0
aI0
aI0
aI0
aI0
aI0
aI0
aI0
aI0
aa(lp1522
I0
aI0
aI0
aI0
aI0
aI0
aI0
aI0
aI0
aI0
aI0
aI0
aa(lp1523
I0
aI0
aI0
aI0
aI0
aI0
aI0
aI0
aI0
aI0
aI0
aI0
aa(lp1524
I0
aI0
aI0
aI0
aI0
aI0
aI0
aI0
aI0
aI0
aI0
aI0
aaa(lp1525
(lp1526
I0
aI0
aI0
aI0
aI0
aI0
aI0
aI0
aI0
aI0
aI0
aI0
aa(lp1527
I0
aI0
aI0
aI0
aI0
aI0
aI0
aI0
aI0
aI0
aI0
aI0
aa(lp1528
I0
aI0
aI0
aI0
aI0
aI0
aI0
aI0
aI0
aI0
aI0
aI0
aa(lp1529
I0
aI0
aI0
aI0
aI0
aI0
aI0
aI0
aI0
aI0
aI0
aI0
aaaa(lp1530
(lp1531
I0
aI0
aI0
aI0
aI0
aI0
aI0
aI0
aI0
aI0
aI0
aI0
aa(lp1532
I0
aI0
aI0
aI0
aI0
aI0
aI0
aI0
aI0
aI0
aI0
aI0
aa(lp1533
I0
aI0
aI0
aI0
aI0
aI0
aI0
aI0
aI0
aI0
aI0
aI0
aa(lp1534
I0
aI0
aI0
aI0
aI0
aI0
aI0
aI0
aI0
aI0
aI0
aI0
aaaaI0
aI0
aI0
aI0
aI0
aI0
aI0
aI0
aI0
aI0
aI0
aI0
aI0
aI0
aI0
aI0
aI0
aI0
aI0
aI0
aI0
aI0
aI0
aI0
aI0
aI0
aI0
aI0
aI0
a.