(lp0
I0
a(lp1
(lp2
I0
aI0
a(lp3
(lp4
F0.5
aI42
aI94
aI3
aS'on'
p5
aa(lp6
F0.074929492463525
aI42
aI0
aI3
aS'off'
p7
aa(lp8
F0.92507050753647
aI42
aI106
aI3
aS'on'
p9
aa(lp10
F0.10442552996483
aI42
aI0
aI3
aS'off'
p11
aa(lp12
F2.3955744700352
aI42
aI92
aI3
aS'on'
p13
aa(lp14
F0.075309503296012
aI42
aI0
aI3
aS'off'
p15
aa(lp16
F0.92469049670399
aI42
aI101
aI3
aS'on'
p17
aa(lp18
F0.073557600124332
aI42
aI0
aI3
aS'off'
p19
aa(lp20
F0.92644239987567
aI0
aI0
aI0
aS'timeAfterLastHit'
p21
aaaI0
aI0
aI0
aI0
aI0
aI0
aI0
a(lp22
(lp23
F0.0
aI36
aI118
aI3
aS'on'
p24
aa(lp25
F0.16243361854322
aI36
aI0
aI3
aS'off'
p26
aa(lp27
F1.3375663814568
aI36
aI118
aI3
aS'on'
p28
aa(lp29
F0.10232664180876
aI36
aI0
aI3
aS'off'
p30
aa(lp31
F1.3976733581912
aI36
aI118
aI3
aS'on'
p32
aa(lp33
F0.11707205950734
aI36
aI0
aI3
aS'off'
p34
aa(lp35
F0.88292794049266
aI36
aI115
aI3
aS'on'
p36
aa(lp37
F0.14899176432937
aI36
aI0
aI3
aS'off'
p38
aa(lp39
F0.85100823567063
aI36
aI118
aI3
aS'on'
p40
aa(lp41
F0.13280497978576
aI36
aI0
aI3
aS'off'
p42
aa(lp43
F0.86719502021424
aI0
aI0
aI0
aS'timeAfterLastHit'
p44
aaa(lp45
(lp46
F0.46785272103307
aI38
aI118
aI3
aS'on'
p47
aa(lp48
F0.51662987817372
aI38
aI0
aI3
aS'off'
p49
aa(lp50
F3.4750702453798
aI38
aI118
aI3
aS'on'
p51
aa(lp52
F1.5304471554132
aI38
aI0
aI3
aS'off'
p53
aa(lp54
F0.010000000000218
aI0
aI0
aI0
aS'timeAfterLastHit'
p55
aaaI0
aI0
aI0
aI0
aI0
a(lp56
(lp57
F0.014832466840744
aI67
aI66
aI0
aS'on'
p58
aa(lp59
F0.013913869857788
aI62
aI52
aI0
aS'on'
p60
aa(lp61
F0.016811100772429
aI67
aI0
aI0
aS'off'
p62
aa(lp63
F0.00021998017109581
aI62
aI0
aI0
aS'off'
p64
aa(lp65
F0.43989559138845
aI67
aI70
aI0
aS'on'
p66
aa(lp67
F0.00024274884162878
aI62
aI65
aI0
aS'on'
p68
aa(lp69
F0.095324874589096
aI67
aI0
aI0
aS'off'
p70
aa(lp71
F0.011423665227085
aI62
aI0
aI0
aS'off'
p72
aa(lp73
F0.93008304143132
aI65
aI71
aI0
aS'on'
p74
aa(lp75
F0.00027249030245002
aI60
aI47
aI0
aS'on'
p76
aa(lp77
F0.16435200587875
aI60
aI0
aI0
aS'off'
p78
aa(lp79
F0.012022393293591
aI65
aI0
aI0
aS'off'
p80
aa(lp81
F0.33307050126041
aI60
aI50
aI0
aS'on'
p82
aa(lp83
F0.011624417812527
aI65
aI73
aI0
aS'on'
p84
aa(lp85
F0.14341750120457
aI60
aI0
aI0
aS'off'
p86
aa(lp87
F0.048100923324455
aI65
aI0
aI0
aS'off'
p88
aa(lp89
F0.82397865536495
aI58
aI53
aI0
aS'on'
p90
aa(lp91
F0.011256142776801
aI63
aI66
aI0
aS'on'
p92
aa(lp93
F0.14338113786926
aI63
aI0
aI0
aS'off'
p94
aa(lp95
F0.011533876345311
aI58
aI0
aI0
aS'off'
p96
aa(lp97
F0.36812748091324
aI58
aI67
aI0
aS'on'
p98
aa(lp99
F0.011445255813669
aI63
aI72
aI0
aS'on'
p100
aa(lp101
F0.14308612499553
aI63
aI0
aI0
aS'off'
p102
aa(lp103
F0.011824012823126
aI58
aI0
aI0
aS'off'
p104
aa(lp105
F0.83501957587669
aI62
aI82
aI0
aS'on'
p106
aa(lp107
F0.00013306865730556
aI56
aI52
aI0
aS'on'
p108
aa(lp109
F0.095743406131078
aI56
aI0
aI0
aS'off'
p110
aa(lp111
F0.048040788697108
aI62
aI0
aI0
aS'off'
p112
aa(lp113
F0.39486497947109
aI55
aI65
aI0
aS'on'
p114
aa(lp115
F0.0098971389215876
aI60
aI92
aI0
aS'on'
p116
aa(lp117
F0.16675434667104
aI55
aI0
aI0
aS'off'
p118
aa(lp119
F0.024934218522503
aI60
aI0
aI0
aS'off'
p120
aa(lp121
F0.75087562450881
aI56
aI33
aI0
aS'on'
p122
aa(lp123
F0.011462886037407
aI62
aI70
aI0
aS'on'
p124
aa(lp125
F0.072717134712548
aI56
aI0
aI0
aS'off'
p126
aa(lp127
F0.035189948046536
aI62
aI0
aI0
aS'off'
p128
aa(lp129
F0.44066407046193
aI63
aI89
aI0
aS'on'
p130
aa(lp131
F0.00011490977794892
aI58
aI62
aI0
aS'on'
p132
aa(lp133
F0.094775400406434
aI58
aI0
aI0
aS'off'
p134
aa(lp135
F0.048589809420264
aI63
aI0
aI0
aS'off'
p136
aa(lp137
F0.79590854929484
aI56
aI7
aI0
aS'on'
p138
aa(lp139
F0.011707075011145
aI62
aI65
aI0
aS'on'
p140
aa(lp141
F0.047883798351904
aI56
aI0
aI0
aS'off'
p142
aa(lp143
F0.037499117763218
aI62
aI0
aI0
aS'off'
p144
aa(lp145
F0.438898591613
aI60
aI89
aI0
aS'on'
p146
aa(lp147
F0.00012322015845712
aI55
aI71
aI0
aS'on'
p148
aa(lp149
F0.14289366000503
aI60
aI0
aI0
aS'off'
p150
aa(lp151
F0.036084502478843
aI55
aI0
aI0
aS'off'
p152
aa(lp153
F0.66604946982625
aI56
aI17
aI0
aS'on'
p154
aa(lp155
F0.011583061868805
aI62
aI61
aI0
aS'on'
p156
aa(lp157
F0.071322223259813
aI56
aI0
aI0
aS'off'
p158
aa(lp159
F0.023835352190872
aI62
aI0
aI0
aS'off'
p160
aa(lp161
F0.51611014831906
aI63
aI73
aI0
aS'on'
p162
aa(lp163
F0.00016582026910328
aI58
aI45
aI0
aS'on'
p164
aa(lp165
F0.09415810329574
aI63
aI0
aI0
aS'off'
p166
aa(lp167
F0.0001268273254027
aI58
aI0
aI0
aS'off'
p168
aa(lp169
F0.8915941655705
aI56
aI35
aI0
aS'on'
p170
aa(lp171
F0.010968788580612
aI62
aI66
aI0
aS'on'
p172
aa(lp173
F0.047812304453146
aI56
aI0
aI0
aS'off'
p174
aa(lp175
F0.036385592618899
aI62
aI0
aI0
aS'off'
p176
aa(lp177
F0.40569955321371
aI60
aI89
aI0
aS'on'
p178
aa(lp179
F0.00022373089450411
aI55
aI60
aI0
aS'on'
p180
aa(lp181
F0.094274464599948
aI55
aI0
aI0
aS'off'
p182
aa(lp183
F0.047769649657312
aI60
aI0
aI0
aS'off'
p184
aa(lp185
F0.75053492390089
aI56
aI42
aI0
aS'on'
p186
aa(lp187
F0.010813338630214
aI62
aI71
aI0
aS'on'
p188
aa(lp189
F0.083084052912454
aI56
aI0
aI0
aS'off'
p190
aa(lp191
F0.011519835057697
aI62
aI0
aI0
aS'off'
p192
aa(lp193
F0.92495251346008
aI0
aI0
aI0
aS'timeAfterLastHit'
p194
aaaI0
aI0
aI0
aI0
a(lp195
(lp196
F0.017504188183921
aI75
aI99
aI1
aS'on'
p197
aa(lp198
F10.067422579565
aI74
aI80
aI1
aS'on'
p199
aa(lp200
F0.064917689352114
aI75
aI0
aI1
aS'off'
p201
aa(lp202
F9.5862558892895
aI74
aI0
aI1
aS'off'
p203
aa(lp204
F0.24513131845379
aI70
aI80
aI1
aS'on'
p205
aa(lp206
F1.8279867239717
aI70
aI0
aI1
aS'off'
p207
aa(lp208
F0.032075822438856
aI72
aI65
aI1
aS'on'
p209
aa(lp210
F20.148705788745
aI72
aI0
aI1
aS'off'
p211
aa(lp212
F0.010000000000218
aI0
aI0
aI0
aS'timeAfterLastHit'
p213
aaaI0
aI0
aI0
aI0
aI0
aI0
aI0
aI0
aI0
aI0
a(lp214
(lp215
F0.020744218751133
aI36
aI94
aI2
aS'on'
p216
aa(lp217
F0.48541431308695
aI38
aI67
aI2
aS'on'
p218
aa(lp219
F0.43889472043884
aI39
aI65
aI2
aS'on'
p220
aa(lp221
F0.13220056327373
aI38
aI0
aI2
aS'off'
p222
aa(lp223
F0.39983480405954
aI39
aI0
aI2
aS'off'
p224
aa(lp225
F0.49598892778067
aI38
aI87
aI2
aS'on'
p226
aa(lp227
F0.48595741123609
aI38
aI0
aI2
aS'off'
p228
aa(lp229
F0.52352033384886
aI43
aI104
aI2
aS'on'
p230
aa(lp231
F0.02863457150761
aI36
aI0
aI2
aS'off'
p232
aa(lp233
F0.4574541407228
aI41
aI89
aI2
aS'on'
p234
aa(lp235
F0.4282299338447
aI46
aI73
aI2
aS'on'
p236
aa(lp237
F0.095602148593571
aI43
aI0
aI2
aS'off'
p238
aa(lp239
F0.01840528496723
aI41
aI0
aI2
aS'off'
p240
aa(lp241
F0.40049521854598
aI48
aI99
aI2
aS'on'
p242
aa(lp243
F0.27705164698909
aI46
aI0
aI2
aS'off'
p244
aa(lp245
F0.17085696768027
aI48
aI0
aI2
aS'off'
p246
aa(lp247
F0.14071479467293
aI0
aI0
aI0
aS'timeAfterLastHit'
p248
aaa(lp249
(lp250
F1.82894469859
aI56
aI118
aI2
aS'on'
p251
aa(lp252
F0.29066187075932
aI56
aI0
aI2
aS'off'
p253
aa(lp254
F0.74935509406805
aI58
aI120
aI2
aS'on'
p255
aa(lp256
F0.25784093241873
aI58
aI0
aI2
aS'off'
p257
aa(lp258
F0.85015599256167
aI60
aI118
aI2
aS'on'
p259
aa(lp260
F0.25648606806772
aI60
aI0
aI2
aS'off'
p261
aa(lp262
F0.73309147902091
aI65
aI120
aI2
aS'on'
p263
aa(lp264
F0.25679436868631
aI65
aI0
aI2
aS'off'
p265
aa(lp266
F0.77666949582726
aI0
aI0
aI0
aS'timeAfterLastHit'
p267
aaaI0
aI0
aI0
aI0
aI0
aI0
aI0
aI0
aI0
a(lp268
(lp269
F0.048768087979624
aI87
aI70
aI0
aS'on'
p270
aa(lp271
F0.11828090437939
aI87
aI0
aI0
aS'off'
p272
aa(lp273
F0.36409440347688
aI86
aI70
aI0
aS'on'
p274
aa(lp275
F0.090770070120925
aI86
aI0
aI0
aS'off'
p276
aa(lp277
F0.35517701416848
aI84
aI64
aI0
aS'on'
p278
aa(lp279
F0.11846812641488
aI84
aI0
aI0
aS'off'
p280
aa(lp281
F0.38273667834528
aI87
aI50
aI0
aS'on'
p282
aa(lp283
F0.091447962245184
aI87
aI0
aI0
aS'off'
p284
aa(lp285
F0.40896656486893
aI86
aI56
aI0
aS'on'
p286
aa(lp287
F0.09985490892268
aI86
aI0
aI0
aS'off'
p288
aa(lp289
F0.40048554698751
aI84
aI43
aI0
aS'on'
p290
aa(lp291
F0.1187316092437
aI84
aI0
aI0
aS'off'
p292
aa(lp293
F0.41043189131142
aI87
aI63
aI0
aS'on'
p294
aa(lp295
F0.12701585179002
aI87
aI0
aI0
aS'off'
p296
aa(lp297
F0.40006605596409
aI86
aI59
aI0
aS'on'
p298
aa(lp299
F0.072786601695043
aI86
aI0
aI0
aS'off'
p300
aa(lp301
F0.37340587691051
aI84
aI75
aI0
aS'on'
p302
aa(lp303
F0.14606526637817
aI84
aI0
aI0
aS'off'
p304
aa(lp305
F0.37356977878062
aI87
aI63
aI0
aS'on'
p306
aa(lp307
F0.11835866789988
aI87
aI0
aI0
aS'off'
p308
aa(lp309
F0.38301852164295
aI86
aI68
aI0
aS'on'
p310
aa(lp311
F0.13686135823355
aI86
aI0
aI0
aS'off'
p312
aa(lp313
F0.3660730071615
aI84
aI61
aI0
aS'on'
p314
aa(lp315
F0.16105502490427
aI84
aI0
aI0
aS'off'
p316
aa(lp317
F0.3378226131772
aI87
aI65
aI0
aS'on'
p318
aa(lp319
F0.13633769613261
aI87
aI0
aI0
aS'off'
p320
aa(lp321
F0.35588183683831
aI86
aI80
aI0
aS'on'
p322
aa(lp323
F0.091151628612351
aI86
aI0
aI0
aS'off'
p324
aa(lp325
F0.40983464961846
aI84
aI57
aI0
aS'on'
p326
aa(lp327
F0.14619589207905
aI84
aI0
aI0
aS'off'
p328
aa(lp329
F0.85628590371653
aI0
aI0
aI0
aS'timeAfterLastHit'
p330
aaaI0
aI0
aI0
aI0
aI0
aI0
aI0
aI0
aI0
aI0
aI0
aI0
aI0
aI0
aI0
aI0
aI0
aI0
aI0
aI0
aI0
aI0
aI0
aI0
aI0
aI0
aI0
aI0
aI0
aI0
aI0
aI0
aI0
aI0
aI0
aI0
aI0
aI0
aI0
aI0
aI0
aI0
aI0
aI0
aI0
aI0
aI0
aI0
aI0
aI0
aI0
aI0
aI0
aI0
aI0
aa(lp331
(dp332
a(dp333
a(dp334
S'button'
p335
I32
sS'playing'
p336
I1
sa(dp337
a(dp338
a(dp339
a(dp340
a(dp341
a(dp342
a(dp343
a(dp344
g335
I42
sg336
I1
sa(dp345
g335
I43
sg336
I1
sa(dp346
a(dp347
a(dp348
a(dp349
a(dp350
a(dp351
g335
I51
sg336
I1
sa(dp352
a(dp353
a(dp354
a(dp355
a(dp356
g335
I56
sg336
I01
sa(dp357
a(dp358
a(dp359
a(dp360
a(dp361
a(dp362
a(dp363
a(dp364
a(dp365
a(dp366
a(dp367
g335
I71
sg336
I1
sa(dp368
g335
I72
sg336
I0
sa(dp369
a(dp370
a(dp371
a(dp372
a(dp373
a(dp374
a(dp375
a(dp376
a(dp377
a(dp378
g335
I84
sg336
I1
sa(dp379
a(dp380
a(dp381
a(dp382
a(dp383
a(dp384
a(dp385
a(dp386
a(dp387
a(dp388
a(dp389
a(dp390
a(dp391
a(dp392
a(dp393
a(dp394
a(dp395
a(dp396
a(dp397
a(dp398
a(dp399
a(dp400
a(dp401
a(dp402
a(dp403
a(dp404
a(dp405
a(dp406
a(dp407
a(dp408
a(dp409
a(dp410
a(dp411
a(dp412
a(dp413
a(dp414
a(dp415
a(dp416
a(dp417
a(dp418
a(dp419
a(dp420
a(dp421
a(dp422
a(dp423
a(dp424
a(dp425
a(dp426
a(dp427
a(dp428
a(dp429
a(dp430
a(dp431
a(dp432
a(dp433
aa(lp434
I60
aI60
aI36
aI36
aa(lp435
(lp436
I0
aI2
aI3
aI5
aI7
aI8
aI10
aa(lp437
I0
aI2
aI3
aI5
aI7
aI8
aI10
aa(lp438
I0
aI2
aI3
aI5
aI7
aI8
aI10
aa(lp439
I0
aI2
aI3
aI5
aI7
aI8
aI10
aa(lp440
I0
aI2
aI3
aI5
aI7
aI8
aI10
aa(lp441
I0
aI1
aI2
aI3
aI4
aI5
aI6
aI7
aI8
aI9
aI10
aI11
aaa(lp442
(lp443
(lp444
I0
aI0
aI0
aI0
aI0
aI0
aI0
aI0
aI0
aI0
aI0
aI0
aa(lp445
I0
aI0
aI0
aI0
aI0
aI0
aI0
aI0
aI0
aI0
aI0
aI0
aa(lp446
I0
aI0
aI0
aI0
aI0
aI0
aI0
aI0
aI0
aI0
aI0
aI0
aa(lp447
I0
aI0
aI0
aI0
aI0
aI0
aI0
aI0
aI0
aI0
aI0
aI0
aaa(lp448
(lp449
I0
aI0
aI0
aI0
aI0
aI0
aI0
aI0
aI0
aI0
aI0
aI0
aa(lp450
I0
aI0
aI0
aI0
aI0
aI0
aI0
aI0
aI0
aI0
aI0
aI0
aa(lp451
I0
aI0
aI0
aI0
aI0
aI0
aI0
aI0
aI0
aI0
aI0
aI0
aa(lp452
I0
aI0
aI0
aI0
aI0
aI0
aI0
aI0
aI0
aI0
aI0
aI0
aaa(lp453
(lp454
I0
aI0
aI0
aI0
aI0
aI0
aI0
aI0
aI0
aI0
aI0
aI0
aa(lp455
I0
aI0
aI0
aI0
aI0
aI0
aI0
aI0
aI0
aI0
aI0
aI0
aa(lp456
I0
aI0
aI0
aI0
aI0
aI0
aI0
aI0
aI0
aI0
aI0
aI0
aa(lp457
I0
aI0
aI0
aI0
aI0
aI0
aI0
aI0
aI0
aI0
aI0
aI0
aaa(lp458
(lp459
I0
aI0
aI0
aI0
aI0
aI0
aI0
aI0
aI0
aI0
aI0
aI0
aa(lp460
I0
aI0
aI0
aI0
aI0
aI0
aI0
aI0
aI0
aI0
aI0
aI0
aa(lp461
I0
aI0
aI0
aI0
aI0
aI0
aI0
aI0
aI0
aI0
aI0
aI0
aa(lp462
I0
aI0
aI0
aI0
aI0
aI0
aI0
aI0
aI0
aI0
aI0
aI0
aaaa(lp463
(lp464
I0
aI0
aI0
aI0
aI0
aI0
aI0
aI0
aI0
aI0
aI0
aI0
aa(lp465
I0
aI0
aI0
aI0
aI0
aI0
aI0
aI0
aI0
aI0
aI0
aI0
aa(lp466
I0
aI0
aI0
aI0
aI0
aI0
aI0
aI0
aI0
aI0
aI0
aI0
aa(lp467
I0
aI0
aI0
aI0
aI0
aI0
aI0
aI0
aI0
aI0
aI0
aI0
aaaa(lp468
(lp469
I0
aI0
a(lp470
(lp471
F0.5
aI42
aI94
aI3
ag5
aa(lp472
F0.074929492463525
aI42
aI0
aI3
ag7
aa(lp473
F0.92507050753647
aI42
aI106
aI3
ag9
aa(lp474
F0.10442552996483
aI42
aI0
aI3
ag11
aa(lp475
F2.3955744700352
aI42
aI92
aI3
ag13
aa(lp476
F0.075309503296012
aI42
aI0
aI3
ag15
aa(lp477
F0.92469049670399
aI42
aI101
aI3
ag17
aa(lp478
F0.073557600124332
aI42
aI0
aI3
ag19
aa(lp479
F0.92644239987567
aI0
aI0
aI0
ag21
aaa(lp480
(lp481
F4.0208790703982
aI46
aI99
aI3
aS'on'
p482
aa(lp483
F0.59853009246035
aI46
aI0
aI3
aS'off'
p484
aa(lp485
F0.88582225442406
aI46
aI111
aI3
aS'on'
p486
aa(lp487
F0.37538136626972
aI46
aI0
aI3
aS'off'
p488
aa(lp489
F5.9894758484106
aI46
aI104
aI3
aS'on'
p490
aa(lp491
F0.68289384091713
aI46
aI0
aI3
aS'off'
p492
aa(lp493
F0.85299046484397
aI46
aI106
aI3
aS'on'
p494
aa(lp495
F0.80295583367115
aI46
aI0
aI3
aS'off'
p496
aa(lp497
F0.79107122860478
aI0
aI0
aI0
aS'timeAfterLastHit'
p498
aaaI0
aI0
aI0
aI0
aI0
aI0
a(lp499
(lp500
F0.0
aI36
aI118
aI3
ag24
aa(lp501
F0.16243361854322
aI36
aI0
aI3
ag26
aa(lp502
F1.3375663814568
aI36
aI118
aI3
ag28
aa(lp503
F0.10232664180876
aI36
aI0
aI3
ag30
aa(lp504
F1.3976733581912
aI36
aI118
aI3
ag32
aa(lp505
F0.11707205950734
aI36
aI0
aI3
ag34
aa(lp506
F0.88292794049266
aI36
aI115
aI3
ag36
aa(lp507
F0.14899176432937
aI36
aI0
aI3
ag38
aa(lp508
F0.85100823567063
aI36
aI118
aI3
ag40
aa(lp509
F0.13280497978576
aI36
aI0
aI3
ag42
aa(lp510
F0.86719502021424
aI0
aI0
aI0
ag44
aaa(lp511
(lp512
F0.46785272103307
aI38
aI118
aI3
ag47
aa(lp513
F0.51662987817372
aI38
aI0
aI3
ag49
aa(lp514
F3.4750702453798
aI38
aI118
aI3
ag51
aa(lp515
F1.5304471554132
aI38
aI0
aI3
ag53
aa(lp516
F0.010000000000218
aI0
aI0
aI0
ag55
aaaI0
aI0
aI0
aI0
aI0
a(lp517
(lp518
F0.014832466840744
aI67
aI66
aI0
ag58
aa(lp519
F0.013913869857788
aI62
aI52
aI0
ag60
aa(lp520
F0.016811100772429
aI67
aI0
aI0
ag62
aa(lp521
F0.00021998017109581
aI62
aI0
aI0
ag64
aa(lp522
F0.43989559138845
aI67
aI70
aI0
ag66
aa(lp523
F0.00024274884162878
aI62
aI65
aI0
ag68
aa(lp524
F0.095324874589096
aI67
aI0
aI0
ag70
aa(lp525
F0.011423665227085
aI62
aI0
aI0
ag72
aa(lp526
F0.93008304143132
aI65
aI71
aI0
ag74
aa(lp527
F0.00027249030245002
aI60
aI47
aI0
ag76
aa(lp528
F0.16435200587875
aI60
aI0
aI0
ag78
aa(lp529
F0.012022393293591
aI65
aI0
aI0
ag80
aa(lp530
F0.33307050126041
aI60
aI50
aI0
ag82
aa(lp531
F0.011624417812527
aI65
aI73
aI0
ag84
aa(lp532
F0.14341750120457
aI60
aI0
aI0
ag86
aa(lp533
F0.048100923324455
aI65
aI0
aI0
ag88
aa(lp534
F0.82397865536495
aI58
aI53
aI0
ag90
aa(lp535
F0.011256142776801
aI63
aI66
aI0
ag92
aa(lp536
F0.14338113786926
aI63
aI0
aI0
ag94
aa(lp537
F0.011533876345311
aI58
aI0
aI0
ag96
aa(lp538
F0.36812748091324
aI58
aI67
aI0
ag98
aa(lp539
F0.011445255813669
aI63
aI72
aI0
ag100
aa(lp540
F0.14308612499553
aI63
aI0
aI0
ag102
aa(lp541
F0.011824012823126
aI58
aI0
aI0
ag104
aa(lp542
F0.83501957587669
aI62
aI82
aI0
ag106
aa(lp543
F0.00013306865730556
aI56
aI52
aI0
ag108
aa(lp544
F0.095743406131078
aI56
aI0
aI0
ag110
aa(lp545
F0.048040788697108
aI62
aI0
aI0
ag112
aa(lp546
F0.39486497947109
aI55
aI65
aI0
ag114
aa(lp547
F0.0098971389215876
aI60
aI92
aI0
ag116
aa(lp548
F0.16675434667104
aI55
aI0
aI0
ag118
aa(lp549
F0.024934218522503
aI60
aI0
aI0
ag120
aa(lp550
F0.75087562450881
aI56
aI33
aI0
ag122
aa(lp551
F0.011462886037407
aI62
aI70
aI0
ag124
aa(lp552
F0.072717134712548
aI56
aI0
aI0
ag126
aa(lp553
F0.035189948046536
aI62
aI0
aI0
ag128
aa(lp554
F0.44066407046193
aI63
aI89
aI0
ag130
aa(lp555
F0.00011490977794892
aI58
aI62
aI0
ag132
aa(lp556
F0.094775400406434
aI58
aI0
aI0
ag134
aa(lp557
F0.048589809420264
aI63
aI0
aI0
ag136
aa(lp558
F0.79590854929484
aI56
aI7
aI0
ag138
aa(lp559
F0.011707075011145
aI62
aI65
aI0
ag140
aa(lp560
F0.047883798351904
aI56
aI0
aI0
ag142
aa(lp561
F0.037499117763218
aI62
aI0
aI0
ag144
aa(lp562
F0.438898591613
aI60
aI89
aI0
ag146
aa(lp563
F0.00012322015845712
aI55
aI71
aI0
ag148
aa(lp564
F0.14289366000503
aI60
aI0
aI0
ag150
aa(lp565
F0.036084502478843
aI55
aI0
aI0
ag152
aa(lp566
F0.66604946982625
aI56
aI17
aI0
ag154
aa(lp567
F0.011583061868805
aI62
aI61
aI0
ag156
aa(lp568
F0.071322223259813
aI56
aI0
aI0
ag158
aa(lp569
F0.023835352190872
aI62
aI0
aI0
ag160
aa(lp570
F0.51611014831906
aI63
aI73
aI0
ag162
aa(lp571
F0.00016582026910328
aI58
aI45
aI0
ag164
aa(lp572
F0.09415810329574
aI63
aI0
aI0
ag166
aa(lp573
F0.0001268273254027
aI58
aI0
aI0
ag168
aa(lp574
F0.8915941655705
aI56
aI35
aI0
ag170
aa(lp575
F0.010968788580612
aI62
aI66
aI0
ag172
aa(lp576
F0.047812304453146
aI56
aI0
aI0
ag174
aa(lp577
F0.036385592618899
aI62
aI0
aI0
ag176
aa(lp578
F0.40569955321371
aI60
aI89
aI0
ag178
aa(lp579
F0.00022373089450411
aI55
aI60
aI0
ag180
aa(lp580
F0.094274464599948
aI55
aI0
aI0
ag182
aa(lp581
F0.047769649657312
aI60
aI0
aI0
ag184
aa(lp582
F0.75053492390089
aI56
aI42
aI0
ag186
aa(lp583
F0.010813338630214
aI62
aI71
aI0
ag188
aa(lp584
F0.083084052912454
aI56
aI0
aI0
ag190
aa(lp585
F0.011519835057697
aI62
aI0
aI0
ag192
aa(lp586
F0.92495251346008
aI0
aI0
aI0
ag194
aaaI0
aI0
aI0
aI0
a(lp587
(lp588
F0.017504188183921
aI75
aI99
aI1
ag197
aa(lp589
F10.067422579565
aI74
aI80
aI1
ag199
aa(lp590
F0.064917689352114
aI75
aI0
aI1
ag201
aa(lp591
F9.5862558892895
aI74
aI0
aI1
ag203
aa(lp592
F0.24513131845379
aI70
aI80
aI1
ag205
aa(lp593
F1.8279867239717
aI70
aI0
aI1
ag207
aa(lp594
F0.032075822438856
aI72
aI65
aI1
ag209
aa(lp595
F20.148705788745
aI72
aI0
aI1
ag211
aa(lp596
F0.010000000000218
aI0
aI0
aI0
ag213
aaa(lp597
(lp598
F0.206485498029
aI70
aI89
aI1
aS'on'
p599
aa(lp600
F11.508327445203
aI70
aI0
aI1
aS'off'
p601
aa(lp602
F0.23987746580133
aI68
aI92
aI1
aS'on'
p603
aa(lp604
F11.42782381376
aI68
aI0
aI1
aS'off'
p605
aa(lp606
F0.61748577720664
aI0
aI0
aI0
aS'timeAfterLastHit'
p607
aaaI0
aI0
aI0
aI0
aI0
aI0
aI0
aI0
aI0
a(lp608
(lp609
F0.020744218751133
aI36
aI94
aI2
ag216
aa(lp610
F0.48541431308695
aI38
aI67
aI2
ag218
aa(lp611
F0.43889472043884
aI39
aI65
aI2
ag220
aa(lp612
F0.13220056327373
aI38
aI0
aI2
ag222
aa(lp613
F0.39983480405954
aI39
aI0
aI2
ag224
aa(lp614
F0.49598892778067
aI38
aI87
aI2
ag226
aa(lp615
F0.48595741123609
aI38
aI0
aI2
ag228
aa(lp616
F0.52352033384886
aI43
aI104
aI2
ag230
aa(lp617
F0.02863457150761
aI36
aI0
aI2
ag232
aa(lp618
F0.4574541407228
aI41
aI89
aI2
ag234
aa(lp619
F0.4282299338447
aI46
aI73
aI2
ag236
aa(lp620
F0.095602148593571
aI43
aI0
aI2
ag238
aa(lp621
F0.01840528496723
aI41
aI0
aI2
ag240
aa(lp622
F0.40049521854598
aI48
aI99
aI2
ag242
aa(lp623
F0.27705164698909
aI46
aI0
aI2
ag244
aa(lp624
F0.17085696768027
aI48
aI0
aI2
ag246
aa(lp625
F0.14071479467293
aI0
aI0
aI0
ag248
aaa(lp626
(lp627
F1.82894469859
aI56
aI118
aI2
ag251
aa(lp628
F0.29066187075932
aI56
aI0
aI2
ag253
aa(lp629
F0.74935509406805
aI58
aI120
aI2
ag255
aa(lp630
F0.25784093241873
aI58
aI0
aI2
ag257
aa(lp631
F0.85015599256167
aI60
aI118
aI2
ag259
aa(lp632
F0.25648606806772
aI60
aI0
aI2
ag261
aa(lp633
F0.73309147902091
aI65
aI120
aI2
ag263
aa(lp634
F0.25679436868631
aI65
aI0
aI2
ag265
aa(lp635
F0.77666949582726
aI0
aI0
aI0
ag267
aaaI0
aI0
aI0
aI0
aI0
aI0
aI0
aI0
aI0
a(lp636
(lp637
F0.048768087979624
aI87
aI70
aI0
ag270
aa(lp638
F0.11828090437939
aI87
aI0
aI0
ag272
aa(lp639
F0.36409440347688
aI86
aI70
aI0
ag274
aa(lp640
F0.090770070120925
aI86
aI0
aI0
ag276
aa(lp641
F0.35517701416848
aI84
aI64
aI0
ag278
aa(lp642
F0.11846812641488
aI84
aI0
aI0
ag280
aa(lp643
F0.38273667834528
aI87
aI50
aI0
ag282
aa(lp644
F0.091447962245184
aI87
aI0
aI0
ag284
aa(lp645
F0.40896656486893
aI86
aI56
aI0
ag286
aa(lp646
F0.09985490892268
aI86
aI0
aI0
ag288
aa(lp647
F0.40048554698751
aI84
aI43
aI0
ag290
aa(lp648
F0.1187316092437
aI84
aI0
aI0
ag292
aa(lp649
F0.41043189131142
aI87
aI63
aI0
ag294
aa(lp650
F0.12701585179002
aI87
aI0
aI0
ag296
aa(lp651
F0.40006605596409
aI86
aI59
aI0
ag298
aa(lp652
F0.072786601695043
aI86
aI0
aI0
ag300
aa(lp653
F0.37340587691051
aI84
aI75
aI0
ag302
aa(lp654
F0.14606526637817
aI84
aI0
aI0
ag304
aa(lp655
F0.37356977878062
aI87
aI63
aI0
ag306
aa(lp656
F0.11835866789988
aI87
aI0
aI0
ag308
aa(lp657
F0.38301852164295
aI86
aI68
aI0
ag310
aa(lp658
F0.13686135823355
aI86
aI0
aI0
ag312
aa(lp659
F0.3660730071615
aI84
aI61
aI0
ag314
aa(lp660
F0.16105502490427
aI84
aI0
aI0
ag316
aa(lp661
F0.3378226131772
aI87
aI65
aI0
ag318
aa(lp662
F0.13633769613261
aI87
aI0
aI0
ag320
aa(lp663
F0.35588183683831
aI86
aI80
aI0
ag322
aa(lp664
F0.091151628612351
aI86
aI0
aI0
ag324
aa(lp665
F0.40983464961846
aI84
aI57
aI0
ag326
aa(lp666
F0.14619589207905
aI84
aI0
aI0
ag328
aa(lp667
F0.85628590371653
aI0
aI0
aI0
ag330
aaa(lp668
(lp669
F0.14633310238969
aI82
aI57
aI0
aS'on'
p670
aa(lp671
F0.20438429821752
aI82
aI0
aI0
aS'off'
p672
aa(lp673
F0.69803744394903
aI80
aI71
aI0
aS'on'
p674
aa(lp675
F0.15383565966386
aI80
aI0
aI0
aS'off'
p676
aa(lp677
F0.86976267797672
aI79
aI69
aI0
aS'on'
p678
aa(lp679
F0.15440152057454
aI79
aI0
aI0
aS'off'
p680
aa(lp681
F0.78642236744236
aI82
aI55
aI0
aS'on'
p682
aa(lp683
F0.15373136826292
aI82
aI0
aI0
aS'off'
p684
aa(lp685
F0.83539034832847
aI80
aI62
aI0
aS'on'
p686
aa(lp687
F0.083614712450071
aI80
aI0
aI0
aS'off'
p688
aa(lp689
F0.92296225135578
aI79
aI70
aI0
aS'on'
p690
aa(lp691
F0.085466628308495
aI79
aI0
aI0
aS'off'
p692
aa(lp693
F0.91784299856954
aI82
aI54
aI0
aS'on'
p694
aa(lp695
F0.086310390692233
aI82
aI0
aI0
aS'off'
p696
aa(lp697
F0.86995006755933
aI80
aI59
aI0
aS'on'
p698
aa(lp699
F0.085153535380414
aI80
aI0
aI0
aS'off'
p700
aa(lp701
F0.9583354709348
aI79
aI62
aI0
aS'on'
p702
aa(lp703
F0.22183272913026
aI79
aI0
aI0
aS'off'
p704
aa(lp705
F0.80074542857164
aI80
aI67
aI0
aS'on'
p706
aa(lp707
F0.18935590964793
aI80
aI0
aI0
aS'off'
p708
aa(lp709
F0.74952958882386
aI79
aI66
aI0
aS'on'
p710
aa(lp711
F0.23838305983463
aI79
aI0
aI0
aS'off'
p712
aa(lp713
F0.80387246325517
aI77
aI65
aI0
aS'on'
p714
aa(lp715
F0.20552435434456
aI77
aI0
aI0
aS'off'
p716
aa(lp717
F0.76751221486757
aI80
aI53
aI0
aS'on'
p718
aa(lp719
F0.22315490264918
aI80
aI0
aI0
aS'off'
p720
aa(lp721
F0.75026957233604
aI79
aI62
aI0
aS'on'
p722
aa(lp723
F0.22058538804504
aI79
aI0
aI0
aS'off'
p724
aa(lp725
F0.8351272873324
aI77
aI56
aI0
aS'on'
p726
aa(lp727
F0.23937682986252
aI77
aI0
aI0
aS'off'
p728
aa(lp729
F0.71645860836634
aI80
aI50
aI0
aS'on'
p730
aa(lp731
F0.23864669538671
aI80
aI0
aI0
aS'off'
p732
aa(lp733
F0.74910219223602
aI79
aI65
aI0
aS'on'
p734
aa(lp735
F0.25541529143993
aI79
aI0
aI0
aS'off'
p736
aa(lp737
F0.7528406996089
aI77
aI62
aI0
aS'on'
p738
aa(lp739
F0.27083104387202
aI77
aI0
aI0
aS'off'
p740
aa(lp741
F0.76539641535965
aI79
aI68
aI0
aS'on'
p742
aa(lp743
F0.24031590297182
aI79
aI0
aI0
aS'off'
p744
aa(lp745
F0.73763396089362
aI77
aI70
aI0
aS'on'
p746
aa(lp747
F0.22038892638011
aI77
aI0
aI0
aS'off'
p748
aa(lp749
F0.7341816958251
aI75
aI58
aI0
aS'on'
p750
aa(lp751
F0.1360642084428
aI75
aI0
aI0
aS'off'
p752
aa(lp753
F0.85373750949748
aI79
aI66
aI0
aS'on'
p754
aa(lp755
F0.23906338110646
aI79
aI0
aI0
aS'off'
p756
aa(lp757
F0.78441871048562
aI77
aI59
aI0
aS'on'
p758
aa(lp759
F0.18815567875299
aI77
aI0
aI0
aS'off'
p760
aa(lp761
F0.74999206913253
aI75
aI67
aI0
aS'on'
p762
aa(lp763
F0.084445632239294
aI75
aI0
aI0
aS'off'
p764
aa(lp765
F0.88942148787373
aI79
aI72
aI0
aS'on'
p766
aa(lp767
F0.23870542724126
aI79
aI0
aI0
aS'off'
p768
aa(lp769
F0.83404112505559
aI77
aI70
aI0
aS'on'
p770
aa(lp771
F0.29008175371837
aI77
aI0
aI0
aS'off'
p772
aa(lp773
F0.75070731743017
aI75
aI70
aI0
aS'on'
p774
aa(lp775
F0.24013042313163
aI75
aI0
aI0
aS'off'
p776
aa(lp777
F0.75068798498341
aI75
aI61
aI0
aS'on'
p778
aa(lp779
F0.23986225317094
aI75
aI0
aI0
aS'off'
p780
aa(lp781
F0.68195419325275
aI74
aI51
aI0
aS'on'
p782
aa(lp783
F0.18717435304916
aI74
aI0
aI0
aS'off'
p784
aa(lp785
F0.8541863212904
aI72
aI49
aI0
aS'on'
p786
aa(lp787
F0.084918496965656
aI72
aI0
aI0
aS'off'
p788
aa(lp789
F0.95669458626526
aI75
aI62
aI0
aS'on'
p790
aa(lp791
F0.25524617333667
aI75
aI0
aI0
aS'off'
p792
aa(lp793
F0.73583382347806
aI74
aI60
aI0
aS'on'
p794
aa(lp795
F0.18797779216766
aI74
aI0
aI0
aS'off'
p796
aa(lp797
F0.82119543239787
aI72
aI56
aI0
aS'on'
p798
aa(lp799
F0.082660808655419
aI72
aI0
aI0
aS'off'
p800
aa(lp801
F0.9574759670686
aI75
aI60
aI0
aS'on'
p802
aa(lp803
F0.25448286161281
aI75
aI0
aI0
aS'off'
p804
aa(lp805
F0.78303822949783
aI74
aI66
aI0
aS'on'
p806
aa(lp807
F0.20478132830522
aI74
aI0
aI0
aS'off'
p808
aa(lp809
F0.75309076784379
aI72
aI68
aI0
aS'on'
p810
aa(lp811
F0.18346959094833
aI72
aI0
aI0
aS'off'
p812
aa(lp813
F0.80788830850543
aI0
aI0
aI0
aS'timeAfterLastHit'
p814
aaaI0
aI0
aI0
aI0
aI0
aI0
aI0
aI0
aI0
aI0
aI0
aI0
aI0
aI0
aI0
aI0
aI0
aI0
aI0
aI0
aI0
aI0
aI0
aI0
aI0
aI0
aI0
aI0
aI0
aI0
aI0
aI0
aI0
aI0
aI0
aI0
aI0
aI0
aI0
aI0
aI0
aI0
aI0
aI0
aI0
aI0
aI0
aI0
aI0
aI0
aI0
aI0
aI0
aI0
aa(lp815
(dp816
a(dp817
a(dp818
g335
I32
sg336
I0
sa(dp819
g335
I33
sg336
I1
sa(dp820
a(dp821
a(dp822
a(dp823
a(dp824
a(dp825
a(dp826
g335
I42
sg336
I0
sa(dp827
g335
I43
sg336
I0
sa(dp828
a(dp829
a(dp830
a(dp831
a(dp832
a(dp833
g335
I51
sg336
I1
sa(dp834
a(dp835
a(dp836
a(dp837
a(dp838
g335
I56
sg336
I1
sa(dp839
g335
I57
sg336
I0
sa(dp840
a(dp841
a(dp842
a(dp843
a(dp844
a(dp845
a(dp846
a(dp847
a(dp848
a(dp849
g335
I71
sg336
I0
sa(dp850
g335
I72
sg336
I0
sa(dp851
a(dp852
a(dp853
a(dp854
a(dp855
a(dp856
a(dp857
a(dp858
a(dp859
a(dp860
g335
I84
sg336
I1
sa(dp861
g335
I85
sg336
I0
sa(dp862
a(dp863
a(dp864
a(dp865
a(dp866
a(dp867
a(dp868
a(dp869
a(dp870
a(dp871
a(dp872
a(dp873
a(dp874
a(dp875
a(dp876
a(dp877
a(dp878
a(dp879
a(dp880
a(dp881
a(dp882
a(dp883
a(dp884
a(dp885
a(dp886
a(dp887
a(dp888
a(dp889
a(dp890
a(dp891
a(dp892
a(dp893
a(dp894
a(dp895
a(dp896
a(dp897
a(dp898
a(dp899
a(dp900
a(dp901
a(dp902
a(dp903
a(dp904
a(dp905
a(dp906
a(dp907
a(dp908
a(dp909
a(dp910
a(dp911
a(dp912
a(dp913
a(dp914
a(dp915
aa(lp916
I60
aI60
aI36
aI36
aa(lp917
(lp918
I0
aI2
aI3
aI5
aI7
aI8
aI10
aa(lp919
I0
aI2
aI3
aI5
aI7
aI8
aI10
aa(lp920
I0
aI2
aI3
aI5
aI7
aI8
aI10
aa(lp921
I0
aI2
aI3
aI5
aI7
aI8
aI10
aa(lp922
I0
aI2
aI3
aI5
aI7
aI8
aI10
aa(lp923
I0
aI1
aI2
aI3
aI4
aI5
aI6
aI7
aI8
aI9
aI10
aI11
aaa(lp924
(lp925
(lp926
I0
aI0
aI0
aI0
aI0
aI0
aI0
aI0
aI0
aI0
aI0
aI0
aa(lp927
I0
aI0
aI0
aI0
aI0
aI0
aI0
aI0
aI0
aI0
aI0
aI0
aa(lp928
I0
aI0
aI0
aI0
aI0
aI0
aI0
aI0
aI0
aI0
aI0
aI0
aa(lp929
I0
aI0
aI0
aI0
aI0
aI0
aI0
aI0
aI0
aI0
aI0
aI0
aaa(lp930
(lp931
I0
aI0
aI0
aI0
aI0
aI0
aI0
aI0
aI0
aI0
aI0
aI0
aa(lp932
I0
aI0
aI0
aI0
aI0
aI0
aI0
aI0
aI0
aI0
aI0
aI0
aa(lp933
I0
aI0
aI0
aI0
aI0
aI0
aI0
aI0
aI0
aI0
aI0
aI0
aa(lp934
I0
aI0
aI0
aI0
aI0
aI0
aI0
aI0
aI0
aI0
aI0
aI0
aaa(lp935
(lp936
I0
aI0
aI0
aI0
aI0
aI0
aI0
aI0
aI0
aI0
aI0
aI0
aa(lp937
I0
aI0
aI0
aI0
aI0
aI0
aI0
aI0
aI0
aI0
aI0
aI0
aa(lp938
I0
aI0
aI0
aI0
aI0
aI0
aI0
aI0
aI0
aI0
aI0
aI0
aa(lp939
I0
aI0
aI0
aI0
aI0
aI0
aI0
aI0
aI0
aI0
aI0
aI0
aaa(lp940
(lp941
I0
aI0
aI0
aI0
aI0
aI0
aI0
aI0
aI0
aI0
aI0
aI0
aa(lp942
I0
aI0
aI0
aI0
aI0
aI0
aI0
aI0
aI0
aI0
aI0
aI0
aa(lp943
I0
aI0
aI0
aI0
aI0
aI0
aI0
aI0
aI0
aI0
aI0
aI0
aa(lp944
I0
aI0
aI0
aI0
aI0
aI0
aI0
aI0
aI0
aI0
aI0
aI0
aaaa(lp945
(lp946
I0
aI0
aI0
aI0
aI0
aI0
aI0
aI0
aI0
aI0
aI0
aI0
aa(lp947
I0
aI0
aI0
aI0
aI0
aI0
aI0
aI0
aI0
aI0
aI0
aI0
aa(lp948
I0
aI0
aI0
aI0
aI0
aI0
aI0
aI0
aI0
aI0
aI0
aI0
aa(lp949
I0
aI0
aI0
aI0
aI0
aI0
aI0
aI0
aI0
aI0
aI0
aI0
aaaa(lp950
(lp951
I0
aI0
a(lp952
(lp953
F0.5
aI42
aI94
aI3
ag5
aa(lp954
F0.074929492463525
aI42
aI0
aI3
ag7
aa(lp955
F0.92507050753647
aI42
aI106
aI3
ag9
aa(lp956
F0.10442552996483
aI42
aI0
aI3
ag11
aa(lp957
F2.3955744700352
aI42
aI92
aI3
ag13
aa(lp958
F0.075309503296012
aI42
aI0
aI3
ag15
aa(lp959
F0.92469049670399
aI42
aI101
aI3
ag17
aa(lp960
F0.073557600124332
aI42
aI0
aI3
ag19
aa(lp961
F0.92644239987567
aI0
aI0
aI0
ag21
aaa(lp962
(lp963
F4.0208790703982
aI46
aI99
aI3
ag482
aa(lp964
F0.59853009246035
aI46
aI0
aI3
ag484
aa(lp965
F0.88582225442406
aI46
aI111
aI3
ag486
aa(lp966
F0.37538136626972
aI46
aI0
aI3
ag488
aa(lp967
F5.9894758484106
aI46
aI104
aI3
ag490
aa(lp968
F0.68289384091713
aI46
aI0
aI3
ag492
aa(lp969
F0.85299046484397
aI46
aI106
aI3
ag494
aa(lp970
F0.80295583367115
aI46
aI0
aI3
ag496
aa(lp971
F0.79107122860478
aI0
aI0
aI0
ag498
aaaI0
a(lp972
(lp973
F0.0
aI36
aI115
aI3
aS'on'
p974
aa(lp975
F0.25767614740289
aI36
aI0
aI3
aS'off'
p976
aa(lp977
F1.2423238525971
aI36
aI120
aI3
aS'on'
p978
aa(lp979
F0.19102670321263
aI36
aI0
aI3
aS'off'
p980
aa(lp981
F1.3089732967874
aI36
aI115
aI3
aS'on'
p982
aa(lp983
F0.1919466817817
aI36
aI0
aI3
aS'off'
p984
aa(lp985
F0.8080533182183
aI36
aI115
aI3
aS'on'
p986
aa(lp987
F0.22310790751544
aI36
aI0
aI3
aS'off'
p988
aa(lp989
F0.77689209248456
aI36
aI115
aI3
aS'on'
p990
aa(lp991
F0.20764247012085
aI36
aI0
aI3
aS'off'
p992
aa(lp993
F0.79235752987915
aI36
aI122
aI3
aS'on'
p994
aa(lp995
F0.2223617191903
aI36
aI0
aI3
aS'off'
p996
aa(lp997
F1.2776382808097
aI36
aI122
aI3
aS'on'
p998
aa(lp999
F0.23711975343394
aI36
aI0
aI3
aS'off'
p1000
aa(lp1001
F1.2628802465661
aI36
aI120
aI3
aS'on'
p1002
aa(lp1003
F0.19047003724154
aI36
aI0
aI3
aS'off'
p1004
aa(lp1005
F0.80952996275846
aI36
aI118
aI3
aS'on'
p1006
aa(lp1007
F0.23933714431769
aI36
aI0
aI3
aS'off'
p1008
aa(lp1009
F0.76066285568231
aI0
aI0
aI0
aS'timeAfterLastHit'
p1010
aaaI0
aI0
aI0
aI0
a(lp1011
(lp1012
F0.0
aI36
aI118
aI3
ag24
aa(lp1013
F0.16243361854322
aI36
aI0
aI3
ag26
aa(lp1014
F1.3375663814568
aI36
aI118
aI3
ag28
aa(lp1015
F0.10232664180876
aI36
aI0
aI3
ag30
aa(lp1016
F1.3976733581912
aI36
aI118
aI3
ag32
aa(lp1017
F0.11707205950734
aI36
aI0
aI3
ag34
aa(lp1018
F0.88292794049266
aI36
aI115
aI3
ag36
aa(lp1019
F0.14899176432937
aI36
aI0
aI3
ag38
aa(lp1020
F0.85100823567063
aI36
aI118
aI3
ag40
aa(lp1021
F0.13280497978576
aI36
aI0
aI3
ag42
aa(lp1022
F0.86719502021424
aI0
aI0
aI0
ag44
aaa(lp1023
(lp1024
F0.46785272103307
aI38
aI118
aI3
ag47
aa(lp1025
F0.51662987817372
aI38
aI0
aI3
ag49
aa(lp1026
F3.4750702453798
aI38
aI118
aI3
ag51
aa(lp1027
F1.5304471554132
aI38
aI0
aI3
ag53
aa(lp1028
F0.010000000000218
aI0
aI0
aI0
ag55
aaaI0
aI0
aI0
a(lp1029
(lp1030
F0.0
aI67
aI59
aI1
aS'on'
p1031
aa(lp1032
F0.0
aI72
aI58
aI1
aS'on'
p1033
aa(lp1034
F0.11066790460245
aI67
aI0
aI1
aS'off'
p1035
aa(lp1036
F0.0001709093721729
aI72
aI0
aI1
aS'off'
p1037
aa(lp1038
F0.38916118602538
aI67
aI16
aI1
aS'on'
p1039
aa(lp1040
F0.0
aI72
aI24
aI1
aS'on'
p1041
aa(lp1042
F0.095473823368593
aI72
aI0
aI1
aS'off'
p1043
aa(lp1044
F2.9439097488648e-05
aI67
aI0
aI1
aS'off'
p1045
aa(lp1046
F0.40449673753392
aI67
aI6
aI1
aS'on'
p1047
aa(lp1048
F0.0
aI72
aI49
aI1
aS'on'
p1049
aa(lp1050
F0.078084898788802
aI67
aI0
aI1
aS'off'
p1051
aa(lp1052
F0.016233402797297
aI72
aI0
aI1
aS'off'
p1053
aa(lp1054
F0.57234836508057
aI67
aI4
aI1
aS'on'
p1055
aa(lp1056
F0.0
aI72
aI36
aI1
aS'on'
p1057
aa(lp1058
F0.095902071298042
aI72
aI0
aI1
aS'off'
p1059
aa(lp1060
F0.00027988610054308
aI67
aI0
aI1
aS'off'
p1061
aa(lp1062
F0.23715137593475
aI67
aI32
aI1
aS'on'
p1063
aa(lp1064
F0.0
aI72
aI35
aI1
aS'on'
p1065
aa(lp1066
F0.11195019995648
aI72
aI0
aI1
aS'off'
p1067
aa(lp1068
F1.3554716133513e-05
aI67
aI0
aI1
aS'off'
p1069
aa(lp1070
F0.38803624532738
aI67
aI31
aI1
aS'on'
p1071
aa(lp1072
F0.0
aI72
aI26
aI1
aS'on'
p1073
aa(lp1074
F0.095117164788462
aI67
aI0
aI1
aS'off'
p1075
aa(lp1076
F0.014446583423705
aI72
aI0
aI1
aS'off'
p1077
aa(lp1078
F0.39043625178783
aI67
aI45
aI1
aS'on'
p1079
aa(lp1080
F0.0
aI72
aI52
aI1
aS'on'
p1081
aa(lp1082
F0.095276185238617
aI67
aI0
aI1
aS'off'
p1083
aa(lp1084
F0.01698428700729
aI72
aI0
aI1
aS'off'
p1085
aa(lp1086
F0.38773952775409
aI72
aI52
aI1
aS'on'
p1087
aa(lp1088
F0.0
aI67
aI41
aI1
aS'on'
p1089
aa(lp1090
F0.11082436698416
aI72
aI0
aI1
aS'off'
p1091
aa(lp1092
F0.00069445750159502
aI67
aI0
aI1
aS'off'
p1093
aa(lp1094
F0.38848117551424
aI72
aI69
aI1
aS'on'
p1095
aa(lp1096
F0.0
aI67
aI21
aI1
aS'on'
p1097
aa(lp1098
F0.11224215465336
aI72
aI0
aI1
aS'off'
p1099
aa(lp1100
F0.00047421701310668
aI67
aI0
aI1
aS'off'
p1101
aa(lp1102
F0.38728362833353
aI67
aI44
aI1
aS'on'
p1103
aa(lp1104
F0.0
aI72
aI51
aI1
aS'on'
p1105
aa(lp1106
F0.095868807284205
aI67
aI0
aI1
aS'off'
p1107
aa(lp1108
F0.015956351891873
aI72
aI0
aI1
aS'off'
p1109
aa(lp1110
F0.38817484082392
aI67
aI44
aI1
aS'on'
p1111
aa(lp1112
F0.0
aI72
aI59
aI1
aS'on'
p1113
aa(lp1114
F0.093761726971934
aI67
aI0
aI1
aS'off'
p1115
aa(lp1116
F0.031736733095386
aI72
aI0
aI1
aS'off'
p1117
aa(lp1118
F0.37450153993268
aI67
aI54
aI1
aS'on'
p1119
aa(lp1120
F0.0
aI72
aI48
aI1
aS'on'
p1121
aa(lp1122
F0.11127580501488
aI67
aI0
aI1
aS'off'
p1123
aa(lp1124
F3.153427678626e-05
aI72
aI0
aI1
aS'off'
p1125
aa(lp1126
F0.38869266070833
aI67
aI43
aI1
aS'on'
p1127
aa(lp1128
F0.0
aI72
aI55
aI1
aS'on'
p1129
aa(lp1130
F0.11172791910576
aI72
aI0
aI1
aS'off'
p1131
aa(lp1132
F5.6917015172075e-06
aI67
aI0
aI1
aS'off'
p1133
aa(lp1134
F0.38826638919272
aI67
aI49
aI1
aS'on'
p1135
aa(lp1136
F0.0
aI72
aI54
aI1
aS'on'
p1137
aa(lp1138
F0.11031163277949
aI67
aI0
aI1
aS'off'
p1139
aa(lp1140
F3.1494688300882e-05
aI72
aI0
aI1
aS'off'
p1141
aa(lp1142
F0.38965687253221
aI67
aI24
aI1
aS'on'
p1143
aa(lp1144
F0.0
aI72
aI51
aI1
aS'on'
p1145
aa(lp1146
F0.095293108073747
aI67
aI0
aI1
aS'off'
p1147
aa(lp1148
F0.015909691517663
aI72
aI0
aI1
aS'off'
p1149
aa(lp1150
F0.38879720040859
aI67
aI53
aI1
aS'on'
p1151
aa(lp1152
F0.0
aI72
aI59
aI1
aS'on'
p1153
aa(lp1154
F0.11037396436041
aI67
aI0
aI1
aS'off'
p1155
aa(lp1156
F0.01689221180095
aI72
aI0
aI1
aS'off'
p1157
aa(lp1158
F0.53940049050531
aI67
aI33
aI1
aS'on'
p1159
aa(lp1160
F0.0
aI72
aI43
aI1
aS'on'
p1161
aa(lp1162
F0.096202927461491
aI67
aI0
aI1
aS'off'
p1163
aa(lp1164
F0.031179074347165
aI72
aI0
aI1
aS'off'
p1165
aa(lp1166
F0.37261799819134
aI72
aI56
aI1
aS'on'
p1167
aa(lp1168
F0.0
aI67
aI48
aI1
aS'on'
p1169
aa(lp1170
F0.11245593906642
aI67
aI0
aI1
aS'off'
p1171
aa(lp1172
F0.014870790209898
aI72
aI0
aI1
aS'off'
p1173
aa(lp1174
F0.37267327072368
aI67
aI39
aI1
aS'on'
p1175
aa(lp1176
F0.0
aI72
aI63
aI1
aS'on'
p1177
aa(lp1178
F0.1117325419018
aI72
aI0
aI1
aS'off'
p1179
aa(lp1180
F2.1786208890262e-05
aI67
aI0
aI1
aS'off'
p1181
aa(lp1182
F0.38824567188931
aI67
aI32
aI1
aS'on'
p1183
aa(lp1184
F0.0
aI72
aI53
aI1
aS'on'
p1185
aa(lp1186
F0.094894789535829
aI67
aI0
aI1
aS'off'
p1187
aa(lp1188
F0.033076268249715
aI72
aI0
aI1
aS'off'
p1189
aa(lp1190
F0.37202894221446
aI67
aI16
aI1
aS'on'
p1191
aa(lp1192
F0.0
aI72
aI56
aI1
aS'on'
p1193
aa(lp1194
F0.11117324173028
aI72
aI0
aI1
aS'off'
p1195
aa(lp1196
F3.4189793950645e-05
aI67
aI0
aI1
aS'off'
p1197
aa(lp1198
F0.2221259018091
aI67
aI69
aI1
aS'on'
p1199
aa(lp1200
F0.0
aI72
aI67
aI1
aS'on'
p1201
aa(lp1202
F0.11024753796119
aI67
aI0
aI1
aS'off'
p1203
aa(lp1204
F0.063729011048054
aI72
aI0
aI1
aS'off'
p1205
aa(lp1206
F0.32602345099076
aI65
aI26
aI1
aS'on'
p1207
aa(lp1208
F0.0
aI70
aI72
aI1
aS'on'
p1209
aa(lp1210
F0.095387586037759
aI65
aI0
aI1
aS'off'
p1211
aa(lp1212
F0.09378480135274
aI70
aI0
aI1
aS'off'
p1213
aa(lp1214
F0.3108276126095
aI65
aI29
aI1
aS'on'
p1215
aa(lp1216
F0.0
aI70
aI72
aI1
aS'on'
p1217
aa(lp1218
F0.093871294491692
aI65
aI0
aI1
aS'off'
p1219
aa(lp1220
F0.07968307590636
aI70
aI0
aI1
aS'off'
p1221
aa(lp1222
F0.15977896293528
aI65
aI13
aI1
aS'on'
p1223
aa(lp1224
F0.11121011444629
aI65
aI0
aI1
aS'off'
p1225
aa(lp1226
F0.055456552220372
aI70
aI73
aI1
aS'on'
p1227
aa(lp1228
F0.22357237951292
aI70
aI0
aI1
aS'off'
p1229
aa(lp1230
F0.27642762048708
aI70
aI62
aI1
aS'on'
p1231
aa(lp1232
F0.0
aI65
aI8
aI1
aS'on'
p1233
aa(lp1234
F0.14344063986209
aI65
aI0
aI1
aS'off'
p1235
aa(lp1236
F0.032881383087442
aI70
aI0
aI1
aS'off'
p1237
aa(lp1238
F0.32367797705047
aI65
aI23
aI1
aS'on'
p1239
aa(lp1240
F0.0
aI70
aI67
aI1
aS'on'
p1241
aa(lp1242
F0.12550722144806
aI65
aI0
aI1
aS'off'
p1243
aa(lp1244
F0.032780351599285
aI70
aI0
aI1
aS'off'
p1245
aa(lp1246
F0.34171242695265
aI70
aI62
aI1
aS'on'
p1247
aa(lp1248
F0.0
aI65
aI7
aI1
aS'on'
p1249
aa(lp1250
F0.0800156551486
aI70
aI0
aI1
aS'off'
p1251
aa(lp1252
F0.030909965633327
aI65
aI0
aI1
aS'off'
p1253
aa(lp1254
F0.22240771255141
aI65
aI3
aI1
aS'on'
p1255
aa(lp1256
F0.095383989519178
aI65
aI0
aI1
aS'off'
p1257
aa(lp1258
F0.071282677147488
aI70
aI65
aI1
aS'on'
p1259
aa(lp1260
F0.14339118388853
aI70
aI0
aI1
aS'off'
p1261
aa(lp1262
F0.18994214944481
aI70
aI54
aI1
aS'on'
p1263
aa(lp1264
F0.0
aI65
aI3
aI1
aS'on'
p1265
aa(lp1266
F0.160119347418
aI70
aI0
aI1
aS'off'
p1267
aa(lp1268
F0.031621349013221
aI65
aI0
aI1
aS'off'
p1269
aa(lp1270
F0.47492597023544
aI65
aI25
aI1
aS'on'
p1271
aa(lp1272
F0.0
aI70
aI65
aI1
aS'on'
p1273
aa(lp1274
F0.095530776918167
aI65
aI0
aI1
aS'off'
p1275
aa(lp1276
F0.06293331802226
aI70
aI0
aI1
aS'off'
p1277
aa(lp1278
F0.34153590505957
aI70
aI64
aI1
aS'on'
p1279
aa(lp1280
F0.0
aI65
aI20
aI1
aS'on'
p1281
aa(lp1282
F0.11147835829252
aI65
aI0
aI1
aS'off'
p1283
aa(lp1284
F0.063373062024766
aI70
aI0
aI1
aS'off'
p1285
aa(lp1286
F0.32514857968272
aI65
aI23
aI1
aS'on'
p1287
aa(lp1288
F0.0
aI70
aI63
aI1
aS'on'
p1289
aa(lp1290
F0.11021539157809
aI65
aI0
aI1
aS'off'
p1291
aa(lp1292
F0.079559448149666
aI70
aI0
aI1
aS'off'
p1293
aa(lp1294
F0.31022516027224
aI70
aI62
aI1
aS'on'
p1295
aa(lp1296
F0.0
aI65
aI7
aI1
aS'on'
p1297
aa(lp1298
F0.12668525118352
aI65
aI0
aI1
aS'off'
p1299
aa(lp1300
F0.048937530069452
aI70
aI0
aI1
aS'off'
p1301
aa(lp1302
F0.32437721874703
aI65
aI9
aI1
aS'on'
p1303
aa(lp1304
F0.0
aI70
aI68
aI1
aS'on'
p1305
aa(lp1306
F0.080206715394525
aI65
aI0
aI1
aS'off'
p1307
aa(lp1308
F0.11205398137099
aI70
aI0
aI1
aS'off'
p1309
aa(lp1310
F0.14107263656782
aI65
aI19
aI1
aS'on'
p1311
aa(lp1312
F0.16666666666667
aI70
aI65
aI1
aS'on'
p1313
aa(lp1314
F0.0061245468871967
aI65
aI0
aI1
aS'off'
p1315
aa(lp1316
F0.20025586402577
aI70
aI0
aI1
aS'off'
p1317
aa(lp1318
F0.29361958908703
aI65
aI5
aI1
aS'on'
p1319
aa(lp1320
F0.0
aI70
aI60
aI1
aS'on'
p1321
aa(lp1322
F0.078845339208783
aI65
aI0
aI1
aS'off'
p1323
aa(lp1324
F0.063456847879934
aI70
aI0
aI1
aS'off'
p1325
aa(lp1326
F0.35769781291128
aI65
aI21
aI1
aS'on'
p1327
aa(lp1328
F0.0
aI70
aI67
aI1
aS'on'
p1329
aa(lp1330
F0.11097128837901
aI65
aI0
aI1
aS'off'
p1331
aa(lp1332
F0.063769970585781
aI70
aI0
aI1
aS'off'
p1333
aa(lp1334
F0.32525874103521
aI65
aI32
aI1
aS'on'
p1335
aa(lp1336
F0.0
aI70
aI68
aI1
aS'on'
p1337
aa(lp1338
F0.097250657147015
aI65
aI0
aI1
aS'off'
p1339
aa(lp1340
F0.061555670697999
aI70
aI0
aI1
aS'off'
p1341
aa(lp1342
F0.34119367215499
aI70
aI67
aI1
aS'on'
p1343
aa(lp1344
F0.0
aI65
aI18
aI1
aS'on'
p1345
aa(lp1346
F0.11156916969594
aI65
aI0
aI1
aS'off'
p1347
aa(lp1348
F0.09542508913546
aI70
aI0
aI1
aS'off'
p1349
aa(lp1350
F0.2930057411686
aI65
aI48
aI1
aS'on'
p1351
aa(lp1352
F0.0
aI70
aI75
aI1
aS'on'
p1353
aa(lp1354
F0.14272741101558
aI65
aI0
aI1
aS'off'
p1355
aa(lp1356
F0.064224466115775
aI70
aI0
aI1
aS'off'
p1357
aa(lp1358
F0.29304812286864
aI65
aI14
aI1
aS'on'
p1359
aa(lp1360
F0.0
aI70
aI70
aI1
aS'on'
p1361
aa(lp1362
F0.09564417240108
aI65
aI0
aI1
aS'off'
p1363
aa(lp1364
F0.096067760996448
aI70
aI0
aI1
aS'off'
p1365
aa(lp1366
F0.47495473326914
aI70
aI43
aI1
aS'on'
p1367
aa(lp1368
F0.095699478433744
aI70
aI0
aI1
aS'off'
p1369
aa(lp1370
F0.23763385489959
aI70
aI72
aI1
aS'on'
p1371
aa(lp1372
F0.0
aI65
aI61
aI1
aS'on'
p1373
aa(lp1374
F0.23807061153275
aI65
aI0
aI1
aS'off'
p1375
aa(lp1376
F0.031420775196239
aI70
aI0
aI1
aS'off'
p1377
aa(lp1378
F0.23050861327101
aI0
aI0
aI0
aS'timeAfterLastHit'
p1379
aaaI0
a(lp1380
(lp1381
F0.014832466840744
aI67
aI66
aI0
ag58
aa(lp1382
F0.013913869857788
aI62
aI52
aI0
ag60
aa(lp1383
F0.016811100772429
aI67
aI0
aI0
ag62
aa(lp1384
F0.00021998017109581
aI62
aI0
aI0
ag64
aa(lp1385
F0.43989559138845
aI67
aI70
aI0
ag66
aa(lp1386
F0.00024274884162878
aI62
aI65
aI0
ag68
aa(lp1387
F0.095324874589096
aI67
aI0
aI0
ag70
aa(lp1388
F0.011423665227085
aI62
aI0
aI0
ag72
aa(lp1389
F0.93008304143132
aI65
aI71
aI0
ag74
aa(lp1390
F0.00027249030245002
aI60
aI47
aI0
ag76
aa(lp1391
F0.16435200587875
aI60
aI0
aI0
ag78
aa(lp1392
F0.012022393293591
aI65
aI0
aI0
ag80
aa(lp1393
F0.33307050126041
aI60
aI50
aI0
ag82
aa(lp1394
F0.011624417812527
aI65
aI73
aI0
ag84
aa(lp1395
F0.14341750120457
aI60
aI0
aI0
ag86
aa(lp1396
F0.048100923324455
aI65
aI0
aI0
ag88
aa(lp1397
F0.82397865536495
aI58
aI53
aI0
ag90
aa(lp1398
F0.011256142776801
aI63
aI66
aI0
ag92
aa(lp1399
F0.14338113786926
aI63
aI0
aI0
ag94
aa(lp1400
F0.011533876345311
aI58
aI0
aI0
ag96
aa(lp1401
F0.36812748091324
aI58
aI67
aI0
ag98
aa(lp1402
F0.011445255813669
aI63
aI72
aI0
ag100
aa(lp1403
F0.14308612499553
aI63
aI0
aI0
ag102
aa(lp1404
F0.011824012823126
aI58
aI0
aI0
ag104
aa(lp1405
F0.83501957587669
aI62
aI82
aI0
ag106
aa(lp1406
F0.00013306865730556
aI56
aI52
aI0
ag108
aa(lp1407
F0.095743406131078
aI56
aI0
aI0
ag110
aa(lp1408
F0.048040788697108
aI62
aI0
aI0
ag112
aa(lp1409
F0.39486497947109
aI55
aI65
aI0
ag114
aa(lp1410
F0.0098971389215876
aI60
aI92
aI0
ag116
aa(lp1411
F0.16675434667104
aI55
aI0
aI0
ag118
aa(lp1412
F0.024934218522503
aI60
aI0
aI0
ag120
aa(lp1413
F0.75087562450881
aI56
aI33
aI0
ag122
aa(lp1414
F0.011462886037407
aI62
aI70
aI0
ag124
aa(lp1415
F0.072717134712548
aI56
aI0
aI0
ag126
aa(lp1416
F0.035189948046536
aI62
aI0
aI0
ag128
aa(lp1417
F0.44066407046193
aI63
aI89
aI0
ag130
aa(lp1418
F0.00011490977794892
aI58
aI62
aI0
ag132
aa(lp1419
F0.094775400406434
aI58
aI0
aI0
ag134
aa(lp1420
F0.048589809420264
aI63
aI0
aI0
ag136
aa(lp1421
F0.79590854929484
aI56
aI7
aI0
ag138
aa(lp1422
F0.011707075011145
aI62
aI65
aI0
ag140
aa(lp1423
F0.047883798351904
aI56
aI0
aI0
ag142
aa(lp1424
F0.037499117763218
aI62
aI0
aI0
ag144
aa(lp1425
F0.438898591613
aI60
aI89
aI0
ag146
aa(lp1426
F0.00012322015845712
aI55
aI71
aI0
ag148
aa(lp1427
F0.14289366000503
aI60
aI0
aI0
ag150
aa(lp1428
F0.036084502478843
aI55
aI0
aI0
ag152
aa(lp1429
F0.66604946982625
aI56
aI17
aI0
ag154
aa(lp1430
F0.011583061868805
aI62
aI61
aI0
ag156
aa(lp1431
F0.071322223259813
aI56
aI0
aI0
ag158
aa(lp1432
F0.023835352190872
aI62
aI0
aI0
ag160
aa(lp1433
F0.51611014831906
aI63
aI73
aI0
ag162
aa(lp1434
F0.00016582026910328
aI58
aI45
aI0
ag164
aa(lp1435
F0.09415810329574
aI63
aI0
aI0
ag166
aa(lp1436
F0.0001268273254027
aI58
aI0
aI0
ag168
aa(lp1437
F0.8915941655705
aI56
aI35
aI0
ag170
aa(lp1438
F0.010968788580612
aI62
aI66
aI0
ag172
aa(lp1439
F0.047812304453146
aI56
aI0
aI0
ag174
aa(lp1440
F0.036385592618899
aI62
aI0
aI0
ag176
aa(lp1441
F0.40569955321371
aI60
aI89
aI0
ag178
aa(lp1442
F0.00022373089450411
aI55
aI60
aI0
ag180
aa(lp1443
F0.094274464599948
aI55
aI0
aI0
ag182
aa(lp1444
F0.047769649657312
aI60
aI0
aI0
ag184
aa(lp1445
F0.75053492390089
aI56
aI42
aI0
ag186
aa(lp1446
F0.010813338630214
aI62
aI71
aI0
ag188
aa(lp1447
F0.083084052912454
aI56
aI0
aI0
ag190
aa(lp1448
F0.011519835057697
aI62
aI0
aI0
ag192
aa(lp1449
F0.92495251346008
aI0
aI0
aI0
ag194
aaaI0
aI0
aI0
aI0
a(lp1450
(lp1451
F0.017504188183921
aI75
aI99
aI1
ag197
aa(lp1452
F10.067422579565
aI74
aI80
aI1
ag199
aa(lp1453
F0.064917689352114
aI75
aI0
aI1
ag201
aa(lp1454
F9.5862558892895
aI74
aI0
aI1
ag203
aa(lp1455
F0.24513131845379
aI70
aI80
aI1
ag205
aa(lp1456
F1.8279867239717
aI70
aI0
aI1
ag207
aa(lp1457
F0.032075822438856
aI72
aI65
aI1
ag209
aa(lp1458
F20.148705788745
aI72
aI0
aI1
ag211
aa(lp1459
F0.010000000000218
aI0
aI0
aI0
ag213
aaa(lp1460
(lp1461
F0.206485498029
aI70
aI89
aI1
ag599
aa(lp1462
F11.508327445203
aI70
aI0
aI1
ag601
aa(lp1463
F0.23987746580133
aI68
aI92
aI1
ag603
aa(lp1464
F11.42782381376
aI68
aI0
aI1
ag605
aa(lp1465
F0.61748577720664
aI0
aI0
aI0
ag607
aaaI0
aI0
aI0
aI0
aI0
aI0
aI0
aI0
aI0
a(lp1466
(lp1467
F0.020744218751133
aI36
aI94
aI2
ag216
aa(lp1468
F0.48541431308695
aI38
aI67
aI2
ag218
aa(lp1469
F0.43889472043884
aI39
aI65
aI2
ag220
aa(lp1470
F0.13220056327373
aI38
aI0
aI2
ag222
aa(lp1471
F0.39983480405954
aI39
aI0
aI2
ag224
aa(lp1472
F0.49598892778067
aI38
aI87
aI2
ag226
aa(lp1473
F0.48595741123609
aI38
aI0
aI2
ag228
aa(lp1474
F0.52352033384886
aI43
aI104
aI2
ag230
aa(lp1475
F0.02863457150761
aI36
aI0
aI2
ag232
aa(lp1476
F0.4574541407228
aI41
aI89
aI2
ag234
aa(lp1477
F0.4282299338447
aI46
aI73
aI2
ag236
aa(lp1478
F0.095602148593571
aI43
aI0
aI2
ag238
aa(lp1479
F0.01840528496723
aI41
aI0
aI2
ag240
aa(lp1480
F0.40049521854598
aI48
aI99
aI2
ag242
aa(lp1481
F0.27705164698909
aI46
aI0
aI2
ag244
aa(lp1482
F0.17085696768027
aI48
aI0
aI2
ag246
aa(lp1483
F0.14071479467293
aI0
aI0
aI0
ag248
aaa(lp1484
(lp1485
F0.036873866329188
aI38
aI99
aI2
aS'on'
p1486
aa(lp1487
F1.2774427138011
aI38
aI0
aI2
aS'off'
p1488
aa(lp1489
F0.33042750101595
aI36
aI70
aI2
aS'on'
p1490
aa(lp1491
F1.3682066354959
aI36
aI0
aI2
aS'off'
p1492
aa(lp1493
F0.12146981493061
aI34
aI69
aI2
aS'on'
p1494
aa(lp1495
F1.2961128056268
aI34
aI0
aI2
aS'off'
p1496
aa(lp1497
F0.15104811982019
aI36
aI99
aI2
aS'on'
p1498
aa(lp1499
F1.0225095017813
aI36
aI0
aI2
aS'off'
p1500
aa(lp1501
F0.54406905130054
aI36
aI94
aI2
aS'on'
p1502
aa(lp1503
F0.40892770351638
aI38
aI14
aI2
aS'on'
p1504
aa(lp1505
F0.37747274093272
aI39
aI64
aI2
aS'on'
p1506
aa(lp1507
F0.012149139687608
aI36
aI0
aI2
aS'off'
p1508
aa(lp1509
F0.28698190528848
aI38
aI0
aI2
aS'off'
p1510
aa(lp1511
F0.37706188646371
aI38
aI111
aI2
aS'on'
p1512
aa(lp1513
F0.19499991758494
aI39
aI0
aI2
aS'off'
p1514
aa(lp1515
F0.51552354301384
aI38
aI0
aI2
aS'off'
p1516
aa(lp1517
F0.20898920365653
aI36
aI66
aI2
aS'on'
p1518
aa(lp1519
F0.52666624577614
aI34
aI85
aI2
aS'on'
p1520
aa(lp1521
F0.045420947426464
aI36
aI0
aI2
aS'off'
p1522
aa(lp1523
F0.75236482806577
aI34
aI0
aI2
aS'off'
p1524
aa(lp1525
F0.15149852676586
aI36
aI115
aI2
aS'on'
p1526
aa(lp1527
F0.60311532942069
aI36
aI0
aI2
aS'off'
p1528
aa(lp1529
F0.39066807229938
aI0
aI0
aI0
aS'timeAfterLastHit'
p1530
aaaI0
aI0
aI0
aI0
aI0
aI0
aI0
aI0
aI0
a(lp1531
(lp1532
F0.048768087979624
aI87
aI70
aI0
ag270
aa(lp1533
F0.11828090437939
aI87
aI0
aI0
ag272
aa(lp1534
F0.36409440347688
aI86
aI70
aI0
ag274
aa(lp1535
F0.090770070120925
aI86
aI0
aI0
ag276
aa(lp1536
F0.35517701416848
aI84
aI64
aI0
ag278
aa(lp1537
F0.11846812641488
aI84
aI0
aI0
ag280
aa(lp1538
F0.38273667834528
aI87
aI50
aI0
ag282
aa(lp1539
F0.091447962245184
aI87
aI0
aI0
ag284
aa(lp1540
F0.40896656486893
aI86
aI56
aI0
ag286
aa(lp1541
F0.09985490892268
aI86
aI0
aI0
ag288
aa(lp1542
F0.40048554698751
aI84
aI43
aI0
ag290
aa(lp1543
F0.1187316092437
aI84
aI0
aI0
ag292
aa(lp1544
F0.41043189131142
aI87
aI63
aI0
ag294
aa(lp1545
F0.12701585179002
aI87
aI0
aI0
ag296
aa(lp1546
F0.40006605596409
aI86
aI59
aI0
ag298
aa(lp1547
F0.072786601695043
aI86
aI0
aI0
ag300
aa(lp1548
F0.37340587691051
aI84
aI75
aI0
ag302
aa(lp1549
F0.14606526637817
aI84
aI0
aI0
ag304
aa(lp1550
F0.37356977878062
aI87
aI63
aI0
ag306
aa(lp1551
F0.11835866789988
aI87
aI0
aI0
ag308
aa(lp1552
F0.38301852164295
aI86
aI68
aI0
ag310
aa(lp1553
F0.13686135823355
aI86
aI0
aI0
ag312
aa(lp1554
F0.3660730071615
aI84
aI61
aI0
ag314
aa(lp1555
F0.16105502490427
aI84
aI0
aI0
ag316
aa(lp1556
F0.3378226131772
aI87
aI65
aI0
ag318
aa(lp1557
F0.13633769613261
aI87
aI0
aI0
ag320
aa(lp1558
F0.35588183683831
aI86
aI80
aI0
ag322
aa(lp1559
F0.091151628612351
aI86
aI0
aI0
ag324
aa(lp1560
F0.40983464961846
aI84
aI57
aI0
ag326
aa(lp1561
F0.14619589207905
aI84
aI0
aI0
ag328
aa(lp1562
F0.85628590371653
aI0
aI0
aI0
ag330
aaa(lp1563
(lp1564
F0.14633310238969
aI82
aI57
aI0
ag670
aa(lp1565
F0.20438429821752
aI82
aI0
aI0
ag672
aa(lp1566
F0.69803744394903
aI80
aI71
aI0
ag674
aa(lp1567
F0.15383565966386
aI80
aI0
aI0
ag676
aa(lp1568
F0.86976267797672
aI79
aI69
aI0
ag678
aa(lp1569
F0.15440152057454
aI79
aI0
aI0
ag680
aa(lp1570
F0.78642236744236
aI82
aI55
aI0
ag682
aa(lp1571
F0.15373136826292
aI82
aI0
aI0
ag684
aa(lp1572
F0.83539034832847
aI80
aI62
aI0
ag686
aa(lp1573
F0.083614712450071
aI80
aI0
aI0
ag688
aa(lp1574
F0.92296225135578
aI79
aI70
aI0
ag690
aa(lp1575
F0.085466628308495
aI79
aI0
aI0
ag692
aa(lp1576
F0.91784299856954
aI82
aI54
aI0
ag694
aa(lp1577
F0.086310390692233
aI82
aI0
aI0
ag696
aa(lp1578
F0.86995006755933
aI80
aI59
aI0
ag698
aa(lp1579
F0.085153535380414
aI80
aI0
aI0
ag700
aa(lp1580
F0.9583354709348
aI79
aI62
aI0
ag702
aa(lp1581
F0.22183272913026
aI79
aI0
aI0
ag704
aa(lp1582
F0.80074542857164
aI80
aI67
aI0
ag706
aa(lp1583
F0.18935590964793
aI80
aI0
aI0
ag708
aa(lp1584
F0.74952958882386
aI79
aI66
aI0
ag710
aa(lp1585
F0.23838305983463
aI79
aI0
aI0
ag712
aa(lp1586
F0.80387246325517
aI77
aI65
aI0
ag714
aa(lp1587
F0.20552435434456
aI77
aI0
aI0
ag716
aa(lp1588
F0.76751221486757
aI80
aI53
aI0
ag718
aa(lp1589
F0.22315490264918
aI80
aI0
aI0
ag720
aa(lp1590
F0.75026957233604
aI79
aI62
aI0
ag722
aa(lp1591
F0.22058538804504
aI79
aI0
aI0
ag724
aa(lp1592
F0.8351272873324
aI77
aI56
aI0
ag726
aa(lp1593
F0.23937682986252
aI77
aI0
aI0
ag728
aa(lp1594
F0.71645860836634
aI80
aI50
aI0
ag730
aa(lp1595
F0.23864669538671
aI80
aI0
aI0
ag732
aa(lp1596
F0.74910219223602
aI79
aI65
aI0
ag734
aa(lp1597
F0.25541529143993
aI79
aI0
aI0
ag736
aa(lp1598
F0.7528406996089
aI77
aI62
aI0
ag738
aa(lp1599
F0.27083104387202
aI77
aI0
aI0
ag740
aa(lp1600
F0.76539641535965
aI79
aI68
aI0
ag742
aa(lp1601
F0.24031590297182
aI79
aI0
aI0
ag744
aa(lp1602
F0.73763396089362
aI77
aI70
aI0
ag746
aa(lp1603
F0.22038892638011
aI77
aI0
aI0
ag748
aa(lp1604
F0.7341816958251
aI75
aI58
aI0
ag750
aa(lp1605
F0.1360642084428
aI75
aI0
aI0
ag752
aa(lp1606
F0.85373750949748
aI79
aI66
aI0
ag754
aa(lp1607
F0.23906338110646
aI79
aI0
aI0
ag756
aa(lp1608
F0.78441871048562
aI77
aI59
aI0
ag758
aa(lp1609
F0.18815567875299
aI77
aI0
aI0
ag760
aa(lp1610
F0.74999206913253
aI75
aI67
aI0
ag762
aa(lp1611
F0.084445632239294
aI75
aI0
aI0
ag764
aa(lp1612
F0.88942148787373
aI79
aI72
aI0
ag766
aa(lp1613
F0.23870542724126
aI79
aI0
aI0
ag768
aa(lp1614
F0.83404112505559
aI77
aI70
aI0
ag770
aa(lp1615
F0.29008175371837
aI77
aI0
aI0
ag772
aa(lp1616
F0.75070731743017
aI75
aI70
aI0
ag774
aa(lp1617
F0.24013042313163
aI75
aI0
aI0
ag776
aa(lp1618
F0.75068798498341
aI75
aI61
aI0
ag778
aa(lp1619
F0.23986225317094
aI75
aI0
aI0
ag780
aa(lp1620
F0.68195419325275
aI74
aI51
aI0
ag782
aa(lp1621
F0.18717435304916
aI74
aI0
aI0
ag784
aa(lp1622
F0.8541863212904
aI72
aI49
aI0
ag786
aa(lp1623
F0.084918496965656
aI72
aI0
aI0
ag788
aa(lp1624
F0.95669458626526
aI75
aI62
aI0
ag790
aa(lp1625
F0.25524617333667
aI75
aI0
aI0
ag792
aa(lp1626
F0.73583382347806
aI74
aI60
aI0
ag794
aa(lp1627
F0.18797779216766
aI74
aI0
aI0
ag796
aa(lp1628
F0.82119543239787
aI72
aI56
aI0
ag798
aa(lp1629
F0.082660808655419
aI72
aI0
aI0
ag800
aa(lp1630
F0.9574759670686
aI75
aI60
aI0
ag802
aa(lp1631
F0.25448286161281
aI75
aI0
aI0
ag804
aa(lp1632
F0.78303822949783
aI74
aI66
aI0
ag806
aa(lp1633
F0.20478132830522
aI74
aI0
aI0
ag808
aa(lp1634
F0.75309076784379
aI72
aI68
aI0
ag810
aa(lp1635
F0.18346959094833
aI72
aI0
aI0
ag812
aa(lp1636
F0.80788830850543
aI0
aI0
aI0
ag814
aaaI0
aI0
aI0
aI0
aI0
aI0
aI0
aI0
aI0
aI0
aI0
aI0
aI0
aI0
aI0
aI0
aI0
aI0
aI0
aI0
aI0
aI0
aI0
aI0
aI0
aI0
aI0
aI0
aI0
aI0
aI0
aI0
aI0
aI0
aI0
aI0
aI0
aI0
aI0
aI0
aI0
aI0
aI0
aI0
aI0
aI0
aI0
aI0
aI0
aI0
aI0
aI0
aI0
aI0
aa(lp1637
(dp1638
a(dp1639
a(dp1640
g335
I32
sg336
I0
sa(dp1641
g335
I33
sg336
I0
sa(dp1642
a(dp1643
g335
I35
sg336
I1
sa(dp1644
a(dp1645
a(dp1646
a(dp1647
a(dp1648
g335
I42
sg336
I0
sa(dp1649
g335
I43
sg336
I1
sa(dp1650
a(dp1651
a(dp1652
a(dp1653
g335
I47
sg336
I01
sa(dp1654
a(dp1655
g335
I51
sg336
I0
sa(dp1656
a(dp1657
a(dp1658
a(dp1659
a(dp1660
g335
I56
sg336
I0
sa(dp1661
g335
I57
sg336
I0
sa(dp1662
a(dp1663
a(dp1664
a(dp1665
a(dp1666
a(dp1667
a(dp1668
a(dp1669
a(dp1670
a(dp1671
g335
I71
sg336
I0
sa(dp1672
g335
I72
sg336
I1
sa(dp1673
a(dp1674
a(dp1675
a(dp1676
a(dp1677
a(dp1678
a(dp1679
a(dp1680
a(dp1681
a(dp1682
g335
I84
sg336
I1
sa(dp1683
g335
I85
sg336
I1
sa(dp1684
a(dp1685
a(dp1686
a(dp1687
a(dp1688
a(dp1689
a(dp1690
a(dp1691
a(dp1692
a(dp1693
a(dp1694
a(dp1695
a(dp1696
a(dp1697
a(dp1698
a(dp1699
a(dp1700
a(dp1701
a(dp1702
a(dp1703
a(dp1704
a(dp1705
a(dp1706
a(dp1707
a(dp1708
a(dp1709
a(dp1710
a(dp1711
a(dp1712
a(dp1713
a(dp1714
a(dp1715
a(dp1716
a(dp1717
a(dp1718
a(dp1719
a(dp1720
a(dp1721
a(dp1722
a(dp1723
a(dp1724
a(dp1725
a(dp1726
a(dp1727
a(dp1728
a(dp1729
a(dp1730
a(dp1731
a(dp1732
a(dp1733
a(dp1734
a(dp1735
a(dp1736
a(dp1737
aa(lp1738
I60
aI60
aI36
aI36
aa(lp1739
(lp1740
I0
aI2
aI3
aI5
aI7
aI8
aI10
aa(lp1741
I0
aI2
aI3
aI5
aI7
aI8
aI10
aa(lp1742
I0
aI2
aI3
aI5
aI7
aI8
aI10
aa(lp1743
I0
aI2
aI3
aI5
aI7
aI8
aI10
aa(lp1744
I0
aI2
aI3
aI5
aI7
aI8
aI10
aa(lp1745
I0
aI1
aI2
aI3
aI4
aI5
aI6
aI7
aI8
aI9
aI10
aI11
aaa(lp1746
(lp1747
(lp1748
I0
aI0
aI0
aI0
aI0
aI0
aI0
aI0
aI0
aI0
aI0
aI0
aa(lp1749
I0
aI0
aI0
aI0
aI0
aI0
aI0
aI0
aI0
aI0
aI0
aI0
aa(lp1750
I0
aI0
aI0
aI0
aI0
aI0
aI0
aI0
aI0
aI0
aI0
aI0
aa(lp1751
I0
aI0
aI0
aI0
aI0
aI0
aI0
aI0
aI0
aI0
aI0
aI0
aaa(lp1752
(lp1753
I0
aI0
aI0
aI0
aI0
aI0
aI0
aI0
aI0
aI0
aI0
aI0
aa(lp1754
I0
aI0
aI0
aI0
aI0
aI0
aI0
aI0
aI0
aI0
aI0
aI0
aa(lp1755
I0
aI0
aI0
aI0
aI0
aI0
aI0
aI0
aI0
aI0
aI0
aI0
aa(lp1756
I0
aI0
aI0
aI0
aI0
aI0
aI0
aI0
aI0
aI0
aI0
aI0
aaa(lp1757
(lp1758
I0
aI0
aI0
aI0
aI0
aI0
aI0
aI0
aI0
aI0
aI0
aI0
aa(lp1759
I0
aI0
aI0
aI0
aI0
aI0
aI0
aI0
aI0
aI0
aI0
aI0
aa(lp1760
I0
aI0
aI0
aI0
aI0
aI0
aI0
aI0
aI0
aI0
aI0
aI0
aa(lp1761
I0
aI0
aI0
aI0
aI0
aI0
aI0
aI0
aI0
aI0
aI0
aI0
aaa(lp1762
(lp1763
I0
aI0
aI0
aI0
aI0
aI0
aI0
aI0
aI0
aI0
aI0
aI0
aa(lp1764
I0
aI0
aI0
aI0
aI0
aI0
aI0
aI0
aI0
aI0
aI0
aI0
aa(lp1765
I0
aI0
aI0
aI0
aI0
aI0
aI0
aI0
aI0
aI0
aI0
aI0
aa(lp1766
I0
aI0
aI0
aI0
aI0
aI0
aI0
aI0
aI0
aI0
aI0
aI0
aaaa(lp1767
(lp1768
I0
aI0
aI0
aI0
aI0
aI0
aI0
aI0
aI0
aI0
aI0
aI0
aa(lp1769
I0
aI0
aI0
aI0
aI0
aI0
aI0
aI0
aI0
aI0
aI0
aI0
aa(lp1770
I0
aI0
aI0
aI0
aI0
aI0
aI0
aI0
aI0
aI0
aI0
aI0
aa(lp1771
I0
aI0
aI0
aI0
aI0
aI0
aI0
aI0
aI0
aI0
aI0
aI0
aaaaI0
aI0
aI0
aI0
aI0
aI0
aI0
aI0
aI0
aI0
aI0
aI0
aI0
aI0
aI0
aI0
aI0
aI0
aI0
aI0
aI0
aI0
aI0
aI0
aI0
aI0
aI0
aI0
a.