(lp0
I0
a(lp1
(lp2
I0
aI0
aI0
aI0
aI0
aI0
aI0
aI0
aI0
aI0
aI0
a(lp3
(lp4
F0.025664790643532
aI77
aI8
aI0
aS'on'
p5
aa(lp6
F0.0077427619971786
aI82
aI35
aI0
aS'on'
p7
aa(lp8
F0.03241801650438
aI77
aI0
aI0
aS'off'
p9
aa(lp10
F0.024422447429515
aI82
aI0
aI0
aS'off'
p11
aa(lp12
F0.43126069827804
aI77
aI8
aI0
aS'on'
p13
aa(lp14
F0.007427867176375
aI82
aI53
aI0
aS'on'
p15
aa(lp16
F0.032636992164498
aI77
aI0
aI0
aS'off'
p17
aa(lp18
F0.024284187600642
aI82
aI0
aI0
aS'off'
p19
aa(lp20
F0.42983195218699
aI77
aI8
aI0
aS'on'
p21
aa(lp22
F0.0083132982474581
aI82
aI58
aI0
aS'on'
p23
aa(lp24
F0.040596788924177
aI77
aI0
aI0
aS'off'
p25
aa(lp26
F0.016411887851973
aI82
aI0
aI0
aS'off'
p27
aa(lp28
F0.45477170700497
aI77
aI2
aI0
aS'on'
p29
aa(lp30
F0.0090871996267197
aI82
aI48
aI0
aS'on'
p31
aa(lp32
F0.031458041789847
aI77
aI0
aI0
aS'off'
p33
aa(lp34
F0.033215529433846
aI82
aI0
aI0
aS'off'
p35
aa(lp36
F0.42079859679143
aI77
aI31
aI0
aS'on'
p37
aa(lp38
F0.0078085929692406
aI82
aI44
aI0
aS'on'
p39
aa(lp40
F0.048677872324788
aI77
aI0
aI0
aS'off'
p41
aa(lp42
F0.016426534875791
aI82
aI0
aI0
aS'off'
p43
aa(lp44
F0.44649933078017
aI77
aI17
aI0
aS'on'
p45
aa(lp46
F0.0082286494719028
aI82
aI15
aI0
aS'on'
p47
aa(lp48
F0.032811627285582
aI77
aI0
aI0
aS'off'
p49
aa(lp50
F0.02525802464902
aI82
aI0
aI0
aS'off'
p51
aa(lp52
F0.46306226391107
aI82
aI38
aI0
aS'on'
p53
aa(lp54
F0.00014230619649425
aI77
aI38
aI0
aS'on'
p55
aa(lp56
F0.039800871875059
aI77
aI0
aI0
aS'off'
p57
aa(lp58
F0.025365599643237
aI82
aI0
aI0
aS'off'
p59
aa(lp60
F0.4385189976424
aI82
aI50
aI0
aS'on'
p61
aa(lp62
F0.00010987316500177
aI77
aI23
aI0
aS'on'
p63
aa(lp64
F0.039999842635098
aI77
aI0
aI0
aS'off'
p65
aa(lp66
F0.02458561317826
aI82
aI0
aI0
aS'off'
p67
aa(lp68
F0.35236123574532
aI0
aI0
aI0
aS'timeAfterLastHit'
p69
aaa(lp70
(lp71
F0.068872315523095
aI79
aI23
aI0
aS'on'
p72
aa(lp73
F0.0081239476776318
aI84
aI41
aI0
aS'on'
p74
aa(lp75
F0.032460509533848
aI79
aI0
aI0
aS'off'
p76
aa(lp77
F0.024220901860645
aI84
aI0
aI0
aS'off'
p78
aa(lp79
F0.37377596858141
aI84
aI42
aI0
aS'on'
p80
aa(lp81
F0.00012353198962956
aI79
aI10
aI0
aS'on'
p82
aa(lp83
F0.040207227675637
aI79
aI0
aI0
aS'off'
p84
aa(lp85
F0.024409147596998
aI84
aI0
aI0
aS'off'
p86
aa(lp87
F0.43019534421683
aI84
aI59
aI0
aS'on'
p88
aa(lp89
F8.5051182622919e-05
aI79
aI43
aI0
aS'on'
p90
aa(lp91
F0.040151136558279
aI79
aI0
aI0
aS'off'
p92
aa(lp93
F0.02443894983162
aI84
aI0
aI0
aS'off'
p94
aa(lp95
F0.42210732270723
aI79
aI45
aI0
aS'on'
p96
aa(lp97
F0.0079437449744546
aI84
aI43
aI0
aS'on'
p98
aa(lp99
F0.03239588745646
aI79
aI0
aI0
aS'off'
p100
aa(lp101
F0.032369126204685
aI84
aI0
aI0
aS'off'
p102
aa(lp103
F0.39799526841125
aI84
aI50
aI0
aS'on'
p104
aa(lp105
F0.00013097199962431
aI79
aI35
aI0
aS'on'
p106
aa(lp107
F0.040083417601181
aI79
aI0
aI0
aS'off'
p108
aa(lp109
F0.032697687538075
aI84
aI0
aI0
aS'off'
p110
aa(lp111
F0.48671885602425
aI79
aI51
aI0
aS'on'
p112
aa(lp113
F0.0082311108576505
aI84
aI56
aI0
aS'on'
p114
aa(lp115
F0.032481341091852
aI79
aI0
aI0
aS'off'
p116
aa(lp117
F0.032856384251318
aI84
aI0
aI0
aS'off'
p118
aa(lp119
F0.41395776672948
aI79
aI16
aI0
aS'on'
p120
aa(lp121
F0.0078875450467422
aI84
aI50
aI0
aS'on'
p122
aa(lp123
F0.032160996769562
aI79
aI0
aI0
aS'off'
p124
aa(lp125
F0.032320807677479
aI84
aI0
aI0
aS'off'
p126
aa(lp127
F0.47984950565979
aI84
aI66
aI0
aS'on'
p128
aa(lp129
F0.00013575181696979
aI79
aI54
aI0
aS'on'
p130
aa(lp131
F0.048778793490555
aI79
aI0
aI0
aS'off'
p132
aa(lp133
F0.016402230351559
aI84
aI0
aI0
aS'off'
p134
aa(lp135
F0.37543145111158
aI0
aI0
aI0
aS'timeAfterLastHit'
p136
aaa(lp137
(lp138
F0.059565931931957
aI82
aI30
aI0
aS'on'
p139
aa(lp140
F0.057003354672361
aI82
aI0
aI0
aS'off'
p141
aa(lp142
F0.43154830036929
aI82
aI45
aI0
aS'on'
p143
aa(lp144
F0.00017513231887278
aI77
aI19
aI0
aS'on'
p145
aa(lp146
F0.048776448647914
aI77
aI0
aI0
aS'off'
p147
aa(lp148
F0.0075839455751066
aI82
aI0
aI0
aS'off'
p149
aa(lp150
F0.43906441044351
aI82
aI51
aI0
aS'on'
p151
aa(lp152
F0.00011871332435476
aI77
aI4
aI0
aS'on'
p153
aa(lp154
F0.047944263533964
aI77
aI0
aI0
aS'off'
p155
aa(lp156
F0.01600621109651
aI82
aI0
aI0
aS'off'
p157
aa(lp158
F0.43172721485371
aI82
aI59
aI0
aS'on'
p159
aa(lp160
F8.3853141859436e-05
aI77
aI47
aI0
aS'on'
p161
aa(lp162
F0.048830644001782
aI77
aI0
aI0
aS'off'
p163
aa(lp164
F0.015976345095396
aI82
aI0
aI0
aS'off'
p165
aa(lp166
F0.41352620200587
aI82
aI36
aI0
aS'on'
p167
aa(lp168
F0.00010902009626079
aI77
aI53
aI0
aS'on'
p169
aa(lp170
F0.040381447862728
aI77
aI0
aI0
aS'off'
p171
aa(lp172
F0.032668612512225
aI82
aI0
aI0
aS'off'
p173
aa(lp174
F0.43898855054294
aI82
aI27
aI0
aS'on'
p175
aa(lp176
F0.00014896775792295
aI77
aI7
aI0
aS'on'
p177
aa(lp178
F0.04863191885579
aI77
aI0
aI0
aS'off'
p179
aa(lp180
F0.0076917380988561
aI82
aI0
aI0
aS'off'
p181
aa(lp182
F0.47178220074738
aI82
aI27
aI0
aS'on'
p183
aa(lp184
F0.00019045689555242
aI77
aI15
aI0
aS'on'
p185
aa(lp186
F0.040353379759608
aI77
aI0
aI0
aS'off'
p187
aa(lp188
F0.024279611383463
aI82
aI0
aI0
aS'off'
p189
aa(lp190
F0.44712058163896
aI82
aI54
aI0
aS'on'
p191
aa(lp192
F0.00016789893925306
aI77
aI16
aI0
aS'on'
p193
aa(lp194
F0.0483572172202
aI77
aI0
aI0
aS'off'
p195
aa(lp196
F0.0079279558069629
aI82
aI0
aI0
aS'off'
p197
aa(lp198
F0.43968649573867
aI82
aI46
aI0
aS'on'
p199
aa(lp200
F0.00012270994443497
aI77
aI25
aI0
aS'on'
p201
aa(lp202
F0.048390646275038
aI77
aI0
aI0
aS'off'
p203
aa(lp204
F0.016524206845816
aI82
aI0
aI0
aS'off'
p205
aa(lp206
F0.42153903185113
aI77
aI38
aI0
aS'on'
p207
aa(lp208
F0.0091400601809255
aI82
aI28
aI0
aS'on'
p209
aa(lp210
F0.031352216529967
aI77
aI0
aI0
aS'off'
p211
aa(lp212
F0.024362073737393
aI82
aI0
aI0
aS'off'
p213
aa(lp214
F0.43972856139726
aI82
aI59
aI0
aS'on'
p215
aa(lp216
F0.00011334771443217
aI77
aI53
aI0
aS'on'
p217
aa(lp218
F0.057233064627326
aI77
aI0
aI0
aS'off'
p219
aa(lp220
F0.0077862338650903
aI82
aI0
aI0
aS'off'
p221
aa(lp222
F0.43909009797699
aI77
aI41
aI0
aS'on'
p223
aa(lp224
F0.0079421833286233
aI82
aI58
aI0
aS'on'
p225
aa(lp226
F0.048890927561843
aI77
aI0
aI0
aS'off'
p227
aa(lp228
F0.0078819650275364
aI82
aI0
aI0
aS'off'
p229
aa(lp230
F0.38987016927422
aI82
aI62
aI0
aS'on'
p231
aa(lp232
F0.00012221582210259
aI77
aI57
aI0
aS'on'
p233
aa(lp234
F0.056581978836675
aI77
aI0
aI0
aS'off'
p235
aa(lp236
F0.0078933193949524
aI82
aI0
aI0
aS'off'
p237
aa(lp238
F0.43915518459949
aI77
aI38
aI0
aS'on'
p239
aa(lp240
F0.007728201940381
aI82
aI54
aI0
aS'on'
p241
aa(lp242
F0.03226746688506
aI77
aI0
aI0
aS'off'
p243
aa(lp244
F0.033079661073316
aI82
aI0
aI0
aS'off'
p245
aa(lp246
F0.43021374084515
aI82
aI62
aI0
aS'on'
p247
aa(lp248
F0.00012327714944149
aI77
aI56
aI0
aS'on'
p249
aa(lp250
F0.039999211709073
aI77
aI0
aI0
aS'off'
p251
aa(lp252
F0.041007812702219
aI82
aI0
aI0
aS'off'
p253
aa(lp254
F0.46258710761072
aI82
aI59
aI0
aS'on'
p255
aa(lp256
F0.00011430335212026
aI77
aI41
aI0
aS'on'
p257
aa(lp258
F0.040874756850599
aI77
aI0
aI0
aS'off'
p259
aa(lp260
F0.023634389983272
aI82
aI0
aI0
aS'off'
p261
aa(lp262
F0.38184743794204
aI84
aI54
aI0
aS'on'
p263
aa(lp264
F0.0001084949046799
aI79
aI3
aI0
aS'on'
p265
aa(lp266
F0.040424992813087
aI79
aI0
aI0
aS'off'
p267
aa(lp268
F0.01657246323407
aI84
aI0
aI0
aS'off'
p269
aa(lp270
F0.44704551117593
aI79
aI35
aI0
aS'on'
p271
aa(lp272
F0.0083990144555628
aI84
aI58
aI0
aS'on'
p273
aa(lp274
F0.048407106754212
aI79
aI0
aI0
aS'off'
p275
aa(lp276
F0.0081326883880593
aI84
aI0
aI0
aS'off'
p277
aa(lp278
F0.44669240752796
aI79
aI35
aI0
aS'on'
p279
aa(lp280
F0.0080993168589885
aI84
aI46
aI0
aS'on'
p281
aa(lp282
F0.032827786253165
aI79
aI0
aI0
aS'off'
p283
aa(lp284
F0.02407903854737
aI84
aI0
aI0
aS'off'
p285
aa(lp286
F0.45616604040924
aI84
aI49
aI0
aS'on'
p287
aa(lp288
F8.1031226272898e-05
aI79
aI21
aI0
aS'on'
p289
aa(lp290
F0.039920366858496
aI79
aI0
aI0
aS'off'
p291
aa(lp292
F0.02494333496611
aI84
aI0
aI0
aS'off'
p293
aa(lp294
F0.440068772323
aI84
aI52
aI0
aS'on'
p295
aa(lp296
F0.00013411405871011
aI79
aI32
aI0
aS'on'
p297
aa(lp298
F0.040018253192557
aI79
aI0
aI0
aS'off'
p299
aa(lp300
F0.024470030968814
aI84
aI0
aI0
aS'off'
p301
aa(lp302
F0.45505508404676
aI79
aI35
aI0
aS'on'
p303
aa(lp304
F0.0080173952085261
aI84
aI49
aI0
aS'on'
p305
aa(lp306
F0.032389210337897
aI79
aI0
aI0
aS'off'
p307
aa(lp308
F0.024538301573557
aI84
aI0
aI0
aS'off'
p309
aa(lp310
F0.45541486323077
aI79
aI35
aI0
aS'on'
p311
aa(lp312
F0.0073897810887047
aI84
aI51
aI0
aS'on'
p313
aa(lp314
F0.033110024271991
aI79
aI0
aI0
aS'off'
p315
aa(lp316
F0.024436413870944
aI84
aI0
aI0
aS'off'
p317
aa(lp318
F0.39060220859528
aI79
aI15
aI0
aS'on'
p319
aa(lp320
F0.007779204040844
aI84
aI48
aI0
aS'on'
p321
aa(lp322
F0.032514485775209
aI79
aI0
aI0
aS'off'
p323
aa(lp324
F0.032516297647362
aI84
aI0
aI0
aS'off'
p325
aa(lp326
F0.44705187904992
aI84
aI51
aI0
aS'on'
p327
aa(lp328
F0.00010089787542711
aI79
aI32
aI0
aS'on'
p329
aa(lp330
F0.040543892597498
aI79
aI0
aI0
aS'off'
p331
aa(lp332
F0.02420089076486
aI84
aI0
aI0
aS'off'
p333
aa(lp334
F0.41389202430719
aI79
aI22
aI0
aS'on'
p335
aa(lp336
F0.0074863715158244
aI84
aI41
aI0
aS'on'
p337
aa(lp338
F0.03296621395566
aI79
aI0
aI0
aS'off'
p339
aa(lp340
F0.024402816988186
aI84
aI0
aI0
aS'off'
p341
aa(lp342
F0.44719608413084
aI84
aI43
aI0
aS'on'
p343
aa(lp344
F0.00015661914721932
aI79
aI22
aI0
aS'on'
p345
aa(lp346
F0.040173361978987
aI79
aI0
aI0
aS'off'
p347
aa(lp348
F0.024207241589011
aI84
aI0
aI0
aS'off'
p349
aa(lp350
F0.42949943773942
aI84
aI26
aI0
aS'on'
p351
aa(lp352
F0.0001172230879547
aI79
aI24
aI0
aS'on'
p353
aa(lp354
F0.039952950578027
aI79
aI0
aI0
aS'off'
p355
aa(lp356
F0.024889831094242
aI84
aI0
aI0
aS'off'
p357
aa(lp358
F0.41533390547784
aI84
aI51
aI0
aS'on'
p359
aa(lp360
F0.00012735300333588
aI79
aI18
aI0
aS'on'
p361
aa(lp362
F0.040431506807181
aI79
aI0
aI0
aS'off'
p363
aa(lp364
F0.02429341619245
aI84
aI0
aI0
aS'off'
p365
aa(lp366
F0.42210317223316
aI84
aI44
aI0
aS'on'
p367
aa(lp368
F0.00016943417358561
aI79
aI27
aI0
aS'on'
p369
aa(lp370
F0.040326141479909
aI79
aI0
aI0
aS'off'
p371
aa(lp372
F0.024446413222904
aI84
aI0
aI0
aS'off'
p373
aa(lp374
F0.45511732709178
aI84
aI28
aI0
aS'on'
p375
aa(lp376
F9.2512990704563e-05
aI79
aI29
aI0
aS'on'
p377
aa(lp378
F0.040652222794733
aI79
aI0
aI0
aS'off'
p379
aa(lp380
F0.024484679575608
aI84
aI0
aI0
aS'off'
p381
aa(lp382
F0.45637887811631
aI79
aI45
aI0
aS'on'
p383
aa(lp384
F0.0078125647614797
aI84
aI50
aI0
aS'on'
p385
aa(lp386
F0.032140295684258
aI79
aI0
aI0
aS'off'
p387
aa(lp388
F0.032506130467482
aI84
aI0
aI0
aS'off'
p389
aa(lp390
F0.36277768721902
aI0
aI0
aI0
aS'timeAfterLastHit'
p391
aaaI0
aI0
aI0
aI0
a(lp392
(lp393
F0.0
aI31
aI30
aI2
aS'on'
p394
aa(lp395
F6.9273624896377
aI31
aI0
aI2
aS'off'
p396
aa(lp397
F0.072637510362256
aI29
aI51
aI2
aS'on'
p398
aa(lp399
F0.9327855416077
aI29
aI0
aI2
aS'off'
p400
aa(lp401
F0.0672144583923
aI0
aI0
aI0
aS'timeAfterLastHit'
p402
aaaI0
aI0
aI0
aI0
aI0
aI0
a(lp403
(lp404
F0.0058519137426174
aI36
aI111
aI3
aS'on'
p405
aa(lp406
F0.15432308921709
aI36
aI0
aI3
aS'off'
p407
aa(lp408
F0.62589725224507
aI36
aI85
aI3
aS'on'
p409
aa(lp410
F0.14406853286573
aI36
aI0
aI3
aS'off'
p411
aa(lp412
F0.057243921751706
aI38
aI106
aI3
aS'on'
p413
aa(lp414
F0.13774099489342
aI38
aI0
aI3
aS'off'
p415
aa(lp416
F0.19513016283827
aI36
aI89
aI3
aS'on'
p417
aa(lp418
F0.21950825882982
aI36
aI0
aI3
aS'off'
p419
aa(lp420
F0.50340100130484
aI36
aI92
aI3
aS'on'
p421
aa(lp422
F0.162353672373
aI36
aI0
aI3
aS'off'
p423
aa(lp424
F0.34877806990858
aI36
aI89
aI3
aS'on'
p425
aa(lp426
F0.17205550014455
aI36
aI0
aI3
aS'off'
p427
aa(lp428
F0.28358670024977
aI38
aI111
aI3
aS'on'
p429
aa(lp430
F0.98006092963556
aI38
aI0
aI3
aS'off'
p431
aa(lp432
F0.0099999999999909
aI0
aI0
aI0
aS'timeAfterLastHit'
p433
aaa(lp434
(lp435
F0.0098008513450623
aI36
aI94
aI2
aS'on'
p436
aa(lp437
F0.026507604879953
aI36
aI0
aI2
aS'off'
p438
aa(lp439
F0.30046597176624
aI36
aI94
aI2
aS'on'
p440
aa(lp441
F0.081567486688527
aI36
aI0
aI2
aS'off'
p442
aa(lp443
F0.38015568032915
aI36
aI99
aI2
aS'on'
p444
aa(lp445
F0.081999645028418
aI36
aI0
aI2
aS'off'
p446
aa(lp447
F0.64208892130682
aI36
aI101
aI2
aS'on'
p448
aa(lp449
F0.081168732575406
aI36
aI0
aI2
aS'off'
p450
aa(lp451
F0.30900926121922
aI36
aI101
aI2
aS'on'
p452
aa(lp453
F0.080894907389848
aI36
aI0
aI2
aS'off'
p454
aa(lp455
F0.40688197606323
aI36
aI106
aI2
aS'on'
p456
aa(lp457
F0.12905925603036
aI36
aI0
aI2
aS'off'
p458
aa(lp459
F1.4768467641195
aI36
aI111
aI2
aS'on'
p460
aa(lp461
F0.090378505433364
aI36
aI0
aI2
aS'off'
p462
aa(lp463
F0.250848124924
aI36
aI101
aI2
aS'on'
p464
aa(lp465
F0.0971450823738
aI36
aI0
aI2
aS'off'
p466
aa(lp467
F0.40734484876975
aI36
aI108
aI2
aS'on'
p468
aa(lp469
F0.1137053412474
aI36
aI0
aI2
aS'off'
p470
aa(lp471
F0.58497969008977
aI36
aI101
aI2
aS'on'
p472
aa(lp473
F0.10504128265688
aI36
aI0
aI2
aS'off'
p474
aa(lp475
F0.24426363252155
aI36
aI111
aI2
aS'on'
p476
aa(lp477
F0.11329614024089
aI36
aI0
aI2
aS'off'
p478
aa(lp479
F0.38368585894636
aI36
aI87
aI2
aS'on'
p480
aa(lp481
F0.11260402529092
aI36
aI0
aI2
aS'off'
p482
aa(lp483
F0.53751360981914
aI39
aI73
aI2
aS'on'
p484
aa(lp485
F0.82725224954834
aI39
aI0
aI2
aS'off'
p486
aa(lp487
F0.12549454939608
aI0
aI0
aI0
aS'timeAfterLastHit'
p488
aaa(lp489
(lp490
F0.0271289825439
aI60
aI48
aI0
aS'on'
p491
aa(lp492
F-0.020722514510453
aI67
aI82
aI0
aS'on'
p493
aa(lp494
F0.073738783174804
aI67
aI0
aI0
aS'off'
p495
aa(lp496
F0.00012773062735505
aI60
aI0
aI0
aS'off'
p497
aa(lp498
F0.25014424230039
aI68
aI85
aI0
aS'on'
p499
aa(lp500
F0.00011710658986885
aI62
aI63
aI0
aS'on'
p501
aa(lp502
F0.049257365232052
aI62
aI0
aI0
aS'off'
p503
aa(lp504
F0.0075171791804678
aI68
aI0
aI0
aS'off'
p505
aa(lp506
F3.564225596763
aI65
aI73
aI0
aS'on'
p507
aa(lp508
F0.00016083641776277
aI58
aI39
aI0
aS'on'
p509
aa(lp510
F0.048295915884182
aI58
aI0
aI0
aS'off'
p511
aa(lp512
F0.016609337261571
aI65
aI0
aI0
aS'off'
p513
aa(lp514
F0.30843200122422
aI60
aI45
aI0
aS'on'
p515
aa(lp516
F0.007651925612663
aI67
aI64
aI0
aS'on'
p517
aa(lp518
F0.032666642173581
aI60
aI0
aI0
aS'off'
p519
aa(lp520
F0.01629604763707
aI67
aI0
aI0
aS'off'
p521
aa(lp522
F3.6689009763479
aI67
aI73
aI0
aS'on'
p523
aa(lp524
F0.00010501099382054
aI60
aI62
aI0
aS'on'
p525
aa(lp526
F0.05639285054508
aI60
aI0
aI0
aS'off'
p527
aa(lp528
F0.024596569751111
aI67
aI0
aI0
aS'off'
p529
aa(lp530
F0.21954433261044
aI68
aI96
aI0
aS'on'
p531
aa(lp532
F9.2711888100894e-05
aI62
aI64
aI0
aS'on'
p533
aa(lp534
F0.04118107259319
aI62
aI0
aI0
aS'off'
p535
aa(lp536
F0.024168265077151
aI68
aI0
aI0
aS'off'
p537
aa(lp538
F3.597910411866
aI65
aI75
aI0
aS'on'
p539
aa(lp540
F0.00011024142759197
aI58
aI62
aI0
aS'on'
p541
aa(lp542
F0.064466386618051
aI58
aI0
aI0
aS'off'
p543
aa(lp544
F0.016885118856862
aI65
aI0
aI0
aS'off'
p545
aa(lp546
F0.682138268073
aI58
aI62
aI0
aS'on'
p547
aa(lp548
F0.0076672299740039
aI65
aI72
aI0
aS'on'
p549
aa(lp550
F0.057109349343136
aI65
aI0
aI0
aS'off'
p551
aa(lp552
F0.007903234810783
aI58
aI0
aI0
aS'off'
p553
aa(lp554
F0.68988561560354
aI60
aI25
aI0
aS'on'
p555
aa(lp556
F0.0077658544614678
aI67
aI66
aI0
aS'on'
p557
aa(lp558
F0.032869177524844
aI60
aI0
aI0
aS'off'
p559
aa(lp560
F0.008472793624378
aI67
aI0
aI0
aS'off'
p561
aa(lp562
F1.941643900238
aI60
aI19
aI0
aS'on'
p563
aa(lp564
F0.015578565252554
aI67
aI67
aI0
aS'on'
p565
aa(lp566
F0.041163111024161
aI67
aI0
aI0
aS'off'
p567
aa(lp568
F0.0083471950133571
aI60
aI0
aI0
aS'off'
p569
aa(lp570
F0.40345457836906
aI0
aI0
aI0
aS'timeAfterLastHit'
p571
aaa(lp572
(lp573
F0.030269241332917
aI70
aI35
aI1
aS'on'
p574
aa(lp575
F0.018752844154051
aI72
aI42
aI1
aS'on'
p576
aa(lp577
F0.089351503153694
aI70
aI0
aI1
aS'off'
p578
aa(lp579
F0.52010765005207
aI70
aI38
aI1
aS'on'
p580
aa(lp581
F0.056920454093415
aI72
aI0
aI1
aS'off'
p582
aa(lp583
F7.3509722723456
aI65
aI34
aI1
aS'on'
p584
aa(lp585
F0.032399692913486
aI70
aI0
aI1
aS'off'
p586
aa(lp587
F3.9403890974247
aI63
aI8
aI1
aS'on'
p588
aa(lp589
F0.13822303498864
aI65
aI0
aI1
aS'off'
p590
aa(lp591
F3.6222733091859
aI63
aI0
aI1
aS'off'
p592
aa(lp593
F0.20034090035551
aI0
aI0
aI0
aS'timeAfterLastHit'
p594
aaaI0
aI0
aI0
aI0
aI0
aI0
a(lp595
(lp596
F0.0
aI87
aI25
aI0
aS'on'
p597
aa(lp598
F0.47094667630518
aI87
aI0
aI0
aS'off'
p599
aa(lp600
F0.029053323694825
aI86
aI2
aI0
aS'on'
p601
aa(lp602
F0.5
aI80
aI16
aI0
aS'on'
p603
aa(lp604
F0.11647862744621
aI86
aI0
aI0
aS'off'
p605
aa(lp606
F0.25883728117151
aI80
aI0
aI0
aS'off'
p607
aa(lp608
F0.12468409138228
aI87
aI60
aI0
aS'on'
p609
aa(lp610
F0.5
aI86
aI44
aI0
aS'on'
p611
aa(lp612
F0.08519482293832
aI87
aI0
aI0
aS'off'
p613
aa(lp614
F0.41480517706168
aI79
aI52
aI0
aS'on'
p615
aa(lp616
F0.13492592573402
aI86
aI0
aI0
aS'off'
p617
aa(lp618
F0.32856070059051
aI79
aI0
aI0
aS'off'
p619
aa(lp620
F0.036513373675461
aI86
aI67
aI0
aS'on'
p621
aa(lp622
F0.5
aI84
aI63
aI0
aS'on'
p623
aa(lp624
F0.16592567415501
aI86
aI0
aI0
aS'off'
p625
aa(lp626
F0.33407432584499
aI79
aI35
aI0
aS'on'
p627
aa(lp628
F0.1421982817169
aI84
aI0
aI0
aS'off'
p629
aa(lp630
F0.3130268192208
aI79
aI0
aI0
aS'off'
p631
aa(lp632
F0.044774899062304
aI86
aI60
aI0
aS'on'
p633
aa(lp634
F0.5
aI84
aI80
aI0
aS'on'
p635
aa(lp636
F0.32190032477047
aI86
aI0
aI0
aS'off'
p637
aa(lp638
F0.17809967522953
aI74
aI65
aI0
aS'on'
p639
aa(lp640
F0.029618630913319
aI84
aI0
aI0
aS'off'
p641
aa(lp642
F0.47038136908668
aI75
aI59
aI0
aS'on'
p643
aa(lp644
F0.046032660006858
aI74
aI0
aI0
aS'off'
p645
aa(lp646
F0.45396733999314
aI74
aI60
aI0
aS'on'
p647
aa(lp648
F0.10102892243731
aI75
aI0
aI0
aS'off'
p649
aa(lp650
F0.39897107756269
aI75
aI45
aI0
aS'on'
p651
aa(lp652
F0.11622182989913
aI74
aI0
aI0
aS'off'
p653
aa(lp654
F0.38377817010087
aI77
aI58
aI0
aS'on'
p655
aa(lp656
F0.036948322635453
aI75
aI0
aI0
aS'off'
p657
aa(lp658
F0.43276159670813
aI77
aI0
aI0
aS'off'
p659
aa(lp660
F0.030290080656414
aI0
aI0
aI0
aS'timeAfterLastHit'
p661
aaa(lp662
(lp663
F0.0
aI63
aI10
aI1
aS'on'
p664
aa(lp665
F0.3746869799138
aI63
aI0
aI1
aS'off'
p666
aa(lp667
F0.1253130200862
aI62
aI3
aI1
aS'on'
p668
aa(lp669
F0.5
aI60
aI12
aI1
aS'on'
p670
aa(lp671
F0.044245562739434
aI62
aI0
aI1
aS'off'
p672
aa(lp673
F0.35368720005363
aI60
aI0
aI1
aS'off'
p674
aa(lp675
F0.10206723720694
aI55
aI3
aI1
aS'on'
p676
aa(lp677
F0.4785701018759
aI55
aI0
aI1
aS'off'
p678
aa(lp679
F0.021429898124097
aI55
aI18
aI1
aS'on'
p680
aa(lp681
F0.5
aI58
aI6
aI1
aS'on'
p682
aa(lp683
F0.036191557659549
aI55
aI0
aI1
aS'off'
p684
aa(lp685
F0.29714177567378
aI55
aI1
aI1
aS'on'
p686
aa(lp687
F0.048023510354748
aI58
aI0
aI1
aS'off'
p688
aa(lp689
F8.7574913213615
aI55
aI0
aI1
aS'off'
p690
aa(lp691
F0.36115183495046
aI0
aI0
aI0
aS'timeAfterLastHit'
p692
aaaI0
aI0
aI0
aI0
aI0
aI0
aI0
aI0
aI0
aI0
aI0
aI0
aI0
aI0
aI0
aI0
aI0
aI0
aI0
aI0
aI0
aI0
aI0
aI0
aI0
aI0
aI0
aI0
aI0
aI0
aI0
aI0
aI0
aI0
aI0
aI0
aI0
aI0
aI0
aI0
aI0
aI0
aI0
aI0
aI0
aI0
aI0
aI0
aI0
aI0
aI0
aI0
aI0
aI0
aI0
aI0
aI0
aI0
aI0
aI0
aI0
aI0
aI0
aa(lp693
(dp694
a(dp695
a(dp696
a(dp697
a(dp698
a(dp699
a(dp700
a(dp701
a(dp702
a(dp703
a(dp704
a(dp705
S'button'
p706
I43
sS'playing'
p707
I0
sa(dp708
g706
I44
sg707
I0
sa(dp709
g706
I45
sg707
I1
sa(dp710
a(dp711
a(dp712
a(dp713
a(dp714
g706
I52
sg707
I0
sa(dp715
a(dp716
a(dp717
a(dp718
a(dp719
a(dp720
a(dp721
g706
I61
sg707
I01
sa(dp722
g706
I62
sg707
I1
sa(dp723
g706
I63
sg707
I01
sa(dp724
g706
I64
sg707
I1
sa(dp725
a(dp726
a(dp727
a(dp728
a(dp729
a(dp730
a(dp731
g706
I73
sg707
I0
sa(dp732
g706
I74
sg707
I0
sa(dp733
a(dp734
a(dp735
a(dp736
a(dp737
a(dp738
a(dp739
a(dp740
a(dp741
a(dp742
a(dp743
a(dp744
a(dp745
a(dp746
a(dp747
a(dp748
a(dp749
a(dp750
a(dp751
a(dp752
a(dp753
a(dp754
a(dp755
a(dp756
a(dp757
a(dp758
a(dp759
a(dp760
a(dp761
a(dp762
a(dp763
a(dp764
a(dp765
a(dp766
a(dp767
a(dp768
a(dp769
a(dp770
a(dp771
a(dp772
a(dp773
a(dp774
a(dp775
a(dp776
a(dp777
a(dp778
a(dp779
a(dp780
a(dp781
a(dp782
a(dp783
a(dp784
a(dp785
a(dp786
a(dp787
a(dp788
a(dp789
a(dp790
a(dp791
a(dp792
a(dp793
a(dp794
a(dp795
aa(lp796
I60
aI60
aI36
aI36
aa(lp797
(lp798
I0
aI2
aI3
aI5
aI7
aI8
aI10
aa(lp799
I0
aI2
aI3
aI5
aI7
aI8
aI10
aa(lp800
I0
aI2
aI3
aI5
aI7
aI8
aI10
aa(lp801
I0
aI2
aI3
aI5
aI7
aI8
aI10
aa(lp802
I0
aI2
aI3
aI5
aI7
aI8
aI10
aa(lp803
I0
aI1
aI2
aI3
aI4
aI5
aI6
aI7
aI8
aI9
aI10
aI11
aaa(lp804
(lp805
(lp806
I0
aI0
aI0
aI0
aI0
aI0
aI0
aI0
aI0
aI0
aI0
aI0
aa(lp807
I0
aI0
aI0
aI0
aI0
aI0
aI0
aI0
aI0
aI0
aI0
aI0
aa(lp808
I0
aI0
aI0
aI0
aI0
aI0
aI0
aI0
aI0
aI0
aI0
aI0
aa(lp809
I0
aI0
aI0
aI0
aI0
aI0
aI0
aI0
aI0
aI0
aI0
aI0
aaa(lp810
(lp811
I0
aI0
aI0
aI0
aI0
aI0
aI0
aI0
aI0
aI0
aI0
aI0
aa(lp812
I0
aI0
aI0
aI0
aI0
aI0
aI0
aI0
aI0
aI0
aI0
aI0
aa(lp813
I0
aI0
aI0
aI0
aI0
aI0
aI0
aI0
aI0
aI0
aI0
aI0
aa(lp814
I0
aI0
aI0
aI0
aI0
aI0
aI0
aI0
aI0
aI0
aI0
aI0
aaa(lp815
(lp816
I0
aI0
aI0
aI0
aI0
aI0
aI0
aI0
aI0
aI0
aI0
aI0
aa(lp817
I0
aI0
aI0
aI0
aI0
aI0
aI0
aI0
aI0
aI0
aI0
aI0
aa(lp818
I0
aI0
aI0
aI0
aI0
aI0
aI0
aI0
aI0
aI0
aI0
aI0
aa(lp819
I0
aI0
aI0
aI0
aI0
aI0
aI0
aI0
aI0
aI0
aI0
aI0
aaa(lp820
(lp821
I0
aI0
aI0
aI0
aI0
aI0
aI0
aI0
aI0
aI0
aI0
aI0
aa(lp822
I0
aI0
aI0
aI0
aI0
aI0
aI0
aI0
aI0
aI0
aI0
aI0
aa(lp823
I0
aI0
aI0
aI0
aI0
aI0
aI0
aI0
aI0
aI0
aI0
aI0
aa(lp824
I0
aI0
aI0
aI0
aI0
aI0
aI0
aI0
aI0
aI0
aI0
aI0
aaaa(lp825
(lp826
I0
aI0
aI0
aI0
aI0
aI0
aI0
aI0
aI0
aI0
aI0
aI0
aa(lp827
I0
aI0
aI0
aI0
aI0
aI0
aI0
aI0
aI0
aI0
aI0
aI0
aa(lp828
I0
aI0
aI0
aI0
aI0
aI0
aI0
aI0
aI0
aI0
aI0
aI0
aa(lp829
I0
aI0
aI0
aI0
aI0
aI0
aI0
aI0
aI0
aI0
aI0
aI0
aaaa(lp830
(lp831
I0
aI0
aI0
aI0
aI0
aI0
aI0
aI0
aI0
aI0
aI0
a(lp832
(lp833
F0.025664790643532
aI77
aI8
aI0
ag5
aa(lp834
F0.0077427619971786
aI82
aI35
aI0
ag7
aa(lp835
F0.03241801650438
aI77
aI0
aI0
ag9
aa(lp836
F0.024422447429515
aI82
aI0
aI0
ag11
aa(lp837
F0.43126069827804
aI77
aI8
aI0
ag13
aa(lp838
F0.007427867176375
aI82
aI53
aI0
ag15
aa(lp839
F0.032636992164498
aI77
aI0
aI0
ag17
aa(lp840
F0.024284187600642
aI82
aI0
aI0
ag19
aa(lp841
F0.42983195218699
aI77
aI8
aI0
ag21
aa(lp842
F0.0083132982474581
aI82
aI58
aI0
ag23
aa(lp843
F0.040596788924177
aI77
aI0
aI0
ag25
aa(lp844
F0.016411887851973
aI82
aI0
aI0
ag27
aa(lp845
F0.45477170700497
aI77
aI2
aI0
ag29
aa(lp846
F0.0090871996267197
aI82
aI48
aI0
ag31
aa(lp847
F0.031458041789847
aI77
aI0
aI0
ag33
aa(lp848
F0.033215529433846
aI82
aI0
aI0
ag35
aa(lp849
F0.42079859679143
aI77
aI31
aI0
ag37
aa(lp850
F0.0078085929692406
aI82
aI44
aI0
ag39
aa(lp851
F0.048677872324788
aI77
aI0
aI0
ag41
aa(lp852
F0.016426534875791
aI82
aI0
aI0
ag43
aa(lp853
F0.44649933078017
aI77
aI17
aI0
ag45
aa(lp854
F0.0082286494719028
aI82
aI15
aI0
ag47
aa(lp855
F0.032811627285582
aI77
aI0
aI0
ag49
aa(lp856
F0.02525802464902
aI82
aI0
aI0
ag51
aa(lp857
F0.46306226391107
aI82
aI38
aI0
ag53
aa(lp858
F0.00014230619649425
aI77
aI38
aI0
ag55
aa(lp859
F0.039800871875059
aI77
aI0
aI0
ag57
aa(lp860
F0.025365599643237
aI82
aI0
aI0
ag59
aa(lp861
F0.4385189976424
aI82
aI50
aI0
ag61
aa(lp862
F0.00010987316500177
aI77
aI23
aI0
ag63
aa(lp863
F0.039999842635098
aI77
aI0
aI0
ag65
aa(lp864
F0.02458561317826
aI82
aI0
aI0
ag67
aa(lp865
F0.35236123574532
aI0
aI0
aI0
ag69
aaa(lp866
(lp867
F0.068872315523095
aI79
aI23
aI0
ag72
aa(lp868
F0.0081239476776318
aI84
aI41
aI0
ag74
aa(lp869
F0.032460509533848
aI79
aI0
aI0
ag76
aa(lp870
F0.024220901860645
aI84
aI0
aI0
ag78
aa(lp871
F0.37377596858141
aI84
aI42
aI0
ag80
aa(lp872
F0.00012353198962956
aI79
aI10
aI0
ag82
aa(lp873
F0.040207227675637
aI79
aI0
aI0
ag84
aa(lp874
F0.024409147596998
aI84
aI0
aI0
ag86
aa(lp875
F0.43019534421683
aI84
aI59
aI0
ag88
aa(lp876
F8.5051182622919e-05
aI79
aI43
aI0
ag90
aa(lp877
F0.040151136558279
aI79
aI0
aI0
ag92
aa(lp878
F0.02443894983162
aI84
aI0
aI0
ag94
aa(lp879
F0.42210732270723
aI79
aI45
aI0
ag96
aa(lp880
F0.0079437449744546
aI84
aI43
aI0
ag98
aa(lp881
F0.03239588745646
aI79
aI0
aI0
ag100
aa(lp882
F0.032369126204685
aI84
aI0
aI0
ag102
aa(lp883
F0.39799526841125
aI84
aI50
aI0
ag104
aa(lp884
F0.00013097199962431
aI79
aI35
aI0
ag106
aa(lp885
F0.040083417601181
aI79
aI0
aI0
ag108
aa(lp886
F0.032697687538075
aI84
aI0
aI0
ag110
aa(lp887
F0.48671885602425
aI79
aI51
aI0
ag112
aa(lp888
F0.0082311108576505
aI84
aI56
aI0
ag114
aa(lp889
F0.032481341091852
aI79
aI0
aI0
ag116
aa(lp890
F0.032856384251318
aI84
aI0
aI0
ag118
aa(lp891
F0.41395776672948
aI79
aI16
aI0
ag120
aa(lp892
F0.0078875450467422
aI84
aI50
aI0
ag122
aa(lp893
F0.032160996769562
aI79
aI0
aI0
ag124
aa(lp894
F0.032320807677479
aI84
aI0
aI0
ag126
aa(lp895
F0.47984950565979
aI84
aI66
aI0
ag128
aa(lp896
F0.00013575181696979
aI79
aI54
aI0
ag130
aa(lp897
F0.048778793490555
aI79
aI0
aI0
ag132
aa(lp898
F0.016402230351559
aI84
aI0
aI0
ag134
aa(lp899
F0.37543145111158
aI0
aI0
aI0
ag136
aaa(lp900
(lp901
F0.059565931931957
aI82
aI30
aI0
ag139
aa(lp902
F0.057003354672361
aI82
aI0
aI0
ag141
aa(lp903
F0.43154830036929
aI82
aI45
aI0
ag143
aa(lp904
F0.00017513231887278
aI77
aI19
aI0
ag145
aa(lp905
F0.048776448647914
aI77
aI0
aI0
ag147
aa(lp906
F0.0075839455751066
aI82
aI0
aI0
ag149
aa(lp907
F0.43906441044351
aI82
aI51
aI0
ag151
aa(lp908
F0.00011871332435476
aI77
aI4
aI0
ag153
aa(lp909
F0.047944263533964
aI77
aI0
aI0
ag155
aa(lp910
F0.01600621109651
aI82
aI0
aI0
ag157
aa(lp911
F0.43172721485371
aI82
aI59
aI0
ag159
aa(lp912
F8.3853141859436e-05
aI77
aI47
aI0
ag161
aa(lp913
F0.048830644001782
aI77
aI0
aI0
ag163
aa(lp914
F0.015976345095396
aI82
aI0
aI0
ag165
aa(lp915
F0.41352620200587
aI82
aI36
aI0
ag167
aa(lp916
F0.00010902009626079
aI77
aI53
aI0
ag169
aa(lp917
F0.040381447862728
aI77
aI0
aI0
ag171
aa(lp918
F0.032668612512225
aI82
aI0
aI0
ag173
aa(lp919
F0.43898855054294
aI82
aI27
aI0
ag175
aa(lp920
F0.00014896775792295
aI77
aI7
aI0
ag177
aa(lp921
F0.04863191885579
aI77
aI0
aI0
ag179
aa(lp922
F0.0076917380988561
aI82
aI0
aI0
ag181
aa(lp923
F0.47178220074738
aI82
aI27
aI0
ag183
aa(lp924
F0.00019045689555242
aI77
aI15
aI0
ag185
aa(lp925
F0.040353379759608
aI77
aI0
aI0
ag187
aa(lp926
F0.024279611383463
aI82
aI0
aI0
ag189
aa(lp927
F0.44712058163896
aI82
aI54
aI0
ag191
aa(lp928
F0.00016789893925306
aI77
aI16
aI0
ag193
aa(lp929
F0.0483572172202
aI77
aI0
aI0
ag195
aa(lp930
F0.0079279558069629
aI82
aI0
aI0
ag197
aa(lp931
F0.43968649573867
aI82
aI46
aI0
ag199
aa(lp932
F0.00012270994443497
aI77
aI25
aI0
ag201
aa(lp933
F0.048390646275038
aI77
aI0
aI0
ag203
aa(lp934
F0.016524206845816
aI82
aI0
aI0
ag205
aa(lp935
F0.42153903185113
aI77
aI38
aI0
ag207
aa(lp936
F0.0091400601809255
aI82
aI28
aI0
ag209
aa(lp937
F0.031352216529967
aI77
aI0
aI0
ag211
aa(lp938
F0.024362073737393
aI82
aI0
aI0
ag213
aa(lp939
F0.43972856139726
aI82
aI59
aI0
ag215
aa(lp940
F0.00011334771443217
aI77
aI53
aI0
ag217
aa(lp941
F0.057233064627326
aI77
aI0
aI0
ag219
aa(lp942
F0.0077862338650903
aI82
aI0
aI0
ag221
aa(lp943
F0.43909009797699
aI77
aI41
aI0
ag223
aa(lp944
F0.0079421833286233
aI82
aI58
aI0
ag225
aa(lp945
F0.048890927561843
aI77
aI0
aI0
ag227
aa(lp946
F0.0078819650275364
aI82
aI0
aI0
ag229
aa(lp947
F0.38987016927422
aI82
aI62
aI0
ag231
aa(lp948
F0.00012221582210259
aI77
aI57
aI0
ag233
aa(lp949
F0.056581978836675
aI77
aI0
aI0
ag235
aa(lp950
F0.0078933193949524
aI82
aI0
aI0
ag237
aa(lp951
F0.43915518459949
aI77
aI38
aI0
ag239
aa(lp952
F0.007728201940381
aI82
aI54
aI0
ag241
aa(lp953
F0.03226746688506
aI77
aI0
aI0
ag243
aa(lp954
F0.033079661073316
aI82
aI0
aI0
ag245
aa(lp955
F0.43021374084515
aI82
aI62
aI0
ag247
aa(lp956
F0.00012327714944149
aI77
aI56
aI0
ag249
aa(lp957
F0.039999211709073
aI77
aI0
aI0
ag251
aa(lp958
F0.041007812702219
aI82
aI0
aI0
ag253
aa(lp959
F0.46258710761072
aI82
aI59
aI0
ag255
aa(lp960
F0.00011430335212026
aI77
aI41
aI0
ag257
aa(lp961
F0.040874756850599
aI77
aI0
aI0
ag259
aa(lp962
F0.023634389983272
aI82
aI0
aI0
ag261
aa(lp963
F0.38184743794204
aI84
aI54
aI0
ag263
aa(lp964
F0.0001084949046799
aI79
aI3
aI0
ag265
aa(lp965
F0.040424992813087
aI79
aI0
aI0
ag267
aa(lp966
F0.01657246323407
aI84
aI0
aI0
ag269
aa(lp967
F0.44704551117593
aI79
aI35
aI0
ag271
aa(lp968
F0.0083990144555628
aI84
aI58
aI0
ag273
aa(lp969
F0.048407106754212
aI79
aI0
aI0
ag275
aa(lp970
F0.0081326883880593
aI84
aI0
aI0
ag277
aa(lp971
F0.44669240752796
aI79
aI35
aI0
ag279
aa(lp972
F0.0080993168589885
aI84
aI46
aI0
ag281
aa(lp973
F0.032827786253165
aI79
aI0
aI0
ag283
aa(lp974
F0.02407903854737
aI84
aI0
aI0
ag285
aa(lp975
F0.45616604040924
aI84
aI49
aI0
ag287
aa(lp976
F8.1031226272898e-05
aI79
aI21
aI0
ag289
aa(lp977
F0.039920366858496
aI79
aI0
aI0
ag291
aa(lp978
F0.02494333496611
aI84
aI0
aI0
ag293
aa(lp979
F0.440068772323
aI84
aI52
aI0
ag295
aa(lp980
F0.00013411405871011
aI79
aI32
aI0
ag297
aa(lp981
F0.040018253192557
aI79
aI0
aI0
ag299
aa(lp982
F0.024470030968814
aI84
aI0
aI0
ag301
aa(lp983
F0.45505508404676
aI79
aI35
aI0
ag303
aa(lp984
F0.0080173952085261
aI84
aI49
aI0
ag305
aa(lp985
F0.032389210337897
aI79
aI0
aI0
ag307
aa(lp986
F0.024538301573557
aI84
aI0
aI0
ag309
aa(lp987
F0.45541486323077
aI79
aI35
aI0
ag311
aa(lp988
F0.0073897810887047
aI84
aI51
aI0
ag313
aa(lp989
F0.033110024271991
aI79
aI0
aI0
ag315
aa(lp990
F0.024436413870944
aI84
aI0
aI0
ag317
aa(lp991
F0.39060220859528
aI79
aI15
aI0
ag319
aa(lp992
F0.007779204040844
aI84
aI48
aI0
ag321
aa(lp993
F0.032514485775209
aI79
aI0
aI0
ag323
aa(lp994
F0.032516297647362
aI84
aI0
aI0
ag325
aa(lp995
F0.44705187904992
aI84
aI51
aI0
ag327
aa(lp996
F0.00010089787542711
aI79
aI32
aI0
ag329
aa(lp997
F0.040543892597498
aI79
aI0
aI0
ag331
aa(lp998
F0.02420089076486
aI84
aI0
aI0
ag333
aa(lp999
F0.41389202430719
aI79
aI22
aI0
ag335
aa(lp1000
F0.0074863715158244
aI84
aI41
aI0
ag337
aa(lp1001
F0.03296621395566
aI79
aI0
aI0
ag339
aa(lp1002
F0.024402816988186
aI84
aI0
aI0
ag341
aa(lp1003
F0.44719608413084
aI84
aI43
aI0
ag343
aa(lp1004
F0.00015661914721932
aI79
aI22
aI0
ag345
aa(lp1005
F0.040173361978987
aI79
aI0
aI0
ag347
aa(lp1006
F0.024207241589011
aI84
aI0
aI0
ag349
aa(lp1007
F0.42949943773942
aI84
aI26
aI0
ag351
aa(lp1008
F0.0001172230879547
aI79
aI24
aI0
ag353
aa(lp1009
F0.039952950578027
aI79
aI0
aI0
ag355
aa(lp1010
F0.024889831094242
aI84
aI0
aI0
ag357
aa(lp1011
F0.41533390547784
aI84
aI51
aI0
ag359
aa(lp1012
F0.00012735300333588
aI79
aI18
aI0
ag361
aa(lp1013
F0.040431506807181
aI79
aI0
aI0
ag363
aa(lp1014
F0.02429341619245
aI84
aI0
aI0
ag365
aa(lp1015
F0.42210317223316
aI84
aI44
aI0
ag367
aa(lp1016
F0.00016943417358561
aI79
aI27
aI0
ag369
aa(lp1017
F0.040326141479909
aI79
aI0
aI0
ag371
aa(lp1018
F0.024446413222904
aI84
aI0
aI0
ag373
aa(lp1019
F0.45511732709178
aI84
aI28
aI0
ag375
aa(lp1020
F9.2512990704563e-05
aI79
aI29
aI0
ag377
aa(lp1021
F0.040652222794733
aI79
aI0
aI0
ag379
aa(lp1022
F0.024484679575608
aI84
aI0
aI0
ag381
aa(lp1023
F0.45637887811631
aI79
aI45
aI0
ag383
aa(lp1024
F0.0078125647614797
aI84
aI50
aI0
ag385
aa(lp1025
F0.032140295684258
aI79
aI0
aI0
ag387
aa(lp1026
F0.032506130467482
aI84
aI0
aI0
ag389
aa(lp1027
F0.36277768721902
aI0
aI0
aI0
ag391
aaaI0
aI0
aI0
aI0
a(lp1028
(lp1029
F0.0
aI31
aI30
aI2
ag394
aa(lp1030
F6.9273624896377
aI31
aI0
aI2
ag396
aa(lp1031
F0.072637510362256
aI29
aI51
aI2
ag398
aa(lp1032
F0.9327855416077
aI29
aI0
aI2
ag400
aa(lp1033
F0.0672144583923
aI0
aI0
aI0
ag402
aaaI0
aI0
aI0
aI0
aI0
aI0
a(lp1034
(lp1035
F0.0058519137426174
aI36
aI111
aI3
ag405
aa(lp1036
F0.15432308921709
aI36
aI0
aI3
ag407
aa(lp1037
F0.62589725224507
aI36
aI85
aI3
ag409
aa(lp1038
F0.14406853286573
aI36
aI0
aI3
ag411
aa(lp1039
F0.057243921751706
aI38
aI106
aI3
ag413
aa(lp1040
F0.13774099489342
aI38
aI0
aI3
ag415
aa(lp1041
F0.19513016283827
aI36
aI89
aI3
ag417
aa(lp1042
F0.21950825882982
aI36
aI0
aI3
ag419
aa(lp1043
F0.50340100130484
aI36
aI92
aI3
ag421
aa(lp1044
F0.162353672373
aI36
aI0
aI3
ag423
aa(lp1045
F0.34877806990858
aI36
aI89
aI3
ag425
aa(lp1046
F0.17205550014455
aI36
aI0
aI3
ag427
aa(lp1047
F0.28358670024977
aI38
aI111
aI3
ag429
aa(lp1048
F0.98006092963556
aI38
aI0
aI3
ag431
aa(lp1049
F0.0099999999999909
aI0
aI0
aI0
ag433
aaa(lp1050
(lp1051
F0.0098008513450623
aI36
aI94
aI2
ag436
aa(lp1052
F0.026507604879953
aI36
aI0
aI2
ag438
aa(lp1053
F0.30046597176624
aI36
aI94
aI2
ag440
aa(lp1054
F0.081567486688527
aI36
aI0
aI2
ag442
aa(lp1055
F0.38015568032915
aI36
aI99
aI2
ag444
aa(lp1056
F0.081999645028418
aI36
aI0
aI2
ag446
aa(lp1057
F0.64208892130682
aI36
aI101
aI2
ag448
aa(lp1058
F0.081168732575406
aI36
aI0
aI2
ag450
aa(lp1059
F0.30900926121922
aI36
aI101
aI2
ag452
aa(lp1060
F0.080894907389848
aI36
aI0
aI2
ag454
aa(lp1061
F0.40688197606323
aI36
aI106
aI2
ag456
aa(lp1062
F0.12905925603036
aI36
aI0
aI2
ag458
aa(lp1063
F1.4768467641195
aI36
aI111
aI2
ag460
aa(lp1064
F0.090378505433364
aI36
aI0
aI2
ag462
aa(lp1065
F0.250848124924
aI36
aI101
aI2
ag464
aa(lp1066
F0.0971450823738
aI36
aI0
aI2
ag466
aa(lp1067
F0.40734484876975
aI36
aI108
aI2
ag468
aa(lp1068
F0.1137053412474
aI36
aI0
aI2
ag470
aa(lp1069
F0.58497969008977
aI36
aI101
aI2
ag472
aa(lp1070
F0.10504128265688
aI36
aI0
aI2
ag474
aa(lp1071
F0.24426363252155
aI36
aI111
aI2
ag476
aa(lp1072
F0.11329614024089
aI36
aI0
aI2
ag478
aa(lp1073
F0.38368585894636
aI36
aI87
aI2
ag480
aa(lp1074
F0.11260402529092
aI36
aI0
aI2
ag482
aa(lp1075
F0.53751360981914
aI39
aI73
aI2
ag484
aa(lp1076
F0.82725224954834
aI39
aI0
aI2
ag486
aa(lp1077
F0.12549454939608
aI0
aI0
aI0
ag488
aaa(lp1078
(lp1079
F0.0271289825439
aI60
aI48
aI0
ag491
aa(lp1080
F-0.020722514510453
aI67
aI82
aI0
ag493
aa(lp1081
F0.073738783174804
aI67
aI0
aI0
ag495
aa(lp1082
F0.00012773062735505
aI60
aI0
aI0
ag497
aa(lp1083
F0.25014424230039
aI68
aI85
aI0
ag499
aa(lp1084
F0.00011710658986885
aI62
aI63
aI0
ag501
aa(lp1085
F0.049257365232052
aI62
aI0
aI0
ag503
aa(lp1086
F0.0075171791804678
aI68
aI0
aI0
ag505
aa(lp1087
F3.564225596763
aI65
aI73
aI0
ag507
aa(lp1088
F0.00016083641776277
aI58
aI39
aI0
ag509
aa(lp1089
F0.048295915884182
aI58
aI0
aI0
ag511
aa(lp1090
F0.016609337261571
aI65
aI0
aI0
ag513
aa(lp1091
F0.30843200122422
aI60
aI45
aI0
ag515
aa(lp1092
F0.007651925612663
aI67
aI64
aI0
ag517
aa(lp1093
F0.032666642173581
aI60
aI0
aI0
ag519
aa(lp1094
F0.01629604763707
aI67
aI0
aI0
ag521
aa(lp1095
F3.6689009763479
aI67
aI73
aI0
ag523
aa(lp1096
F0.00010501099382054
aI60
aI62
aI0
ag525
aa(lp1097
F0.05639285054508
aI60
aI0
aI0
ag527
aa(lp1098
F0.024596569751111
aI67
aI0
aI0
ag529
aa(lp1099
F0.21954433261044
aI68
aI96
aI0
ag531
aa(lp1100
F9.2711888100894e-05
aI62
aI64
aI0
ag533
aa(lp1101
F0.04118107259319
aI62
aI0
aI0
ag535
aa(lp1102
F0.024168265077151
aI68
aI0
aI0
ag537
aa(lp1103
F3.597910411866
aI65
aI75
aI0
ag539
aa(lp1104
F0.00011024142759197
aI58
aI62
aI0
ag541
aa(lp1105
F0.064466386618051
aI58
aI0
aI0
ag543
aa(lp1106
F0.016885118856862
aI65
aI0
aI0
ag545
aa(lp1107
F0.682138268073
aI58
aI62
aI0
ag547
aa(lp1108
F0.0076672299740039
aI65
aI72
aI0
ag549
aa(lp1109
F0.057109349343136
aI65
aI0
aI0
ag551
aa(lp1110
F0.007903234810783
aI58
aI0
aI0
ag553
aa(lp1111
F0.68988561560354
aI60
aI25
aI0
ag555
aa(lp1112
F0.0077658544614678
aI67
aI66
aI0
ag557
aa(lp1113
F0.032869177524844
aI60
aI0
aI0
ag559
aa(lp1114
F0.008472793624378
aI67
aI0
aI0
ag561
aa(lp1115
F1.941643900238
aI60
aI19
aI0
ag563
aa(lp1116
F0.015578565252554
aI67
aI67
aI0
ag565
aa(lp1117
F0.041163111024161
aI67
aI0
aI0
ag567
aa(lp1118
F0.0083471950133571
aI60
aI0
aI0
ag569
aa(lp1119
F0.40345457836906
aI0
aI0
aI0
ag571
aaa(lp1120
(lp1121
F0.030269241332917
aI70
aI35
aI1
ag574
aa(lp1122
F0.018752844154051
aI72
aI42
aI1
ag576
aa(lp1123
F0.089351503153694
aI70
aI0
aI1
ag578
aa(lp1124
F0.52010765005207
aI70
aI38
aI1
ag580
aa(lp1125
F0.056920454093415
aI72
aI0
aI1
ag582
aa(lp1126
F7.3509722723456
aI65
aI34
aI1
ag584
aa(lp1127
F0.032399692913486
aI70
aI0
aI1
ag586
aa(lp1128
F3.9403890974247
aI63
aI8
aI1
ag588
aa(lp1129
F0.13822303498864
aI65
aI0
aI1
ag590
aa(lp1130
F3.6222733091859
aI63
aI0
aI1
ag592
aa(lp1131
F0.20034090035551
aI0
aI0
aI0
ag594
aaaI0
aI0
aI0
aI0
aI0
aI0
a(lp1132
(lp1133
F0.0
aI87
aI25
aI0
ag597
aa(lp1134
F0.47094667630518
aI87
aI0
aI0
ag599
aa(lp1135
F0.029053323694825
aI86
aI2
aI0
ag601
aa(lp1136
F0.5
aI80
aI16
aI0
ag603
aa(lp1137
F0.11647862744621
aI86
aI0
aI0
ag605
aa(lp1138
F0.25883728117151
aI80
aI0
aI0
ag607
aa(lp1139
F0.12468409138228
aI87
aI60
aI0
ag609
aa(lp1140
F0.5
aI86
aI44
aI0
ag611
aa(lp1141
F0.08519482293832
aI87
aI0
aI0
ag613
aa(lp1142
F0.41480517706168
aI79
aI52
aI0
ag615
aa(lp1143
F0.13492592573402
aI86
aI0
aI0
ag617
aa(lp1144
F0.32856070059051
aI79
aI0
aI0
ag619
aa(lp1145
F0.036513373675461
aI86
aI67
aI0
ag621
aa(lp1146
F0.5
aI84
aI63
aI0
ag623
aa(lp1147
F0.16592567415501
aI86
aI0
aI0
ag625
aa(lp1148
F0.33407432584499
aI79
aI35
aI0
ag627
aa(lp1149
F0.1421982817169
aI84
aI0
aI0
ag629
aa(lp1150
F0.3130268192208
aI79
aI0
aI0
ag631
aa(lp1151
F0.044774899062304
aI86
aI60
aI0
ag633
aa(lp1152
F0.5
aI84
aI80
aI0
ag635
aa(lp1153
F0.32190032477047
aI86
aI0
aI0
ag637
aa(lp1154
F0.17809967522953
aI74
aI65
aI0
ag639
aa(lp1155
F0.029618630913319
aI84
aI0
aI0
ag641
aa(lp1156
F0.47038136908668
aI75
aI59
aI0
ag643
aa(lp1157
F0.046032660006858
aI74
aI0
aI0
ag645
aa(lp1158
F0.45396733999314
aI74
aI60
aI0
ag647
aa(lp1159
F0.10102892243731
aI75
aI0
aI0
ag649
aa(lp1160
F0.39897107756269
aI75
aI45
aI0
ag651
aa(lp1161
F0.11622182989913
aI74
aI0
aI0
ag653
aa(lp1162
F0.38377817010087
aI77
aI58
aI0
ag655
aa(lp1163
F0.036948322635453
aI75
aI0
aI0
ag657
aa(lp1164
F0.43276159670813
aI77
aI0
aI0
ag659
aa(lp1165
F0.030290080656414
aI0
aI0
aI0
ag661
aaa(lp1166
(lp1167
F0.0
aI63
aI10
aI1
ag664
aa(lp1168
F0.3746869799138
aI63
aI0
aI1
ag666
aa(lp1169
F0.1253130200862
aI62
aI3
aI1
ag668
aa(lp1170
F0.5
aI60
aI12
aI1
ag670
aa(lp1171
F0.044245562739434
aI62
aI0
aI1
ag672
aa(lp1172
F0.35368720005363
aI60
aI0
aI1
ag674
aa(lp1173
F0.10206723720694
aI55
aI3
aI1
ag676
aa(lp1174
F0.4785701018759
aI55
aI0
aI1
ag678
aa(lp1175
F0.021429898124097
aI55
aI18
aI1
ag680
aa(lp1176
F0.5
aI58
aI6
aI1
ag682
aa(lp1177
F0.036191557659549
aI55
aI0
aI1
ag684
aa(lp1178
F0.29714177567378
aI55
aI1
aI1
ag686
aa(lp1179
F0.048023510354748
aI58
aI0
aI1
ag688
aa(lp1180
F8.7574913213615
aI55
aI0
aI1
ag690
aa(lp1181
F0.36115183495046
aI0
aI0
aI0
ag692
aaaI0
aI0
aI0
aI0
aI0
aI0
aI0
aI0
aI0
aI0
aI0
aI0
aI0
aI0
aI0
aI0
aI0
aI0
aI0
aI0
aI0
aI0
aI0
aI0
aI0
aI0
aI0
aI0
aI0
aI0
aI0
aI0
aI0
aI0
aI0
aI0
aI0
aI0
aI0
aI0
aI0
aI0
aI0
aI0
aI0
aI0
aI0
aI0
aI0
aI0
aI0
aI0
aI0
aI0
aI0
aI0
aI0
aI0
aI0
aI0
aI0
aI0
aI0
aa(lp1182
(dp1183
a(dp1184
a(dp1185
a(dp1186
a(dp1187
a(dp1188
a(dp1189
a(dp1190
a(dp1191
a(dp1192
a(dp1193
a(dp1194
g706
I43
sg707
I0
sa(dp1195
g706
I44
sg707
I0
sa(dp1196
g706
I45
sg707
I0
sa(dp1197
a(dp1198
a(dp1199
a(dp1200
a(dp1201
g706
I52
sg707
I1
sa(dp1202
a(dp1203
a(dp1204
a(dp1205
a(dp1206
a(dp1207
a(dp1208
g706
I61
sg707
I01
sa(dp1209
g706
I62
sg707
I0
sa(dp1210
g706
I63
sg707
I01
sa(dp1211
g706
I64
sg707
I0
sa(dp1212
a(dp1213
a(dp1214
a(dp1215
a(dp1216
a(dp1217
a(dp1218
g706
I73
sg707
I1
sa(dp1219
g706
I74
sg707
I1
sa(dp1220
a(dp1221
a(dp1222
a(dp1223
a(dp1224
a(dp1225
a(dp1226
a(dp1227
a(dp1228
a(dp1229
a(dp1230
a(dp1231
a(dp1232
a(dp1233
a(dp1234
a(dp1235
a(dp1236
a(dp1237
a(dp1238
a(dp1239
a(dp1240
a(dp1241
a(dp1242
a(dp1243
a(dp1244
a(dp1245
a(dp1246
a(dp1247
a(dp1248
a(dp1249
a(dp1250
a(dp1251
a(dp1252
a(dp1253
a(dp1254
a(dp1255
a(dp1256
a(dp1257
a(dp1258
a(dp1259
a(dp1260
a(dp1261
a(dp1262
a(dp1263
a(dp1264
a(dp1265
a(dp1266
a(dp1267
a(dp1268
a(dp1269
a(dp1270
a(dp1271
a(dp1272
a(dp1273
a(dp1274
a(dp1275
a(dp1276
a(dp1277
a(dp1278
a(dp1279
a(dp1280
a(dp1281
a(dp1282
aa(lp1283
I60
aI60
aI36
aI36
aa(lp1284
(lp1285
I0
aI2
aI3
aI5
aI7
aI8
aI10
aa(lp1286
I0
aI2
aI3
aI5
aI7
aI8
aI10
aa(lp1287
I0
aI2
aI3
aI5
aI7
aI8
aI10
aa(lp1288
I0
aI2
aI3
aI5
aI7
aI8
aI10
aa(lp1289
I0
aI2
aI3
aI5
aI7
aI8
aI10
aa(lp1290
I0
aI1
aI2
aI3
aI4
aI5
aI6
aI7
aI8
aI9
aI10
aI11
aaa(lp1291
(lp1292
(lp1293
I0
aI0
aI0
aI0
aI0
aI0
aI0
aI0
aI0
aI0
aI0
aI0
aa(lp1294
I0
aI0
aI0
aI0
aI0
aI0
aI0
aI0
aI0
aI0
aI0
aI0
aa(lp1295
I0
aI0
aI0
aI0
aI0
aI0
aI0
aI0
aI0
aI0
aI0
aI0
aa(lp1296
I0
aI0
aI0
aI0
aI0
aI0
aI0
aI0
aI0
aI0
aI0
aI0
aaa(lp1297
(lp1298
I0
aI0
aI0
aI0
aI0
aI0
aI0
aI0
aI0
aI0
aI0
aI0
aa(lp1299
I0
aI0
aI0
aI0
aI0
aI0
aI0
aI0
aI0
aI0
aI0
aI0
aa(lp1300
I0
aI0
aI0
aI0
aI0
aI0
aI0
aI0
aI0
aI0
aI0
aI0
aa(lp1301
I0
aI0
aI0
aI0
aI0
aI0
aI0
aI0
aI0
aI0
aI0
aI0
aaa(lp1302
(lp1303
I0
aI0
aI0
aI0
aI0
aI0
aI0
aI0
aI0
aI0
aI0
aI0
aa(lp1304
I0
aI0
aI0
aI0
aI0
aI0
aI0
aI0
aI0
aI0
aI0
aI0
aa(lp1305
I0
aI0
aI0
aI0
aI0
aI0
aI0
aI0
aI0
aI0
aI0
aI0
aa(lp1306
I0
aI0
aI0
aI0
aI0
aI0
aI0
aI0
aI0
aI0
aI0
aI0
aaa(lp1307
(lp1308
I0
aI0
aI0
aI0
aI0
aI0
aI0
aI0
aI0
aI0
aI0
aI0
aa(lp1309
I0
aI0
aI0
aI0
aI0
aI0
aI0
aI0
aI0
aI0
aI0
aI0
aa(lp1310
I0
aI0
aI0
aI0
aI0
aI0
aI0
aI0
aI0
aI0
aI0
aI0
aa(lp1311
I0
aI0
aI0
aI0
aI0
aI0
aI0
aI0
aI0
aI0
aI0
aI0
aaaa(lp1312
(lp1313
I0
aI0
aI0
aI0
aI0
aI0
aI0
aI0
aI0
aI0
aI0
aI0
aa(lp1314
I0
aI0
aI0
aI0
aI0
aI0
aI0
aI0
aI0
aI0
aI0
aI0
aa(lp1315
I0
aI0
aI0
aI0
aI0
aI0
aI0
aI0
aI0
aI0
aI0
aI0
aa(lp1316
I0
aI0
aI0
aI0
aI0
aI0
aI0
aI0
aI0
aI0
aI0
aI0
aaaa(lp1317
(lp1318
I0
aI0
aI0
a(lp1319
(lp1320
F0.00087454915046692
aI55
aI75
aI0
aS'on'
p1321
aa(lp1322
F0.10299670818586
aI55
aI0
aI0
aS'off'
p1323
aa(lp1324
F0.38915913092114
aI58
aI85
aI0
aS'on'
p1325
aa(lp1326
F0.12097222588545
aI58
aI0
aI0
aS'off'
p1327
aa(lp1328
F0.39042979250189
aI60
aI94
aI0
aS'on'
p1329
aa(lp1330
F0.10522498939645
aI60
aI0
aI0
aS'off'
p1331
aa(lp1332
F0.42257069577681
aI63
aI70
aI0
aS'on'
p1333
aa(lp1334
F0.097517623762542
aI63
aI0
aI0
aS'off'
p1335
aa(lp1336
F0.32478964080929
aI62
aI72
aI0
aS'on'
p1337
aa(lp1338
F0.11464007913492
aI62
aI0
aI0
aS'off'
p1339
aa(lp1340
F0.040441650651701
aI63
aI71
aI0
aS'on'
p1341
aa(lp1342
F0.18725670073127
aI62
aI89
aI0
aS'on'
p1343
aa(lp1344
F0.0073826968591675
aI63
aI0
aI0
aS'off'
p1345
aa(lp1346
F0.13843863554757
aI62
aI0
aI0
aS'off'
p1347
aa(lp1348
F0.06493115820831
aI60
aI94
aI0
aS'on'
p1349
aa(lp1350
F0.13126563754849
aI60
aI0
aI0
aS'off'
p1351
aa(lp1352
F0.24148328375577
aI58
aI92
aI0
aS'on'
p1353
aa(lp1354
F0.097435192431476
aI58
aI0
aI0
aS'off'
p1355
aa(lp1356
F0.064458211530109
aI55
aI94
aI0
aS'on'
p1357
aa(lp1358
F0.12200459377527
aI55
aI0
aI0
aS'off'
p1359
aa(lp1360
F0.33333400407173
aI58
aI101
aI0
aS'on'
p1361
aa(lp1362
F0.12977504001083
aI58
aI0
aI0
aS'off'
p1363
aa(lp1364
F0.38932464770824
aI60
aI87
aI0
aS'on'
p1365
aa(lp1366
F0.10680366512406
aI60
aI0
aI0
aS'off'
p1367
aa(lp1368
F0.38082821300122
aI55
aI94
aI0
aS'on'
p1369
aa(lp1370
F0.11459221895802
aI55
aI0
aI0
aS'off'
p1371
aa(lp1372
F0.38106901456194
aI0
aI0
aI0
aS'timeAfterLastHit'
p1373
aaaI0
aI0
aI0
aI0
aI0
aI0
aI0
a(lp1374
(lp1375
F0.025664790643532
aI77
aI8
aI0
ag5
aa(lp1376
F0.0077427619971786
aI82
aI35
aI0
ag7
aa(lp1377
F0.03241801650438
aI77
aI0
aI0
ag9
aa(lp1378
F0.024422447429515
aI82
aI0
aI0
ag11
aa(lp1379
F0.43126069827804
aI77
aI8
aI0
ag13
aa(lp1380
F0.007427867176375
aI82
aI53
aI0
ag15
aa(lp1381
F0.032636992164498
aI77
aI0
aI0
ag17
aa(lp1382
F0.024284187600642
aI82
aI0
aI0
ag19
aa(lp1383
F0.42983195218699
aI77
aI8
aI0
ag21
aa(lp1384
F0.0083132982474581
aI82
aI58
aI0
ag23
aa(lp1385
F0.040596788924177
aI77
aI0
aI0
ag25
aa(lp1386
F0.016411887851973
aI82
aI0
aI0
ag27
aa(lp1387
F0.45477170700497
aI77
aI2
aI0
ag29
aa(lp1388
F0.0090871996267197
aI82
aI48
aI0
ag31
aa(lp1389
F0.031458041789847
aI77
aI0
aI0
ag33
aa(lp1390
F0.033215529433846
aI82
aI0
aI0
ag35
aa(lp1391
F0.42079859679143
aI77
aI31
aI0
ag37
aa(lp1392
F0.0078085929692406
aI82
aI44
aI0
ag39
aa(lp1393
F0.048677872324788
aI77
aI0
aI0
ag41
aa(lp1394
F0.016426534875791
aI82
aI0
aI0
ag43
aa(lp1395
F0.44649933078017
aI77
aI17
aI0
ag45
aa(lp1396
F0.0082286494719028
aI82
aI15
aI0
ag47
aa(lp1397
F0.032811627285582
aI77
aI0
aI0
ag49
aa(lp1398
F0.02525802464902
aI82
aI0
aI0
ag51
aa(lp1399
F0.46306226391107
aI82
aI38
aI0
ag53
aa(lp1400
F0.00014230619649425
aI77
aI38
aI0
ag55
aa(lp1401
F0.039800871875059
aI77
aI0
aI0
ag57
aa(lp1402
F0.025365599643237
aI82
aI0
aI0
ag59
aa(lp1403
F0.4385189976424
aI82
aI50
aI0
ag61
aa(lp1404
F0.00010987316500177
aI77
aI23
aI0
ag63
aa(lp1405
F0.039999842635098
aI77
aI0
aI0
ag65
aa(lp1406
F0.02458561317826
aI82
aI0
aI0
ag67
aa(lp1407
F0.35236123574532
aI0
aI0
aI0
ag69
aaa(lp1408
(lp1409
F0.068872315523095
aI79
aI23
aI0
ag72
aa(lp1410
F0.0081239476776318
aI84
aI41
aI0
ag74
aa(lp1411
F0.032460509533848
aI79
aI0
aI0
ag76
aa(lp1412
F0.024220901860645
aI84
aI0
aI0
ag78
aa(lp1413
F0.37377596858141
aI84
aI42
aI0
ag80
aa(lp1414
F0.00012353198962956
aI79
aI10
aI0
ag82
aa(lp1415
F0.040207227675637
aI79
aI0
aI0
ag84
aa(lp1416
F0.024409147596998
aI84
aI0
aI0
ag86
aa(lp1417
F0.43019534421683
aI84
aI59
aI0
ag88
aa(lp1418
F8.5051182622919e-05
aI79
aI43
aI0
ag90
aa(lp1419
F0.040151136558279
aI79
aI0
aI0
ag92
aa(lp1420
F0.02443894983162
aI84
aI0
aI0
ag94
aa(lp1421
F0.42210732270723
aI79
aI45
aI0
ag96
aa(lp1422
F0.0079437449744546
aI84
aI43
aI0
ag98
aa(lp1423
F0.03239588745646
aI79
aI0
aI0
ag100
aa(lp1424
F0.032369126204685
aI84
aI0
aI0
ag102
aa(lp1425
F0.39799526841125
aI84
aI50
aI0
ag104
aa(lp1426
F0.00013097199962431
aI79
aI35
aI0
ag106
aa(lp1427
F0.040083417601181
aI79
aI0
aI0
ag108
aa(lp1428
F0.032697687538075
aI84
aI0
aI0
ag110
aa(lp1429
F0.48671885602425
aI79
aI51
aI0
ag112
aa(lp1430
F0.0082311108576505
aI84
aI56
aI0
ag114
aa(lp1431
F0.032481341091852
aI79
aI0
aI0
ag116
aa(lp1432
F0.032856384251318
aI84
aI0
aI0
ag118
aa(lp1433
F0.41395776672948
aI79
aI16
aI0
ag120
aa(lp1434
F0.0078875450467422
aI84
aI50
aI0
ag122
aa(lp1435
F0.032160996769562
aI79
aI0
aI0
ag124
aa(lp1436
F0.032320807677479
aI84
aI0
aI0
ag126
aa(lp1437
F0.47984950565979
aI84
aI66
aI0
ag128
aa(lp1438
F0.00013575181696979
aI79
aI54
aI0
ag130
aa(lp1439
F0.048778793490555
aI79
aI0
aI0
ag132
aa(lp1440
F0.016402230351559
aI84
aI0
aI0
ag134
aa(lp1441
F0.37543145111158
aI0
aI0
aI0
ag136
aaa(lp1442
(lp1443
F0.059565931931957
aI82
aI30
aI0
ag139
aa(lp1444
F0.057003354672361
aI82
aI0
aI0
ag141
aa(lp1445
F0.43154830036929
aI82
aI45
aI0
ag143
aa(lp1446
F0.00017513231887278
aI77
aI19
aI0
ag145
aa(lp1447
F0.048776448647914
aI77
aI0
aI0
ag147
aa(lp1448
F0.0075839455751066
aI82
aI0
aI0
ag149
aa(lp1449
F0.43906441044351
aI82
aI51
aI0
ag151
aa(lp1450
F0.00011871332435476
aI77
aI4
aI0
ag153
aa(lp1451
F0.047944263533964
aI77
aI0
aI0
ag155
aa(lp1452
F0.01600621109651
aI82
aI0
aI0
ag157
aa(lp1453
F0.43172721485371
aI82
aI59
aI0
ag159
aa(lp1454
F8.3853141859436e-05
aI77
aI47
aI0
ag161
aa(lp1455
F0.048830644001782
aI77
aI0
aI0
ag163
aa(lp1456
F0.015976345095396
aI82
aI0
aI0
ag165
aa(lp1457
F0.41352620200587
aI82
aI36
aI0
ag167
aa(lp1458
F0.00010902009626079
aI77
aI53
aI0
ag169
aa(lp1459
F0.040381447862728
aI77
aI0
aI0
ag171
aa(lp1460
F0.032668612512225
aI82
aI0
aI0
ag173
aa(lp1461
F0.43898855054294
aI82
aI27
aI0
ag175
aa(lp1462
F0.00014896775792295
aI77
aI7
aI0
ag177
aa(lp1463
F0.04863191885579
aI77
aI0
aI0
ag179
aa(lp1464
F0.0076917380988561
aI82
aI0
aI0
ag181
aa(lp1465
F0.47178220074738
aI82
aI27
aI0
ag183
aa(lp1466
F0.00019045689555242
aI77
aI15
aI0
ag185
aa(lp1467
F0.040353379759608
aI77
aI0
aI0
ag187
aa(lp1468
F0.024279611383463
aI82
aI0
aI0
ag189
aa(lp1469
F0.44712058163896
aI82
aI54
aI0
ag191
aa(lp1470
F0.00016789893925306
aI77
aI16
aI0
ag193
aa(lp1471
F0.0483572172202
aI77
aI0
aI0
ag195
aa(lp1472
F0.0079279558069629
aI82
aI0
aI0
ag197
aa(lp1473
F0.43968649573867
aI82
aI46
aI0
ag199
aa(lp1474
F0.00012270994443497
aI77
aI25
aI0
ag201
aa(lp1475
F0.048390646275038
aI77
aI0
aI0
ag203
aa(lp1476
F0.016524206845816
aI82
aI0
aI0
ag205
aa(lp1477
F0.42153903185113
aI77
aI38
aI0
ag207
aa(lp1478
F0.0091400601809255
aI82
aI28
aI0
ag209
aa(lp1479
F0.031352216529967
aI77
aI0
aI0
ag211
aa(lp1480
F0.024362073737393
aI82
aI0
aI0
ag213
aa(lp1481
F0.43972856139726
aI82
aI59
aI0
ag215
aa(lp1482
F0.00011334771443217
aI77
aI53
aI0
ag217
aa(lp1483
F0.057233064627326
aI77
aI0
aI0
ag219
aa(lp1484
F0.0077862338650903
aI82
aI0
aI0
ag221
aa(lp1485
F0.43909009797699
aI77
aI41
aI0
ag223
aa(lp1486
F0.0079421833286233
aI82
aI58
aI0
ag225
aa(lp1487
F0.048890927561843
aI77
aI0
aI0
ag227
aa(lp1488
F0.0078819650275364
aI82
aI0
aI0
ag229
aa(lp1489
F0.38987016927422
aI82
aI62
aI0
ag231
aa(lp1490
F0.00012221582210259
aI77
aI57
aI0
ag233
aa(lp1491
F0.056581978836675
aI77
aI0
aI0
ag235
aa(lp1492
F0.0078933193949524
aI82
aI0
aI0
ag237
aa(lp1493
F0.43915518459949
aI77
aI38
aI0
ag239
aa(lp1494
F0.007728201940381
aI82
aI54
aI0
ag241
aa(lp1495
F0.03226746688506
aI77
aI0
aI0
ag243
aa(lp1496
F0.033079661073316
aI82
aI0
aI0
ag245
aa(lp1497
F0.43021374084515
aI82
aI62
aI0
ag247
aa(lp1498
F0.00012327714944149
aI77
aI56
aI0
ag249
aa(lp1499
F0.039999211709073
aI77
aI0
aI0
ag251
aa(lp1500
F0.041007812702219
aI82
aI0
aI0
ag253
aa(lp1501
F0.46258710761072
aI82
aI59
aI0
ag255
aa(lp1502
F0.00011430335212026
aI77
aI41
aI0
ag257
aa(lp1503
F0.040874756850599
aI77
aI0
aI0
ag259
aa(lp1504
F0.023634389983272
aI82
aI0
aI0
ag261
aa(lp1505
F0.38184743794204
aI84
aI54
aI0
ag263
aa(lp1506
F0.0001084949046799
aI79
aI3
aI0
ag265
aa(lp1507
F0.040424992813087
aI79
aI0
aI0
ag267
aa(lp1508
F0.01657246323407
aI84
aI0
aI0
ag269
aa(lp1509
F0.44704551117593
aI79
aI35
aI0
ag271
aa(lp1510
F0.0083990144555628
aI84
aI58
aI0
ag273
aa(lp1511
F0.048407106754212
aI79
aI0
aI0
ag275
aa(lp1512
F0.0081326883880593
aI84
aI0
aI0
ag277
aa(lp1513
F0.44669240752796
aI79
aI35
aI0
ag279
aa(lp1514
F0.0080993168589885
aI84
aI46
aI0
ag281
aa(lp1515
F0.032827786253165
aI79
aI0
aI0
ag283
aa(lp1516
F0.02407903854737
aI84
aI0
aI0
ag285
aa(lp1517
F0.45616604040924
aI84
aI49
aI0
ag287
aa(lp1518
F8.1031226272898e-05
aI79
aI21
aI0
ag289
aa(lp1519
F0.039920366858496
aI79
aI0
aI0
ag291
aa(lp1520
F0.02494333496611
aI84
aI0
aI0
ag293
aa(lp1521
F0.440068772323
aI84
aI52
aI0
ag295
aa(lp1522
F0.00013411405871011
aI79
aI32
aI0
ag297
aa(lp1523
F0.040018253192557
aI79
aI0
aI0
ag299
aa(lp1524
F0.024470030968814
aI84
aI0
aI0
ag301
aa(lp1525
F0.45505508404676
aI79
aI35
aI0
ag303
aa(lp1526
F0.0080173952085261
aI84
aI49
aI0
ag305
aa(lp1527
F0.032389210337897
aI79
aI0
aI0
ag307
aa(lp1528
F0.024538301573557
aI84
aI0
aI0
ag309
aa(lp1529
F0.45541486323077
aI79
aI35
aI0
ag311
aa(lp1530
F0.0073897810887047
aI84
aI51
aI0
ag313
aa(lp1531
F0.033110024271991
aI79
aI0
aI0
ag315
aa(lp1532
F0.024436413870944
aI84
aI0
aI0
ag317
aa(lp1533
F0.39060220859528
aI79
aI15
aI0
ag319
aa(lp1534
F0.007779204040844
aI84
aI48
aI0
ag321
aa(lp1535
F0.032514485775209
aI79
aI0
aI0
ag323
aa(lp1536
F0.032516297647362
aI84
aI0
aI0
ag325
aa(lp1537
F0.44705187904992
aI84
aI51
aI0
ag327
aa(lp1538
F0.00010089787542711
aI79
aI32
aI0
ag329
aa(lp1539
F0.040543892597498
aI79
aI0
aI0
ag331
aa(lp1540
F0.02420089076486
aI84
aI0
aI0
ag333
aa(lp1541
F0.41389202430719
aI79
aI22
aI0
ag335
aa(lp1542
F0.0074863715158244
aI84
aI41
aI0
ag337
aa(lp1543
F0.03296621395566
aI79
aI0
aI0
ag339
aa(lp1544
F0.024402816988186
aI84
aI0
aI0
ag341
aa(lp1545
F0.44719608413084
aI84
aI43
aI0
ag343
aa(lp1546
F0.00015661914721932
aI79
aI22
aI0
ag345
aa(lp1547
F0.040173361978987
aI79
aI0
aI0
ag347
aa(lp1548
F0.024207241589011
aI84
aI0
aI0
ag349
aa(lp1549
F0.42949943773942
aI84
aI26
aI0
ag351
aa(lp1550
F0.0001172230879547
aI79
aI24
aI0
ag353
aa(lp1551
F0.039952950578027
aI79
aI0
aI0
ag355
aa(lp1552
F0.024889831094242
aI84
aI0
aI0
ag357
aa(lp1553
F0.41533390547784
aI84
aI51
aI0
ag359
aa(lp1554
F0.00012735300333588
aI79
aI18
aI0
ag361
aa(lp1555
F0.040431506807181
aI79
aI0
aI0
ag363
aa(lp1556
F0.02429341619245
aI84
aI0
aI0
ag365
aa(lp1557
F0.42210317223316
aI84
aI44
aI0
ag367
aa(lp1558
F0.00016943417358561
aI79
aI27
aI0
ag369
aa(lp1559
F0.040326141479909
aI79
aI0
aI0
ag371
aa(lp1560
F0.024446413222904
aI84
aI0
aI0
ag373
aa(lp1561
F0.45511732709178
aI84
aI28
aI0
ag375
aa(lp1562
F9.2512990704563e-05
aI79
aI29
aI0
ag377
aa(lp1563
F0.040652222794733
aI79
aI0
aI0
ag379
aa(lp1564
F0.024484679575608
aI84
aI0
aI0
ag381
aa(lp1565
F0.45637887811631
aI79
aI45
aI0
ag383
aa(lp1566
F0.0078125647614797
aI84
aI50
aI0
ag385
aa(lp1567
F0.032140295684258
aI79
aI0
aI0
ag387
aa(lp1568
F0.032506130467482
aI84
aI0
aI0
ag389
aa(lp1569
F0.36277768721902
aI0
aI0
aI0
ag391
aaaI0
aI0
aI0
aI0
a(lp1570
(lp1571
F0.0
aI31
aI30
aI2
ag394
aa(lp1572
F6.9273624896377
aI31
aI0
aI2
ag396
aa(lp1573
F0.072637510362256
aI29
aI51
aI2
ag398
aa(lp1574
F0.9327855416077
aI29
aI0
aI2
ag400
aa(lp1575
F0.0672144583923
aI0
aI0
aI0
ag402
aaaI0
aI0
aI0
aI0
aI0
aI0
a(lp1576
(lp1577
F0.0058519137426174
aI36
aI111
aI3
ag405
aa(lp1578
F0.15432308921709
aI36
aI0
aI3
ag407
aa(lp1579
F0.62589725224507
aI36
aI85
aI3
ag409
aa(lp1580
F0.14406853286573
aI36
aI0
aI3
ag411
aa(lp1581
F0.057243921751706
aI38
aI106
aI3
ag413
aa(lp1582
F0.13774099489342
aI38
aI0
aI3
ag415
aa(lp1583
F0.19513016283827
aI36
aI89
aI3
ag417
aa(lp1584
F0.21950825882982
aI36
aI0
aI3
ag419
aa(lp1585
F0.50340100130484
aI36
aI92
aI3
ag421
aa(lp1586
F0.162353672373
aI36
aI0
aI3
ag423
aa(lp1587
F0.34877806990858
aI36
aI89
aI3
ag425
aa(lp1588
F0.17205550014455
aI36
aI0
aI3
ag427
aa(lp1589
F0.28358670024977
aI38
aI111
aI3
ag429
aa(lp1590
F0.98006092963556
aI38
aI0
aI3
ag431
aa(lp1591
F0.0099999999999909
aI0
aI0
aI0
ag433
aaa(lp1592
(lp1593
F0.0098008513450623
aI36
aI94
aI2
ag436
aa(lp1594
F0.026507604879953
aI36
aI0
aI2
ag438
aa(lp1595
F0.30046597176624
aI36
aI94
aI2
ag440
aa(lp1596
F0.081567486688527
aI36
aI0
aI2
ag442
aa(lp1597
F0.38015568032915
aI36
aI99
aI2
ag444
aa(lp1598
F0.081999645028418
aI36
aI0
aI2
ag446
aa(lp1599
F0.64208892130682
aI36
aI101
aI2
ag448
aa(lp1600
F0.081168732575406
aI36
aI0
aI2
ag450
aa(lp1601
F0.30900926121922
aI36
aI101
aI2
ag452
aa(lp1602
F0.080894907389848
aI36
aI0
aI2
ag454
aa(lp1603
F0.40688197606323
aI36
aI106
aI2
ag456
aa(lp1604
F0.12905925603036
aI36
aI0
aI2
ag458
aa(lp1605
F1.4768467641195
aI36
aI111
aI2
ag460
aa(lp1606
F0.090378505433364
aI36
aI0
aI2
ag462
aa(lp1607
F0.250848124924
aI36
aI101
aI2
ag464
aa(lp1608
F0.0971450823738
aI36
aI0
aI2
ag466
aa(lp1609
F0.40734484876975
aI36
aI108
aI2
ag468
aa(lp1610
F0.1137053412474
aI36
aI0
aI2
ag470
aa(lp1611
F0.58497969008977
aI36
aI101
aI2
ag472
aa(lp1612
F0.10504128265688
aI36
aI0
aI2
ag474
aa(lp1613
F0.24426363252155
aI36
aI111
aI2
ag476
aa(lp1614
F0.11329614024089
aI36
aI0
aI2
ag478
aa(lp1615
F0.38368585894636
aI36
aI87
aI2
ag480
aa(lp1616
F0.11260402529092
aI36
aI0
aI2
ag482
aa(lp1617
F0.53751360981914
aI39
aI73
aI2
ag484
aa(lp1618
F0.82725224954834
aI39
aI0
aI2
ag486
aa(lp1619
F0.12549454939608
aI0
aI0
aI0
ag488
aaa(lp1620
(lp1621
F0.0271289825439
aI60
aI48
aI0
ag491
aa(lp1622
F-0.020722514510453
aI67
aI82
aI0
ag493
aa(lp1623
F0.073738783174804
aI67
aI0
aI0
ag495
aa(lp1624
F0.00012773062735505
aI60
aI0
aI0
ag497
aa(lp1625
F0.25014424230039
aI68
aI85
aI0
ag499
aa(lp1626
F0.00011710658986885
aI62
aI63
aI0
ag501
aa(lp1627
F0.049257365232052
aI62
aI0
aI0
ag503
aa(lp1628
F0.0075171791804678
aI68
aI0
aI0
ag505
aa(lp1629
F3.564225596763
aI65
aI73
aI0
ag507
aa(lp1630
F0.00016083641776277
aI58
aI39
aI0
ag509
aa(lp1631
F0.048295915884182
aI58
aI0
aI0
ag511
aa(lp1632
F0.016609337261571
aI65
aI0
aI0
ag513
aa(lp1633
F0.30843200122422
aI60
aI45
aI0
ag515
aa(lp1634
F0.007651925612663
aI67
aI64
aI0
ag517
aa(lp1635
F0.032666642173581
aI60
aI0
aI0
ag519
aa(lp1636
F0.01629604763707
aI67
aI0
aI0
ag521
aa(lp1637
F3.6689009763479
aI67
aI73
aI0
ag523
aa(lp1638
F0.00010501099382054
aI60
aI62
aI0
ag525
aa(lp1639
F0.05639285054508
aI60
aI0
aI0
ag527
aa(lp1640
F0.024596569751111
aI67
aI0
aI0
ag529
aa(lp1641
F0.21954433261044
aI68
aI96
aI0
ag531
aa(lp1642
F9.2711888100894e-05
aI62
aI64
aI0
ag533
aa(lp1643
F0.04118107259319
aI62
aI0
aI0
ag535
aa(lp1644
F0.024168265077151
aI68
aI0
aI0
ag537
aa(lp1645
F3.597910411866
aI65
aI75
aI0
ag539
aa(lp1646
F0.00011024142759197
aI58
aI62
aI0
ag541
aa(lp1647
F0.064466386618051
aI58
aI0
aI0
ag543
aa(lp1648
F0.016885118856862
aI65
aI0
aI0
ag545
aa(lp1649
F0.682138268073
aI58
aI62
aI0
ag547
aa(lp1650
F0.0076672299740039
aI65
aI72
aI0
ag549
aa(lp1651
F0.057109349343136
aI65
aI0
aI0
ag551
aa(lp1652
F0.007903234810783
aI58
aI0
aI0
ag553
aa(lp1653
F0.68988561560354
aI60
aI25
aI0
ag555
aa(lp1654
F0.0077658544614678
aI67
aI66
aI0
ag557
aa(lp1655
F0.032869177524844
aI60
aI0
aI0
ag559
aa(lp1656
F0.008472793624378
aI67
aI0
aI0
ag561
aa(lp1657
F1.941643900238
aI60
aI19
aI0
ag563
aa(lp1658
F0.015578565252554
aI67
aI67
aI0
ag565
aa(lp1659
F0.041163111024161
aI67
aI0
aI0
ag567
aa(lp1660
F0.0083471950133571
aI60
aI0
aI0
ag569
aa(lp1661
F0.40345457836906
aI0
aI0
aI0
ag571
aaa(lp1662
(lp1663
F0.030269241332917
aI70
aI35
aI1
ag574
aa(lp1664
F0.018752844154051
aI72
aI42
aI1
ag576
aa(lp1665
F0.089351503153694
aI70
aI0
aI1
ag578
aa(lp1666
F0.52010765005207
aI70
aI38
aI1
ag580
aa(lp1667
F0.056920454093415
aI72
aI0
aI1
ag582
aa(lp1668
F7.3509722723456
aI65
aI34
aI1
ag584
aa(lp1669
F0.032399692913486
aI70
aI0
aI1
ag586
aa(lp1670
F3.9403890974247
aI63
aI8
aI1
ag588
aa(lp1671
F0.13822303498864
aI65
aI0
aI1
ag590
aa(lp1672
F3.6222733091859
aI63
aI0
aI1
ag592
aa(lp1673
F0.20034090035551
aI0
aI0
aI0
ag594
aaaI0
aI0
aI0
aI0
a(lp1674
(lp1675
F0.0
aI36
aI63
aI3
aS'on'
p1676
aa(lp1677
F0.1391171647565
aI36
aI0
aI3
aS'off'
p1678
aa(lp1679
F0.3608828352435
aI36
aI80
aI3
aS'on'
p1680
aa(lp1681
F1.4715797699846
aI36
aI0
aI3
aS'off'
p1682
aa(lp1683
F0.028420230015399
aI0
aI0
aI0
aS'timeAfterLastHit'
p1684
aaaI0
a(lp1685
(lp1686
F0.0
aI87
aI25
aI0
ag597
aa(lp1687
F0.47094667630518
aI87
aI0
aI0
ag599
aa(lp1688
F0.029053323694825
aI86
aI2
aI0
ag601
aa(lp1689
F0.5
aI80
aI16
aI0
ag603
aa(lp1690
F0.11647862744621
aI86
aI0
aI0
ag605
aa(lp1691
F0.25883728117151
aI80
aI0
aI0
ag607
aa(lp1692
F0.12468409138228
aI87
aI60
aI0
ag609
aa(lp1693
F0.5
aI86
aI44
aI0
ag611
aa(lp1694
F0.08519482293832
aI87
aI0
aI0
ag613
aa(lp1695
F0.41480517706168
aI79
aI52
aI0
ag615
aa(lp1696
F0.13492592573402
aI86
aI0
aI0
ag617
aa(lp1697
F0.32856070059051
aI79
aI0
aI0
ag619
aa(lp1698
F0.036513373675461
aI86
aI67
aI0
ag621
aa(lp1699
F0.5
aI84
aI63
aI0
ag623
aa(lp1700
F0.16592567415501
aI86
aI0
aI0
ag625
aa(lp1701
F0.33407432584499
aI79
aI35
aI0
ag627
aa(lp1702
F0.1421982817169
aI84
aI0
aI0
ag629
aa(lp1703
F0.3130268192208
aI79
aI0
aI0
ag631
aa(lp1704
F0.044774899062304
aI86
aI60
aI0
ag633
aa(lp1705
F0.5
aI84
aI80
aI0
ag635
aa(lp1706
F0.32190032477047
aI86
aI0
aI0
ag637
aa(lp1707
F0.17809967522953
aI74
aI65
aI0
ag639
aa(lp1708
F0.029618630913319
aI84
aI0
aI0
ag641
aa(lp1709
F0.47038136908668
aI75
aI59
aI0
ag643
aa(lp1710
F0.046032660006858
aI74
aI0
aI0
ag645
aa(lp1711
F0.45396733999314
aI74
aI60
aI0
ag647
aa(lp1712
F0.10102892243731
aI75
aI0
aI0
ag649
aa(lp1713
F0.39897107756269
aI75
aI45
aI0
ag651
aa(lp1714
F0.11622182989913
aI74
aI0
aI0
ag653
aa(lp1715
F0.38377817010087
aI77
aI58
aI0
ag655
aa(lp1716
F0.036948322635453
aI75
aI0
aI0
ag657
aa(lp1717
F0.43276159670813
aI77
aI0
aI0
ag659
aa(lp1718
F0.030290080656414
aI0
aI0
aI0
ag661
aaa(lp1719
(lp1720
F0.0
aI63
aI10
aI1
ag664
aa(lp1721
F0.3746869799138
aI63
aI0
aI1
ag666
aa(lp1722
F0.1253130200862
aI62
aI3
aI1
ag668
aa(lp1723
F0.5
aI60
aI12
aI1
ag670
aa(lp1724
F0.044245562739434
aI62
aI0
aI1
ag672
aa(lp1725
F0.35368720005363
aI60
aI0
aI1
ag674
aa(lp1726
F0.10206723720694
aI55
aI3
aI1
ag676
aa(lp1727
F0.4785701018759
aI55
aI0
aI1
ag678
aa(lp1728
F0.021429898124097
aI55
aI18
aI1
ag680
aa(lp1729
F0.5
aI58
aI6
aI1
ag682
aa(lp1730
F0.036191557659549
aI55
aI0
aI1
ag684
aa(lp1731
F0.29714177567378
aI55
aI1
aI1
ag686
aa(lp1732
F0.048023510354748
aI58
aI0
aI1
ag688
aa(lp1733
F8.7574913213615
aI55
aI0
aI1
ag690
aa(lp1734
F0.36115183495046
aI0
aI0
aI0
ag692
aaaI0
aI0
aI0
aI0
a(lp1735
(lp1736
F0.0
aI42
aI85
aI3
aS'on'
p1737
aa(lp1738
F0.040615028623506
aI42
aI0
aI3
aS'off'
p1739
aa(lp1740
F0.29271830470983
aI42
aI59
aI3
aS'on'
p1741
aa(lp1742
F0.040086506747684
aI42
aI0
aI3
aS'off'
p1743
aa(lp1744
F0.12658015991898
aI42
aI57
aI3
aS'on'
p1745
aa(lp1746
F0.041423219950502
aI42
aI0
aI3
aS'off'
p1747
aa(lp1748
F0.12524344671616
aI42
aI87
aI3
aS'on'
p1749
aa(lp1750
F0.041034376595235
aI42
aI0
aI3
aS'off'
p1751
aa(lp1752
F0.12563229007143
aI42
aI89
aI3
aS'on'
p1753
aa(lp1754
F0.041088430531545
aI42
aI0
aI3
aS'off'
p1755
aa(lp1756
F0.12557823613512
aI42
aI72
aI3
aS'on'
p1757
aa(lp1758
F0.039837627866746
aI42
aI0
aI3
aS'off'
p1759
aa(lp1760
F0.12682903879992
aI42
aI72
aI3
aS'on'
p1761
aa(lp1762
F0.039836317940171
aI42
aI0
aI3
aS'off'
p1763
aa(lp1764
F0.29349701539316
aI42
aI68
aI3
aS'on'
p1765
aa(lp1766
F0.040682508297778
aI42
aI0
aI3
aS'off'
p1767
aa(lp1768
F0.12598415836889
aI42
aI89
aI3
aS'on'
p1769
aa(lp1770
F0.040358571345678
aI42
aI0
aI3
aS'off'
p1771
aa(lp1772
F0.29297476198766
aI42
aI66
aI3
aS'on'
p1773
aa(lp1774
F0.040417529467049
aI42
aI0
aI3
aS'off'
p1775
aa(lp1776
F0.12624913719962
aI42
aI78
aI3
aS'on'
p1777
aa(lp1778
F0.040775673923235
aI42
aI0
aI3
aS'off'
p1779
aa(lp1780
F0.2925576594101
aI42
aI69
aI3
aS'on'
p1781
aa(lp1782
F0.040321274650523
aI42
aI0
aI3
aS'off'
p1783
aa(lp1784
F0.12634539201614
aI42
aI63
aI3
aS'on'
p1785
aa(lp1786
F0.040543199623244
aI42
aI0
aI3
aS'off'
p1787
aa(lp1788
F0.29279013371009
aI42
aI62
aI3
aS'on'
p1789
aa(lp1790
F0.040502370898594
aI42
aI0
aI3
aS'off'
p1791
aa(lp1792
F0.12616429576807
aI42
aI70
aI3
aS'on'
p1793
aa(lp1794
F0.040380120886766
aI42
aI0
aI3
aS'off'
p1795
aa(lp1796
F0.29295321244657
aI42
aI92
aI3
aS'on'
p1797
aa(lp1798
F0.081636840373449
aI42
aI0
aI3
aS'off'
p1799
aa(lp1800
F0.085029826293218
aI42
aI89
aI3
aS'on'
p1801
aa(lp1802
F0.10527264755547
aI42
aI0
aI3
aS'off'
p1803
aa(lp1804
F0.22806068577787
aI0
aI0
aI0
aS'timeAfterLastHit'
p1805
aaa(lp1806
(lp1807
F0.01570347547522
aI42
aI89
aI3
aS'on'
p1808
aa(lp1809
F0.0084421992301031
aI42
aI0
aI3
aS'off'
p1810
aa(lp1811
F0.17919270773837
aI42
aI89
aI3
aS'on'
p1812
aa(lp1813
F0.041320399900542
aI42
aI0
aI3
aS'off'
p1814
aa(lp1815
F0.080956233644429
aI42
aI73
aI3
aS'on'
p1816
aa(lp1817
F0.072865167986492
aI42
aI0
aI3
aS'off'
p1818
aa(lp1819
F0.032351068307435
aI42
aI89
aI3
aS'on'
p1820
aa(lp1821
F0.040882666200105
aI42
aI0
aI3
aS'off'
p1822
aa(lp1823
F0.2353835242925
aI42
aI92
aI3
aS'on'
p1824
aa(lp1825
F0.040988538086822
aI42
aI0
aI3
aS'off'
p1826
aa(lp1827
F0.18709382559473
aI42
aI70
aI3
aS'on'
p1828
aa(lp1829
F0.040044650885193
aI42
aI0
aI3
aS'off'
p1830
aa(lp1831
F0.21185902144907
aI42
aI94
aI3
aS'on'
p1832
aa(lp1833
F0.040672942467154
aI42
aI0
aI3
aS'off'
p1834
aa(lp1835
F0.23562646108803
aI42
aI89
aI3
aS'on'
p1836
aa(lp1837
F0.041307928308925
aI42
aI0
aI3
aS'off'
p1838
aa(lp1839
F0.18645832853599
aI42
aI92
aI3
aS'on'
p1840
aa(lp1841
F0.064288359346392
aI42
aI0
aI3
aS'off'
p1842
aa(lp1843
F0.18689871320385
aI42
aI75
aI3
aS'on'
p1844
aa(lp1845
F0.041083768885983
aI42
aI0
aI3
aS'off'
p1846
aa(lp1847
F0.23522785766272
aI42
aI94
aI3
aS'on'
p1848
aa(lp1849
F0.041033568570128
aI42
aI0
aI3
aS'off'
p1850
aa(lp1851
F0.23450002937079
aI42
aI68
aI3
aS'on'
p1852
aa(lp1853
F0.04028229045025
aI42
aI0
aI3
aS'off'
p1854
aa(lp1855
F0.21276588696492
aI42
aI106
aI3
aS'on'
p1856
aa(lp1857
F0.039784397466974
aI42
aI0
aI3
aS'off'
p1858
aa(lp1859
F0.064904588029549
aI42
aI99
aI3
aS'on'
p1860
aa(lp1861
F0.08928172530841
aI42
aI0
aI3
aS'off'
p1862
aa(lp1863
F0.032746806311479
aI42
aI104
aI3
aS'on'
p1864
aa(lp1865
F0.080447935736174
aI42
aI0
aI3
aS'off'
p1866
aa(lp1867
F0.20360236601209
aI42
aI106
aI3
aS'on'
p1868
aa(lp1869
F0.056614913768954
aI42
aI0
aI3
aS'off'
p1870
aa(lp1871
F0.17088401316141
aI42
aI99
aI3
aS'on'
p1872
aa(lp1873
F0.040324850186153
aI42
aI0
aI3
aS'off'
p1874
aa(lp1875
F0.22011385415908
aI42
aI101
aI3
aS'on'
p1876
aa(lp1877
F0.064542767052444
aI42
aI0
aI3
aS'off'
p1878
aa(lp1879
F0.18952216916114
aI0
aI0
aI0
aS'timeAfterLastHit'
p1880
aaaI0
aI0
aI0
aI0
aI0
aI0
aI0
aI0
aI0
aI0
aI0
aI0
aI0
aI0
aI0
aI0
aI0
aI0
aI0
aI0
aI0
aI0
aI0
aI0
aI0
aI0
aI0
aI0
aI0
aI0
aI0
aI0
aI0
aI0
aI0
aI0
aI0
aI0
aI0
aI0
aI0
aI0
aI0
aI0
aI0
aI0
aI0
aI0
aI0
aI0
aI0
aI0
aI0
aI0
aI0
aI0
aI0
aa(lp1881
(dp1882
a(dp1883
a(dp1884
a(dp1885
g706
I33
sg707
I01
sa(dp1886
a(dp1887
a(dp1888
a(dp1889
a(dp1890
a(dp1891
a(dp1892
a(dp1893
g706
I43
sg707
I0
sa(dp1894
g706
I44
sg707
I0
sa(dp1895
g706
I45
sg707
I1
sa(dp1896
a(dp1897
a(dp1898
a(dp1899
a(dp1900
g706
I52
sg707
I1
sa(dp1901
a(dp1902
a(dp1903
a(dp1904
a(dp1905
a(dp1906
a(dp1907
g706
I61
sg707
I0
sa(dp1908
g706
I62
sg707
I1
sa(dp1909
g706
I63
sg707
I0
sa(dp1910
g706
I64
sg707
I1
sa(dp1911
a(dp1912
a(dp1913
a(dp1914
a(dp1915
g706
I71
sg707
I01
sa(dp1916
a(dp1917
g706
I73
sg707
I0
sa(dp1918
g706
I74
sg707
I1
sa(dp1919
a(dp1920
a(dp1921
a(dp1922
a(dp1923
g706
I81
sg707
I1
sa(dp1924
g706
I82
sg707
I0
sa(dp1925
a(dp1926
a(dp1927
a(dp1928
a(dp1929
a(dp1930
a(dp1931
a(dp1932
a(dp1933
a(dp1934
a(dp1935
a(dp1936
a(dp1937
a(dp1938
a(dp1939
a(dp1940
a(dp1941
a(dp1942
a(dp1943
a(dp1944
a(dp1945
a(dp1946
a(dp1947
a(dp1948
a(dp1949
a(dp1950
a(dp1951
a(dp1952
a(dp1953
a(dp1954
a(dp1955
a(dp1956
a(dp1957
a(dp1958
a(dp1959
a(dp1960
a(dp1961
a(dp1962
a(dp1963
a(dp1964
a(dp1965
a(dp1966
a(dp1967
a(dp1968
a(dp1969
a(dp1970
a(dp1971
a(dp1972
a(dp1973
a(dp1974
a(dp1975
a(dp1976
a(dp1977
a(dp1978
a(dp1979
a(dp1980
a(dp1981
aa(lp1982
I60
aI60
aI36
aI36
aa(lp1983
(lp1984
I0
aI2
aI3
aI5
aI7
aI8
aI10
aa(lp1985
I0
aI2
aI3
aI5
aI7
aI8
aI10
aa(lp1986
I0
aI2
aI3
aI5
aI7
aI8
aI10
aa(lp1987
I0
aI2
aI3
aI5
aI7
aI8
aI10
aa(lp1988
I0
aI2
aI3
aI5
aI7
aI8
aI10
aa(lp1989
I0
aI1
aI2
aI3
aI4
aI5
aI6
aI7
aI8
aI9
aI10
aI11
aaa(lp1990
(lp1991
(lp1992
I0
aI0
aI0
aI0
aI0
aI0
aI0
aI0
aI0
aI0
aI0
aI0
aa(lp1993
I0
aI0
aI0
aI0
aI0
aI0
aI0
aI0
aI0
aI0
aI0
aI0
aa(lp1994
I0
aI0
aI0
aI0
aI0
aI0
aI0
aI0
aI0
aI0
aI0
aI0
aa(lp1995
I0
aI0
aI0
aI0
aI0
aI0
aI0
aI0
aI0
aI0
aI0
aI0
aaa(lp1996
(lp1997
I0
aI0
aI0
aI0
aI0
aI0
aI0
aI0
aI0
aI0
aI0
aI0
aa(lp1998
I0
aI0
aI0
aI0
aI0
aI0
aI0
aI0
aI0
aI0
aI0
aI0
aa(lp1999
I0
aI0
aI0
aI0
aI0
aI0
aI0
aI0
aI0
aI0
aI0
aI0
aa(lp2000
I0
aI0
aI0
aI0
aI0
aI0
aI0
aI0
aI0
aI0
aI0
aI0
aaa(lp2001
(lp2002
I0
aI0
aI0
aI0
aI0
aI0
aI0
aI0
aI0
aI0
aI0
aI0
aa(lp2003
I0
aI0
aI0
aI0
aI0
aI0
aI0
aI0
aI0
aI0
aI0
aI0
aa(lp2004
I0
aI0
aI0
aI0
aI0
aI0
aI0
aI0
aI0
aI0
aI0
aI0
aa(lp2005
I0
aI0
aI0
aI0
aI0
aI0
aI0
aI0
aI0
aI0
aI0
aI0
aaa(lp2006
(lp2007
I0
aI0
aI0
aI0
aI0
aI0
aI0
aI0
aI0
aI0
aI0
aI0
aa(lp2008
I0
aI0
aI0
aI0
aI0
aI0
aI0
aI0
aI0
aI0
aI0
aI0
aa(lp2009
I0
aI0
aI0
aI0
aI0
aI0
aI0
aI0
aI0
aI0
aI0
aI0
aa(lp2010
I0
aI0
aI0
aI0
aI0
aI0
aI0
aI0
aI0
aI0
aI0
aI0
aaaa(lp2011
(lp2012
I0
aI0
aI0
aI0
aI0
aI0
aI0
aI0
aI0
aI0
aI0
aI0
aa(lp2013
I0
aI0
aI0
aI0
aI0
aI0
aI0
aI0
aI0
aI0
aI0
aI0
aa(lp2014
I0
aI0
aI0
aI0
aI0
aI0
aI0
aI0
aI0
aI0
aI0
aI0
aa(lp2015
I0
aI0
aI0
aI0
aI0
aI0
aI0
aI0
aI0
aI0
aI0
aI0
aaaaI0
aI0
aI0
aI0
aI0
aI0
aI0
aI0
aI0
aI0
aI0
aI0
aI0
aI0
aI0
aI0
aI0
aI0
aI0
aI0
aI0
aI0
aI0
aI0
aI0
aI0
aI0
aI0
a.