(lp0
I0
a(lp1
(lp2
I0
aI0
aI0
aI0
aI0
aI0
aI0
aI0
aI0
aI0
aI0
aI0
aI0
aI0
aI0
aI0
aI0
aI0
aI0
aI0
a(lp3
(lp4
F1.0
aI81
aI94
aI1
aS'on'
p5
aa(lp6
F0.42758498630064
aI81
aI0
aI1
aS'off'
p7
aa(lp8
F1.239081680366
aI79
aI87
aI1
aS'on'
p9
aa(lp10
F0.48275338907933
aI79
aI0
aI1
aS'off'
p11
aa(lp12
F0.850579944254
aI76
aI89
aI1
aS'on'
p13
aa(lp14
F0.38527638194228
aI76
aI0
aI1
aS'off'
p15
aa(lp16
F1.1147236180577
aI79
aI93
aI1
aS'on'
p17
aa(lp18
F0.3724981486057
aI79
aI0
aI1
aS'off'
p19
aa(lp20
F0.6275018513943
aI76
aI68
aI1
aS'on'
p21
aa(lp22
F0.20567129150004
aI76
aI0
aI1
aS'off'
p23
aa(lp24
F0.29432870849996
aI74
aI75
aI1
aS'on'
p25
aa(lp26
F0.38558987404031
aI74
aI0
aI1
aS'off'
p27
aa(lp28
F1.6144101259597
aI76
aI84
aI1
aS'on'
p29
aa(lp30
F0.35877821718623
aI76
aI0
aI1
aS'off'
p31
aa(lp32
F1.1412217828138
aI74
aI64
aI1
aS'on'
p33
aa(lp34
F0.39926164740791
aI74
aI0
aI1
aS'off'
p35
aa(lp36
F1.1007383525921
aI72
aI58
aI1
aS'on'
p37
aa(lp38
F0.44066761149861
aI72
aI0
aI1
aS'off'
p39
aa(lp40
F1.0593323885014
aI74
aI80
aI1
aS'on'
p41
aa(lp42
F0.42535846697047
aI74
aI0
aI1
aS'off'
p43
aa(lp44
F1.0746415330295
aI76
aI76
aI1
aS'on'
p45
aa(lp46
F0.48160486336474
aI76
aI0
aI1
aS'off'
p47
aa(lp48
F0.51839513663526
aI0
aI0
aI0
aS'timeAfterLastHit'
p49
aaaI0
aI0
aI0
aI0
a(lp50
(lp51
F0.0
aI72
aI88
aI1
aS'on'
p52
aa(lp53
F0.14411129530527
aI72
aI0
aI1
aS'off'
p54
aa(lp55
F0.35588870469473
aI71
aI90
aI1
aS'on'
p56
aa(lp57
F0.12052055143431
aI71
aI0
aI1
aS'off'
p58
aa(lp59
F0.37947944856569
aI69
aI82
aI1
aS'on'
p60
aa(lp61
F0.17024066109661
aI69
aI0
aI1
aS'off'
p62
aa(lp63
F0.32975933890339
aI71
aI95
aI1
aS'on'
p64
aa(lp65
F0.13296291171991
aI71
aI0
aI1
aS'off'
p66
aa(lp67
F0.36703708828009
aI69
aI97
aI1
aS'on'
p68
aa(lp69
F0.21642484567838
aI69
aI0
aI1
aS'off'
p70
aa(lp71
F0.28357515432162
aI67
aI97
aI1
aS'on'
p72
aa(lp73
F0.14576355052941
aI67
aI0
aI1
aS'off'
p74
aa(lp75
F0.35423644947059
aI69
aI85
aI1
aS'on'
p76
aa(lp77
F0.19311171729441
aI69
aI0
aI1
aS'off'
p78
aa(lp79
F0.30688828270559
aI67
aI94
aI1
aS'on'
p80
aa(lp81
F0.15693226240001
aI67
aI0
aI1
aS'off'
p82
aa(lp83
F0.34306773759999
aI69
aI97
aI1
aS'on'
p84
aa(lp85
F0.2161993764621
aI69
aI0
aI1
aS'off'
p86
aa(lp87
F0.2838006235379
aI67
aI94
aI1
aS'on'
p88
aa(lp89
F0.13281404818372
aI67
aI0
aI1
aS'off'
p90
aa(lp91
F0.36718595181628
aI69
aI97
aI1
aS'on'
p92
aa(lp93
F0.18101217377534
aI69
aI0
aI1
aS'off'
p94
aa(lp95
F0.31898782622466
aI67
aI101
aI1
aS'on'
p96
aa(lp97
F0.18121460134989
aI67
aI0
aI1
aS'off'
p98
aa(lp99
F0.31878539865011
aI69
aI98
aI1
aS'on'
p100
aa(lp101
F0.19320551833516
aI69
aI0
aI1
aS'off'
p102
aa(lp103
F0.30679448166484
aI71
aI101
aI1
aS'on'
p104
aa(lp105
F0.16879679499561
aI71
aI0
aI1
aS'off'
p106
aa(lp107
F0.33120320500439
aI69
aI98
aI1
aS'on'
p108
aa(lp109
F0.1932552578528
aI69
aI0
aI1
aS'off'
p110
aa(lp111
F0.3067447421472
aI67
aI109
aI1
aS'on'
p112
aa(lp113
F0.18089902420979
aI67
aI0
aI1
aS'off'
p114
aa(lp115
F0.31910097579021
aI0
aI0
aI0
aS'timeAfterLastHit'
p116
aaa(lp117
(lp118
F0.0
aI72
aI79
aI1
aS'on'
p119
aa(lp120
F0.13064956921244
aI72
aI0
aI1
aS'off'
p121
aa(lp122
F0.36935043078756
aI71
aI35
aI1
aS'on'
p123
aa(lp124
F0.29279914340896
aI71
aI0
aI1
aS'off'
p125
aa(lp126
F0.20720085659104
aI69
aI89
aI1
aS'on'
p127
aa(lp128
F0.13787719890206
aI69
aI0
aI1
aS'off'
p129
aa(lp130
F0.36212280109794
aI71
aI35
aI1
aS'on'
p131
aa(lp132
F0.31005959068716
aI71
aI0
aI1
aS'off'
p133
aa(lp134
F0.18994040931284
aI69
aI96
aI1
aS'on'
p135
aa(lp136
F0.23134918659161
aI69
aI0
aI1
aS'off'
p137
aa(lp138
F0.26865081340839
aI67
aI77
aI1
aS'on'
p139
aa(lp140
F0.31675393497153
aI67
aI0
aI1
aS'off'
p141
aa(lp142
F0.18324606502847
aI69
aI96
aI1
aS'on'
p143
aa(lp144
F0.32661764510431
aI69
aI0
aI1
aS'off'
p145
aa(lp146
F0.17338235489569
aI67
aI86
aI1
aS'on'
p147
aa(lp148
F0.31680918827715
aI67
aI0
aI1
aS'off'
p149
aa(lp150
F0.18319081172285
aI69
aI75
aI1
aS'on'
p151
aa(lp152
F0.31784860986409
aI69
aI0
aI1
aS'off'
p153
aa(lp154
F0.18215139013591
aI67
aI76
aI1
aS'on'
p155
aa(lp156
F0.28349236358372
aI67
aI0
aI1
aS'off'
p157
aa(lp158
F0.21650763641628
aI69
aI100
aI1
aS'on'
p159
aa(lp160
F0.17166781576634
aI69
aI0
aI1
aS'off'
p161
aa(lp162
F0.32833218423366
aI71
aI83
aI1
aS'on'
p163
aa(lp164
F0.32781450079347
aI71
aI0
aI1
aS'off'
p165
aa(lp166
F0.17218549920653
aI69
aI98
aI1
aS'on'
p167
aa(lp168
F0.24848390628631
aI69
aI0
aI1
aS'off'
p169
aa(lp170
F0.25151609371369
aI67
aI85
aI1
aS'on'
p171
aa(lp172
F0.33580168694243
aI67
aI0
aI1
aS'off'
p173
aa(lp174
F0.16419831305757
aI69
aI95
aI1
aS'on'
p175
aa(lp176
F0.21460893768472
aI69
aI0
aI1
aS'off'
p177
aa(lp178
F0.28539106231528
aI67
aI86
aI1
aS'on'
p179
aa(lp180
F0.28428094831634
aI67
aI0
aI1
aS'off'
p181
aa(lp182
F0.21571905168366
aI0
aI0
aI0
aS'timeAfterLastHit'
p183
aaa(lp184
(lp185
F0.0
aI81
aI45
aI1
aS'on'
p186
aa(lp187
F0.38529333767747
aI81
aI0
aI1
aS'off'
p188
aa(lp189
F1.1147066623225
aI79
aI60
aI1
aS'on'
p190
aa(lp191
F0.48243921499125
aI79
aI0
aI1
aS'off'
p192
aa(lp193
F1.0175607850088
aI76
aI45
aI1
aS'on'
p194
aa(lp195
F0.39944518728134
aI76
aI0
aI1
aS'off'
p196
aa(lp197
F1.1005548127187
aI79
aI76
aI1
aS'on'
p198
aa(lp199
F0.32884300938713
aI79
aI0
aI1
aS'off'
p200
aa(lp201
F0.67115699061287
aI76
aI56
aI1
aS'on'
p202
aa(lp203
F0.28909793593539
aI76
aI0
aI1
aS'off'
p204
aa(lp205
F0.21090206406461
aI74
aI57
aI1
aS'on'
p206
aa(lp207
F0.53690331316102
aI74
aI0
aI1
aS'off'
p208
aa(lp209
F1.2964300201723
aI76
aI77
aI1
aS'on'
p210
aa(lp211
F0.44064360225002
aI76
aI0
aI1
aS'off'
p212
aa(lp213
F1.2260230644166
aI74
aI89
aI1
aS'on'
p214
aa(lp215
F0.41194645059295
aI74
aI0
aI1
aS'off'
p216
aa(lp217
F1.0880535494071
aI72
aI68
aI1
aS'on'
p218
aa(lp219
F0.50972359438674
aI72
aI0
aI1
aS'off'
p220
aa(lp221
F0.99027640561326
aI74
aI75
aI1
aS'on'
p222
aa(lp223
F0.40033149399278
aI74
aI0
aI1
aS'off'
p224
aa(lp225
F0.93300183934055
aI76
aI67
aI1
aS'on'
p226
aa(lp227
F0.57803191751736
aI76
aI0
aI1
aS'off'
p228
aa(lp229
F0.5886347491493
aI0
aI0
aI0
aS'timeAfterLastHit'
p230
aaa(lp231
(lp232
F1.0
aI81
aI96
aI1
aS'on'
p233
aa(lp234
F0.6893972655289
aI81
aI0
aI1
aS'off'
p235
aa(lp236
F0.8106027344711
aI79
aI91
aI1
aS'on'
p237
aa(lp238
F0.60132375283592
aI79
aI0
aI1
aS'off'
p239
aa(lp240
F0.89867624716408
aI76
aI95
aI1
aS'on'
p241
aa(lp242
F0.592987403611
aI76
aI0
aI1
aS'off'
p243
aa(lp244
F0.907012596389
aI79
aI96
aI1
aS'on'
p245
aa(lp246
F0.49107242123591
aI79
aI0
aI1
aS'off'
p247
aa(lp248
F0.50892757876409
aI76
aI84
aI1
aS'on'
p249
aa(lp250
F0.19872395898801
aI76
aI0
aI1
aS'off'
p251
aa(lp252
F0.30127604101199
aI74
aI93
aI1
aS'on'
p253
aa(lp254
F0.36218026018014
aI74
aI0
aI1
aS'off'
p255
aa(lp256
F1.6378197398199
aI76
aI84
aI1
aS'on'
p257
aa(lp258
F0.65559531844792
aI76
aI0
aI1
aS'off'
p259
aa(lp260
F0.84440468155208
aI74
aI84
aI1
aS'on'
p261
aa(lp262
F0.62850743746276
aI74
aI0
aI1
aS'off'
p263
aa(lp264
F0.87149256253724
aI72
aI76
aI1
aS'on'
p265
aa(lp266
F0.59307051050382
aI72
aI0
aI1
aS'off'
p267
aa(lp268
F0.90692948949618
aI74
aI91
aI1
aS'on'
p269
aa(lp270
F0.61007007995249
aI74
aI0
aI1
aS'off'
p271
aa(lp272
F0.88992992004751
aI76
aI88
aI1
aS'on'
p273
aa(lp274
F0.69765680279033
aI76
aI0
aI1
aS'off'
p275
aa(lp276
F0.30234319720967
aI0
aI0
aI0
aS'timeAfterLastHit'
p277
aaaI0
aI0
aI0
aI0
aI0
aI0
a(lp278
(lp279
F0.0
aI48
aI83
aI1
aS'on'
p280
aa(lp281
F0.056754603594527
aI48
aI0
aI1
aS'off'
p282
aa(lp283
F0.44324539640547
aI43
aI92
aI1
aS'on'
p284
aa(lp285
F0.1711729444778
aI43
aI0
aI1
aS'off'
p286
aa(lp287
F1.3288270555222
aI45
aI89
aI1
aS'on'
p288
aa(lp289
F0.18583258484796
aI45
aI0
aI1
aS'off'
p290
aa(lp291
F1.814167415152
aI45
aI89
aI1
aS'on'
p292
aa(lp293
F0.16088989149284
aI45
aI0
aI1
aS'off'
p294
aa(lp295
F1.8391101085072
aI47
aI71
aI1
aS'on'
p296
aa(lp297
F0.066665288477452
aI47
aI0
aI1
aS'off'
p298
aa(lp299
F1.9333347115225
aI48
aI88
aI1
aS'on'
p300
aa(lp301
F0.065393560245866
aI48
aI0
aI1
aS'off'
p302
aa(lp303
F1.9346064397541
aI48
aI96
aI1
aS'on'
p304
aa(lp305
F0.0674422433367
aI48
aI0
aI1
aS'off'
p306
aa(lp307
F1.9325577566633
aI50
aI89
aI1
aS'on'
p308
aa(lp309
F0.14478007303114
aI50
aI0
aI1
aS'off'
p310
aa(lp311
F1.8552199269689
aI50
aI56
aI1
aS'on'
p312
aa(lp313
F1.3237689248508
aI50
aI0
aI1
aS'off'
p314
aa(lp315
F0.67623107514919
aI0
aI0
aI0
aS'timeAfterLastHit'
p316
aaaI0
aI0
aI0
aI0
aI0
a(lp317
(lp318
F0.058194671724209
aI60
aI54
aI1
aS'on'
p319
aa(lp320
F0.00020332048677574
aI57
aI71
aI1
aS'on'
p321
aa(lp322
F0.066646321641883
aI60
aI0
aI1
aS'off'
p323
aa(lp324
F0.00012564537973958
aI57
aI0
aI1
aS'off'
p325
aa(lp326
F1.4185599664921
aI60
aI88
aI1
aS'on'
p327
aa(lp328
F0.01258963197904
aI57
aI72
aI1
aS'on'
p329
aa(lp330
F0.067308744792399
aI57
aI0
aI1
aS'off'
p331
aa(lp332
F0.039498020644601
aI60
aI0
aI1
aS'off'
p333
aa(lp334
F6.3368736768592
aI0
aI0
aI0
aS'timeAfterLastHit'
p335
aaa(lp336
(lp337
F0.0
aI48
aI52
aI1
aS'on'
p338
aa(lp339
F0.11475325079846
aI48
aI0
aI1
aS'off'
p340
aa(lp341
F0.38524674920154
aI50
aI70
aI1
aS'on'
p342
aa(lp343
F0.057617311074864
aI50
aI0
aI1
aS'off'
p344
aa(lp345
F0.94238268892514
aI50
aI87
aI1
aS'on'
p346
aa(lp347
F0.2284324443483
aI50
aI0
aI1
aS'off'
p348
aa(lp349
F6.2715675556517
aI48
aI88
aI1
aS'on'
p350
aa(lp351
F0.17293180156116
aI48
aI0
aI1
aS'off'
p352
aa(lp353
F0.32706819843884
aI50
aI74
aI1
aS'on'
p354
aa(lp355
F0.16101132413996
aI50
aI0
aI1
aS'off'
p356
aa(lp357
F0.83898867586004
aI50
aI58
aI1
aS'on'
p358
aa(lp359
F0.17229237945003
aI50
aI0
aI1
aS'off'
p360
aa(lp361
F6.32770762055
aI48
aI88
aI1
aS'on'
p362
aa(lp363
F0.17141273164248
aI48
aI0
aI1
aS'off'
p364
aa(lp365
F0.32858726835752
aI50
aI53
aI1
aS'on'
p366
aa(lp367
F0.12567113808859
aI50
aI0
aI1
aS'off'
p368
aa(lp369
F0.87432886191141
aI50
aI84
aI1
aS'on'
p370
aa(lp371
F0.18370918694063
aI50
aI0
aI1
aS'off'
p372
aa(lp373
F0.81629081305937
aI48
aI89
aI1
aS'on'
p374
aa(lp375
F0.16046914079857
aI48
aI0
aI1
aS'off'
p376
aa(lp377
F0.33953085920143
aI50
aI84
aI1
aS'on'
p378
aa(lp379
F0.18393310309443
aI50
aI0
aI1
aS'off'
p380
aa(lp381
F0.81606689690557
aI52
aI93
aI1
aS'on'
p382
aa(lp383
F0.17110176523056
aI52
aI0
aI1
aS'off'
p384
aa(lp385
F0.32889823476944
aI50
aI34
aI1
aS'on'
p386
aa(lp387
F0.13849671148637
aI50
aI0
aI1
aS'off'
p388
aa(lp389
F0.86150328851363
aI48
aI89
aI1
aS'on'
p390
aa(lp391
F0.14908380346174
aI48
aI0
aI1
aS'off'
p392
aa(lp393
F0.35091619653826
aI50
aI89
aI1
aS'on'
p394
aa(lp395
F0.18466892758852
aI50
aI0
aI1
aS'off'
p396
aa(lp397
F0.81533107241148
aI48
aI86
aI1
aS'on'
p398
aa(lp399
F0.18393353449392
aI48
aI0
aI1
aS'off'
p400
aa(lp401
F0.31606646550608
aI47
aI87
aI1
aS'on'
p402
aa(lp403
F0.14888684537482
aI47
aI0
aI1
aS'off'
p404
aa(lp405
F0.85111315462518
aI48
aI89
aI1
aS'on'
p406
aa(lp407
F0.17349059598519
aI48
aI0
aI1
aS'off'
p408
aa(lp409
F0.32650940401481
aI47
aI86
aI1
aS'on'
p410
aa(lp411
F0.16359965295533
aI47
aI0
aI1
aS'off'
p412
aa(lp413
F0.83640034704467
aI45
aI60
aI1
aS'on'
p414
aa(lp415
F0.1604175577429
aI45
aI0
aI1
aS'off'
p416
aa(lp417
F0.3395824422571
aI45
aI86
aI1
aS'on'
p418
aa(lp419
F4.9192571825456
aI45
aI0
aI1
aS'off'
p420
aa(lp421
F0.58074281745439
aI0
aI0
aI0
aS'timeAfterLastHit'
p422
aaa(lp423
(lp424
F0.0
aI48
aI31
aI1
aS'on'
p425
aa(lp426
F0.045634444319148
aI48
aI0
aI1
aS'off'
p427
aa(lp428
F0.45436555568085
aI50
aI81
aI1
aS'on'
p429
aa(lp430
F0.27028138186142
aI50
aI0
aI1
aS'off'
p431
aa(lp432
F0.72971861813858
aI50
aI71
aI1
aS'on'
p433
aa(lp434
F0.16541502120162
aI50
aI0
aI1
aS'off'
p435
aa(lp436
F0.83458497879838
aI48
aI67
aI1
aS'on'
p437
aa(lp438
F0.10411423407459
aI48
aI0
aI1
aS'off'
p439
aa(lp440
F0.39588576592541
aI50
aI84
aI1
aS'on'
p441
aa(lp442
F0.13474908836088
aI50
aI0
aI1
aS'off'
p443
aa(lp444
F0.36525091163912
aI52
aI95
aI1
aS'on'
p445
aa(lp446
F0.18876241267571
aI52
aI0
aI1
aS'off'
p447
aa(lp448
F4.3112375873243
aI48
aI79
aI1
aS'on'
p449
aa(lp450
F0.12580651197459
aI48
aI0
aI1
aS'off'
p451
aa(lp452
F0.37419348802541
aI50
aI70
aI1
aS'on'
p453
aa(lp454
F0.052692764837047
aI50
aI0
aI1
aS'off'
p455
aa(lp456
F0.94730723516295
aI50
aI63
aI1
aS'on'
p457
aa(lp458
F0.093803391650908
aI50
aI0
aI1
aS'off'
p459
aa(lp460
F0.90619660834909
aI48
aI88
aI1
aS'on'
p461
aa(lp462
F0.052541318192198
aI48
aI0
aI1
aS'off'
p463
aa(lp464
F0.4474586818078
aI50
aI74
aI1
aS'on'
p465
aa(lp466
F0.051728882937823
aI50
aI0
aI1
aS'off'
p467
aa(lp468
F0.44827111706218
aI52
aI74
aI1
aS'on'
p469
aa(lp470
F0.13471846842549
aI52
aI0
aI1
aS'off'
p471
aa(lp472
F4.3652815315745
aI48
aI83
aI1
aS'on'
p473
aa(lp474
F0.16579209744759
aI48
aI0
aI1
aS'off'
p475
aa(lp476
F0.33420790255241
aI50
aI25
aI1
aS'on'
p477
aa(lp478
F0.050817971771721
aI50
aI0
aI1
aS'off'
p479
aa(lp480
F0.94918202822828
aI50
aI72
aI1
aS'on'
p481
aa(lp482
F0.14592404066752
aI50
aI0
aI1
aS'off'
p483
aa(lp484
F0.85407595933248
aI48
aI75
aI1
aS'on'
p485
aa(lp486
F0.13517465680616
aI48
aI0
aI1
aS'off'
p487
aa(lp488
F0.36482534319384
aI50
aI89
aI1
aS'on'
p489
aa(lp490
F0.15620140176088
aI50
aI0
aI1
aS'off'
p491
aa(lp492
F0.84379859823912
aI52
aI98
aI1
aS'on'
p493
aa(lp494
F0.15660190556719
aI52
aI0
aI1
aS'off'
p495
aa(lp496
F0.34339809443281
aI50
aI31
aI1
aS'on'
p497
aa(lp498
F0.12592219415455
aI50
aI0
aI1
aS'off'
p499
aa(lp500
F0.87407780584545
aI48
aI92
aI1
aS'on'
p501
aa(lp502
F0.13613892354806
aI48
aI0
aI1
aS'off'
p503
aa(lp504
F0.36386107645194
aI50
aI95
aI1
aS'on'
p505
aa(lp506
F0.20842701518086
aI50
aI0
aI1
aS'off'
p507
aa(lp508
F0.79157298481914
aI48
aI76
aI1
aS'on'
p509
aa(lp510
F0.17699182725664
aI48
aI0
aI1
aS'off'
p511
aa(lp512
F0.32300817274336
aI47
aI90
aI1
aS'on'
p513
aa(lp514
F0.20865196881368
aI47
aI0
aI1
aS'off'
p515
aa(lp516
F0.79134803118632
aI48
aI74
aI1
aS'on'
p517
aa(lp518
F0.14684130473415
aI48
aI0
aI1
aS'off'
p519
aa(lp520
F0.35315869526585
aI47
aI101
aI1
aS'on'
p521
aa(lp522
F0.20761974041216
aI47
aI0
aI1
aS'off'
p523
aa(lp524
F0.79238025958784
aI45
aI76
aI1
aS'on'
p525
aa(lp526
F0.051825107619152
aI45
aI0
aI1
aS'off'
p527
aa(lp528
F0.44817489238085
aI45
aI87
aI1
aS'on'
p529
aa(lp530
F4.7109430730034
aI45
aI0
aI1
aS'off'
p531
aa(lp532
F0.78905692699664
aI0
aI0
aI0
aS'timeAfterLastHit'
p533
aaa(lp534
(lp535
F0.0
aI57
aI93
aI1
aS'on'
p536
aa(lp537
F0.19358589562898
aI57
aI0
aI1
aS'off'
p538
aa(lp539
F0.30641410437102
aI55
aI56
aI1
aS'on'
p540
aa(lp541
F0.12118321478647
aI55
aI0
aI1
aS'off'
p542
aa(lp543
F1.3788167852135
aI55
aI84
aI1
aS'on'
p544
aa(lp545
F0.20418353899913
aI55
aI0
aI1
aS'off'
p546
aa(lp547
F1.7958164610009
aI52
aI92
aI1
aS'on'
p548
aa(lp549
F0.20557338921935
aI52
aI0
aI1
aS'off'
p550
aa(lp551
F0.29442661078065
aI55
aI87
aI1
aS'on'
p552
aa(lp553
F0.16769050106359
aI55
aI0
aI1
aS'off'
p554
aa(lp555
F1.3323094989364
aI55
aI88
aI1
aS'on'
p556
aa(lp557
F0.26482197083806
aI55
aI0
aI1
aS'off'
p558
aa(lp559
F1.7351780291619
aI0
aI0
aI0
aS'timeAfterLastHit'
p560
aaaI0
aI0
aI0
aI0
aI0
aI0
aI0
aI0
aI0
aI0
aI0
aI0
aI0
aI0
aI0
aI0
aI0
aI0
aI0
aI0
aI0
aI0
aI0
aI0
aI0
aI0
aI0
aI0
aI0
aI0
aI0
aI0
aI0
aI0
aI0
aI0
aI0
aI0
aI0
aI0
aI0
aI0
aI0
aI0
aI0
aI0
aI0
aI0
aI0
aI0
aI0
aI0
aI0
aI0
aI0
aa(lp561
(dp562
a(dp563
a(dp564
a(dp565
a(dp566
a(dp567
a(dp568
a(dp569
a(dp570
a(dp571
a(dp572
a(dp573
a(dp574
a(dp575
a(dp576
a(dp577
a(dp578
a(dp579
a(dp580
a(dp581
a(dp582
S'button'
p583
I54
sS'playing'
p584
I0
sa(dp585
a(dp586
a(dp587
a(dp588
a(dp589
g583
I61
sg584
I0
sa(dp590
g583
I62
sg584
I0
sa(dp591
g583
I63
sg584
I0
sa(dp592
g583
I64
sg584
I0
sa(dp593
a(dp594
a(dp595
a(dp596
a(dp597
a(dp598
a(dp599
g583
I73
sg584
I01
sa(dp600
a(dp601
a(dp602
a(dp603
a(dp604
a(dp605
g583
I81
sg584
I0
sa(dp606
g583
I82
sg584
I0
sa(dp607
g583
I83
sg584
I0
sa(dp608
g583
I84
sg584
I0
sa(dp609
a(dp610
a(dp611
a(dp612
a(dp613
a(dp614
a(dp615
a(dp616
a(dp617
a(dp618
a(dp619
a(dp620
a(dp621
a(dp622
a(dp623
a(dp624
a(dp625
a(dp626
a(dp627
a(dp628
a(dp629
a(dp630
a(dp631
a(dp632
a(dp633
a(dp634
a(dp635
a(dp636
a(dp637
a(dp638
a(dp639
a(dp640
a(dp641
a(dp642
a(dp643
a(dp644
a(dp645
a(dp646
a(dp647
a(dp648
a(dp649
a(dp650
a(dp651
a(dp652
a(dp653
a(dp654
a(dp655
a(dp656
a(dp657
a(dp658
a(dp659
a(dp660
a(dp661
a(dp662
a(dp663
aa(lp664
I60
aI60
aI36
aI36
aa(lp665
(lp666
I0
aI2
aI3
aI5
aI7
aI8
aI10
aa(lp667
I0
aI2
aI3
aI5
aI7
aI8
aI10
aa(lp668
I0
aI2
aI3
aI5
aI7
aI8
aI10
aa(lp669
I0
aI2
aI3
aI5
aI7
aI8
aI10
aa(lp670
I0
aI2
aI3
aI5
aI7
aI8
aI10
aa(lp671
I0
aI1
aI2
aI3
aI4
aI5
aI6
aI7
aI8
aI9
aI10
aI11
aaa(lp672
(lp673
(lp674
I0
aI0
aI0
aI0
aI0
aI0
aI0
aI0
aI0
aI0
aI0
aI0
aa(lp675
I0
aI0
aI0
aI0
aI0
aI0
aI0
aI0
aI0
aI0
aI0
aI0
aa(lp676
I0
aI0
aI0
aI0
aI0
aI0
aI0
aI0
aI0
aI0
aI0
aI0
aa(lp677
I0
aI0
aI0
aI0
aI0
aI0
aI0
aI0
aI0
aI0
aI0
aI0
aaa(lp678
(lp679
I0
aI0
aI0
aI0
aI0
aI0
aI0
aI0
aI0
aI0
aI0
aI0
aa(lp680
I0
aI0
aI0
aI0
aI0
aI0
aI0
aI0
aI0
aI0
aI0
aI0
aa(lp681
I0
aI0
aI0
aI0
aI0
aI0
aI0
aI0
aI0
aI0
aI0
aI0
aa(lp682
I0
aI0
aI0
aI0
aI0
aI0
aI0
aI0
aI0
aI0
aI0
aI0
aaa(lp683
(lp684
I0
aI0
aI0
aI0
aI0
aI0
aI0
aI0
aI0
aI0
aI0
aI0
aa(lp685
I0
aI0
aI0
aI0
aI0
aI0
aI0
aI0
aI0
aI0
aI0
aI0
aa(lp686
I0
aI0
aI0
aI0
aI0
aI0
aI0
aI0
aI0
aI0
aI0
aI0
aa(lp687
I0
aI0
aI0
aI0
aI0
aI0
aI0
aI0
aI0
aI0
aI0
aI0
aaa(lp688
(lp689
I0
aI0
aI0
aI0
aI0
aI0
aI0
aI0
aI0
aI0
aI0
aI0
aa(lp690
I0
aI0
aI0
aI0
aI0
aI0
aI0
aI0
aI0
aI0
aI0
aI0
aa(lp691
I0
aI0
aI0
aI0
aI0
aI0
aI0
aI0
aI0
aI0
aI0
aI0
aa(lp692
I0
aI0
aI0
aI0
aI0
aI0
aI0
aI0
aI0
aI0
aI0
aI0
aaaa(lp693
(lp694
I0
aI0
aI0
aI0
aI0
aI0
aI0
aI0
aI0
aI0
aI0
aI0
aa(lp695
I0
aI0
aI0
aI0
aI0
aI0
aI0
aI0
aI0
aI0
aI0
aI0
aa(lp696
I0
aI0
aI0
aI0
aI0
aI0
aI0
aI0
aI0
aI0
aI0
aI0
aa(lp697
I0
aI0
aI0
aI0
aI0
aI0
aI0
aI0
aI0
aI0
aI0
aI0
aaaa(lp698
(lp699
I0
aI0
aI0
aI0
aI0
aI0
aI0
aI0
aI0
aI0
aI0
aI0
aI0
aI0
aI0
aI0
aI0
aI0
aI0
aI0
a(lp700
(lp701
F1.0
aI81
aI94
aI1
ag5
aa(lp702
F0.42758498630064
aI81
aI0
aI1
ag7
aa(lp703
F1.239081680366
aI79
aI87
aI1
ag9
aa(lp704
F0.48275338907933
aI79
aI0
aI1
ag11
aa(lp705
F0.850579944254
aI76
aI89
aI1
ag13
aa(lp706
F0.38527638194228
aI76
aI0
aI1
ag15
aa(lp707
F1.1147236180577
aI79
aI93
aI1
ag17
aa(lp708
F0.3724981486057
aI79
aI0
aI1
ag19
aa(lp709
F0.6275018513943
aI76
aI68
aI1
ag21
aa(lp710
F0.20567129150004
aI76
aI0
aI1
ag23
aa(lp711
F0.29432870849996
aI74
aI75
aI1
ag25
aa(lp712
F0.38558987404031
aI74
aI0
aI1
ag27
aa(lp713
F1.6144101259597
aI76
aI84
aI1
ag29
aa(lp714
F0.35877821718623
aI76
aI0
aI1
ag31
aa(lp715
F1.1412217828138
aI74
aI64
aI1
ag33
aa(lp716
F0.39926164740791
aI74
aI0
aI1
ag35
aa(lp717
F1.1007383525921
aI72
aI58
aI1
ag37
aa(lp718
F0.44066761149861
aI72
aI0
aI1
ag39
aa(lp719
F1.0593323885014
aI74
aI80
aI1
ag41
aa(lp720
F0.42535846697047
aI74
aI0
aI1
ag43
aa(lp721
F1.0746415330295
aI76
aI76
aI1
ag45
aa(lp722
F0.48160486336474
aI76
aI0
aI1
ag47
aa(lp723
F0.51839513663526
aI0
aI0
aI0
ag49
aaaI0
aI0
aI0
aI0
a(lp724
(lp725
F0.0
aI72
aI88
aI1
ag52
aa(lp726
F0.14411129530527
aI72
aI0
aI1
ag54
aa(lp727
F0.35588870469473
aI71
aI90
aI1
ag56
aa(lp728
F0.12052055143431
aI71
aI0
aI1
ag58
aa(lp729
F0.37947944856569
aI69
aI82
aI1
ag60
aa(lp730
F0.17024066109661
aI69
aI0
aI1
ag62
aa(lp731
F0.32975933890339
aI71
aI95
aI1
ag64
aa(lp732
F0.13296291171991
aI71
aI0
aI1
ag66
aa(lp733
F0.36703708828009
aI69
aI97
aI1
ag68
aa(lp734
F0.21642484567838
aI69
aI0
aI1
ag70
aa(lp735
F0.28357515432162
aI67
aI97
aI1
ag72
aa(lp736
F0.14576355052941
aI67
aI0
aI1
ag74
aa(lp737
F0.35423644947059
aI69
aI85
aI1
ag76
aa(lp738
F0.19311171729441
aI69
aI0
aI1
ag78
aa(lp739
F0.30688828270559
aI67
aI94
aI1
ag80
aa(lp740
F0.15693226240001
aI67
aI0
aI1
ag82
aa(lp741
F0.34306773759999
aI69
aI97
aI1
ag84
aa(lp742
F0.2161993764621
aI69
aI0
aI1
ag86
aa(lp743
F0.2838006235379
aI67
aI94
aI1
ag88
aa(lp744
F0.13281404818372
aI67
aI0
aI1
ag90
aa(lp745
F0.36718595181628
aI69
aI97
aI1
ag92
aa(lp746
F0.18101217377534
aI69
aI0
aI1
ag94
aa(lp747
F0.31898782622466
aI67
aI101
aI1
ag96
aa(lp748
F0.18121460134989
aI67
aI0
aI1
ag98
aa(lp749
F0.31878539865011
aI69
aI98
aI1
ag100
aa(lp750
F0.19320551833516
aI69
aI0
aI1
ag102
aa(lp751
F0.30679448166484
aI71
aI101
aI1
ag104
aa(lp752
F0.16879679499561
aI71
aI0
aI1
ag106
aa(lp753
F0.33120320500439
aI69
aI98
aI1
ag108
aa(lp754
F0.1932552578528
aI69
aI0
aI1
ag110
aa(lp755
F0.3067447421472
aI67
aI109
aI1
ag112
aa(lp756
F0.18089902420979
aI67
aI0
aI1
ag114
aa(lp757
F0.31910097579021
aI0
aI0
aI0
ag116
aaa(lp758
(lp759
F0.0
aI72
aI79
aI1
ag119
aa(lp760
F0.13064956921244
aI72
aI0
aI1
ag121
aa(lp761
F0.36935043078756
aI71
aI35
aI1
ag123
aa(lp762
F0.29279914340896
aI71
aI0
aI1
ag125
aa(lp763
F0.20720085659104
aI69
aI89
aI1
ag127
aa(lp764
F0.13787719890206
aI69
aI0
aI1
ag129
aa(lp765
F0.36212280109794
aI71
aI35
aI1
ag131
aa(lp766
F0.31005959068716
aI71
aI0
aI1
ag133
aa(lp767
F0.18994040931284
aI69
aI96
aI1
ag135
aa(lp768
F0.23134918659161
aI69
aI0
aI1
ag137
aa(lp769
F0.26865081340839
aI67
aI77
aI1
ag139
aa(lp770
F0.31675393497153
aI67
aI0
aI1
ag141
aa(lp771
F0.18324606502847
aI69
aI96
aI1
ag143
aa(lp772
F0.32661764510431
aI69
aI0
aI1
ag145
aa(lp773
F0.17338235489569
aI67
aI86
aI1
ag147
aa(lp774
F0.31680918827715
aI67
aI0
aI1
ag149
aa(lp775
F0.18319081172285
aI69
aI75
aI1
ag151
aa(lp776
F0.31784860986409
aI69
aI0
aI1
ag153
aa(lp777
F0.18215139013591
aI67
aI76
aI1
ag155
aa(lp778
F0.28349236358372
aI67
aI0
aI1
ag157
aa(lp779
F0.21650763641628
aI69
aI100
aI1
ag159
aa(lp780
F0.17166781576634
aI69
aI0
aI1
ag161
aa(lp781
F0.32833218423366
aI71
aI83
aI1
ag163
aa(lp782
F0.32781450079347
aI71
aI0
aI1
ag165
aa(lp783
F0.17218549920653
aI69
aI98
aI1
ag167
aa(lp784
F0.24848390628631
aI69
aI0
aI1
ag169
aa(lp785
F0.25151609371369
aI67
aI85
aI1
ag171
aa(lp786
F0.33580168694243
aI67
aI0
aI1
ag173
aa(lp787
F0.16419831305757
aI69
aI95
aI1
ag175
aa(lp788
F0.21460893768472
aI69
aI0
aI1
ag177
aa(lp789
F0.28539106231528
aI67
aI86
aI1
ag179
aa(lp790
F0.28428094831634
aI67
aI0
aI1
ag181
aa(lp791
F0.21571905168366
aI0
aI0
aI0
ag183
aaa(lp792
(lp793
F0.0
aI81
aI45
aI1
ag186
aa(lp794
F0.38529333767747
aI81
aI0
aI1
ag188
aa(lp795
F1.1147066623225
aI79
aI60
aI1
ag190
aa(lp796
F0.48243921499125
aI79
aI0
aI1
ag192
aa(lp797
F1.0175607850088
aI76
aI45
aI1
ag194
aa(lp798
F0.39944518728134
aI76
aI0
aI1
ag196
aa(lp799
F1.1005548127187
aI79
aI76
aI1
ag198
aa(lp800
F0.32884300938713
aI79
aI0
aI1
ag200
aa(lp801
F0.67115699061287
aI76
aI56
aI1
ag202
aa(lp802
F0.28909793593539
aI76
aI0
aI1
ag204
aa(lp803
F0.21090206406461
aI74
aI57
aI1
ag206
aa(lp804
F0.53690331316102
aI74
aI0
aI1
ag208
aa(lp805
F1.2964300201723
aI76
aI77
aI1
ag210
aa(lp806
F0.44064360225002
aI76
aI0
aI1
ag212
aa(lp807
F1.2260230644166
aI74
aI89
aI1
ag214
aa(lp808
F0.41194645059295
aI74
aI0
aI1
ag216
aa(lp809
F1.0880535494071
aI72
aI68
aI1
ag218
aa(lp810
F0.50972359438674
aI72
aI0
aI1
ag220
aa(lp811
F0.99027640561326
aI74
aI75
aI1
ag222
aa(lp812
F0.40033149399278
aI74
aI0
aI1
ag224
aa(lp813
F0.93300183934055
aI76
aI67
aI1
ag226
aa(lp814
F0.57803191751736
aI76
aI0
aI1
ag228
aa(lp815
F0.5886347491493
aI0
aI0
aI0
ag230
aaa(lp816
(lp817
F1.0
aI81
aI96
aI1
ag233
aa(lp818
F0.6893972655289
aI81
aI0
aI1
ag235
aa(lp819
F0.8106027344711
aI79
aI91
aI1
ag237
aa(lp820
F0.60132375283592
aI79
aI0
aI1
ag239
aa(lp821
F0.89867624716408
aI76
aI95
aI1
ag241
aa(lp822
F0.592987403611
aI76
aI0
aI1
ag243
aa(lp823
F0.907012596389
aI79
aI96
aI1
ag245
aa(lp824
F0.49107242123591
aI79
aI0
aI1
ag247
aa(lp825
F0.50892757876409
aI76
aI84
aI1
ag249
aa(lp826
F0.19872395898801
aI76
aI0
aI1
ag251
aa(lp827
F0.30127604101199
aI74
aI93
aI1
ag253
aa(lp828
F0.36218026018014
aI74
aI0
aI1
ag255
aa(lp829
F1.6378197398199
aI76
aI84
aI1
ag257
aa(lp830
F0.65559531844792
aI76
aI0
aI1
ag259
aa(lp831
F0.84440468155208
aI74
aI84
aI1
ag261
aa(lp832
F0.62850743746276
aI74
aI0
aI1
ag263
aa(lp833
F0.87149256253724
aI72
aI76
aI1
ag265
aa(lp834
F0.59307051050382
aI72
aI0
aI1
ag267
aa(lp835
F0.90692948949618
aI74
aI91
aI1
ag269
aa(lp836
F0.61007007995249
aI74
aI0
aI1
ag271
aa(lp837
F0.88992992004751
aI76
aI88
aI1
ag273
aa(lp838
F0.69765680279033
aI76
aI0
aI1
ag275
aa(lp839
F0.30234319720967
aI0
aI0
aI0
ag277
aaaI0
aI0
aI0
aI0
aI0
aI0
a(lp840
(lp841
F0.0
aI48
aI83
aI1
ag280
aa(lp842
F0.056754603594527
aI48
aI0
aI1
ag282
aa(lp843
F0.44324539640547
aI43
aI92
aI1
ag284
aa(lp844
F0.1711729444778
aI43
aI0
aI1
ag286
aa(lp845
F1.3288270555222
aI45
aI89
aI1
ag288
aa(lp846
F0.18583258484796
aI45
aI0
aI1
ag290
aa(lp847
F1.814167415152
aI45
aI89
aI1
ag292
aa(lp848
F0.16088989149284
aI45
aI0
aI1
ag294
aa(lp849
F1.8391101085072
aI47
aI71
aI1
ag296
aa(lp850
F0.066665288477452
aI47
aI0
aI1
ag298
aa(lp851
F1.9333347115225
aI48
aI88
aI1
ag300
aa(lp852
F0.065393560245866
aI48
aI0
aI1
ag302
aa(lp853
F1.9346064397541
aI48
aI96
aI1
ag304
aa(lp854
F0.0674422433367
aI48
aI0
aI1
ag306
aa(lp855
F1.9325577566633
aI50
aI89
aI1
ag308
aa(lp856
F0.14478007303114
aI50
aI0
aI1
ag310
aa(lp857
F1.8552199269689
aI50
aI56
aI1
ag312
aa(lp858
F1.3237689248508
aI50
aI0
aI1
ag314
aa(lp859
F0.67623107514919
aI0
aI0
aI0
ag316
aaa(lp860
(lp861
F0.0
aI55
aI60
aI1
aS'on'
p862
aa(lp863
F0.066212366529726
aI55
aI0
aI1
aS'off'
p864
aa(lp865
F0.43378763347027
aI52
aI92
aI1
aS'on'
p866
aa(lp867
F0.1837983363348
aI52
aI0
aI1
aS'off'
p868
aa(lp869
F1.3162016636652
aI52
aI95
aI1
aS'on'
p870
aa(lp871
F0.065915742870857
aI52
aI0
aI1
aS'off'
p872
aa(lp873
F1.9340842571291
aI50
aI62
aI1
aS'on'
p874
aa(lp875
F0.065629424567305
aI50
aI0
aI1
aS'off'
p876
aa(lp877
F0.43437057543269
aI52
aI72
aI1
aS'on'
p878
aa(lp879
F0.065865061174918
aI52
aI0
aI1
aS'off'
p880
aa(lp881
F1.4341349388251
aI52
aI86
aI1
aS'on'
p882
aa(lp883
F1.1496303813983
aI52
aI0
aI1
aS'off'
p884
aa(lp885
F0.85036961860169
aI0
aI0
aI0
aS'timeAfterLastHit'
p886
aaaI0
aI0
aI0
aI0
a(lp887
(lp888
F0.058194671724209
aI60
aI54
aI1
ag319
aa(lp889
F0.00020332048677574
aI57
aI71
aI1
ag321
aa(lp890
F0.066646321641883
aI60
aI0
aI1
ag323
aa(lp891
F0.00012564537973958
aI57
aI0
aI1
ag325
aa(lp892
F1.4185599664921
aI60
aI88
aI1
ag327
aa(lp893
F0.01258963197904
aI57
aI72
aI1
ag329
aa(lp894
F0.067308744792399
aI57
aI0
aI1
ag331
aa(lp895
F0.039498020644601
aI60
aI0
aI1
ag333
aa(lp896
F6.3368736768592
aI0
aI0
aI0
ag335
aaa(lp897
(lp898
F0.0
aI48
aI52
aI1
ag338
aa(lp899
F0.11475325079846
aI48
aI0
aI1
ag340
aa(lp900
F0.38524674920154
aI50
aI70
aI1
ag342
aa(lp901
F0.057617311074864
aI50
aI0
aI1
ag344
aa(lp902
F0.94238268892514
aI50
aI87
aI1
ag346
aa(lp903
F0.2284324443483
aI50
aI0
aI1
ag348
aa(lp904
F6.2715675556517
aI48
aI88
aI1
ag350
aa(lp905
F0.17293180156116
aI48
aI0
aI1
ag352
aa(lp906
F0.32706819843884
aI50
aI74
aI1
ag354
aa(lp907
F0.16101132413996
aI50
aI0
aI1
ag356
aa(lp908
F0.83898867586004
aI50
aI58
aI1
ag358
aa(lp909
F0.17229237945003
aI50
aI0
aI1
ag360
aa(lp910
F6.32770762055
aI48
aI88
aI1
ag362
aa(lp911
F0.17141273164248
aI48
aI0
aI1
ag364
aa(lp912
F0.32858726835752
aI50
aI53
aI1
ag366
aa(lp913
F0.12567113808859
aI50
aI0
aI1
ag368
aa(lp914
F0.87432886191141
aI50
aI84
aI1
ag370
aa(lp915
F0.18370918694063
aI50
aI0
aI1
ag372
aa(lp916
F0.81629081305937
aI48
aI89
aI1
ag374
aa(lp917
F0.16046914079857
aI48
aI0
aI1
ag376
aa(lp918
F0.33953085920143
aI50
aI84
aI1
ag378
aa(lp919
F0.18393310309443
aI50
aI0
aI1
ag380
aa(lp920
F0.81606689690557
aI52
aI93
aI1
ag382
aa(lp921
F0.17110176523056
aI52
aI0
aI1
ag384
aa(lp922
F0.32889823476944
aI50
aI34
aI1
ag386
aa(lp923
F0.13849671148637
aI50
aI0
aI1
ag388
aa(lp924
F0.86150328851363
aI48
aI89
aI1
ag390
aa(lp925
F0.14908380346174
aI48
aI0
aI1
ag392
aa(lp926
F0.35091619653826
aI50
aI89
aI1
ag394
aa(lp927
F0.18466892758852
aI50
aI0
aI1
ag396
aa(lp928
F0.81533107241148
aI48
aI86
aI1
ag398
aa(lp929
F0.18393353449392
aI48
aI0
aI1
ag400
aa(lp930
F0.31606646550608
aI47
aI87
aI1
ag402
aa(lp931
F0.14888684537482
aI47
aI0
aI1
ag404
aa(lp932
F0.85111315462518
aI48
aI89
aI1
ag406
aa(lp933
F0.17349059598519
aI48
aI0
aI1
ag408
aa(lp934
F0.32650940401481
aI47
aI86
aI1
ag410
aa(lp935
F0.16359965295533
aI47
aI0
aI1
ag412
aa(lp936
F0.83640034704467
aI45
aI60
aI1
ag414
aa(lp937
F0.1604175577429
aI45
aI0
aI1
ag416
aa(lp938
F0.3395824422571
aI45
aI86
aI1
ag418
aa(lp939
F4.9192571825456
aI45
aI0
aI1
ag420
aa(lp940
F0.58074281745439
aI0
aI0
aI0
ag422
aaa(lp941
(lp942
F0.0
aI48
aI31
aI1
ag425
aa(lp943
F0.045634444319148
aI48
aI0
aI1
ag427
aa(lp944
F0.45436555568085
aI50
aI81
aI1
ag429
aa(lp945
F0.27028138186142
aI50
aI0
aI1
ag431
aa(lp946
F0.72971861813858
aI50
aI71
aI1
ag433
aa(lp947
F0.16541502120162
aI50
aI0
aI1
ag435
aa(lp948
F0.83458497879838
aI48
aI67
aI1
ag437
aa(lp949
F0.10411423407459
aI48
aI0
aI1
ag439
aa(lp950
F0.39588576592541
aI50
aI84
aI1
ag441
aa(lp951
F0.13474908836088
aI50
aI0
aI1
ag443
aa(lp952
F0.36525091163912
aI52
aI95
aI1
ag445
aa(lp953
F0.18876241267571
aI52
aI0
aI1
ag447
aa(lp954
F4.3112375873243
aI48
aI79
aI1
ag449
aa(lp955
F0.12580651197459
aI48
aI0
aI1
ag451
aa(lp956
F0.37419348802541
aI50
aI70
aI1
ag453
aa(lp957
F0.052692764837047
aI50
aI0
aI1
ag455
aa(lp958
F0.94730723516295
aI50
aI63
aI1
ag457
aa(lp959
F0.093803391650908
aI50
aI0
aI1
ag459
aa(lp960
F0.90619660834909
aI48
aI88
aI1
ag461
aa(lp961
F0.052541318192198
aI48
aI0
aI1
ag463
aa(lp962
F0.4474586818078
aI50
aI74
aI1
ag465
aa(lp963
F0.051728882937823
aI50
aI0
aI1
ag467
aa(lp964
F0.44827111706218
aI52
aI74
aI1
ag469
aa(lp965
F0.13471846842549
aI52
aI0
aI1
ag471
aa(lp966
F4.3652815315745
aI48
aI83
aI1
ag473
aa(lp967
F0.16579209744759
aI48
aI0
aI1
ag475
aa(lp968
F0.33420790255241
aI50
aI25
aI1
ag477
aa(lp969
F0.050817971771721
aI50
aI0
aI1
ag479
aa(lp970
F0.94918202822828
aI50
aI72
aI1
ag481
aa(lp971
F0.14592404066752
aI50
aI0
aI1
ag483
aa(lp972
F0.85407595933248
aI48
aI75
aI1
ag485
aa(lp973
F0.13517465680616
aI48
aI0
aI1
ag487
aa(lp974
F0.36482534319384
aI50
aI89
aI1
ag489
aa(lp975
F0.15620140176088
aI50
aI0
aI1
ag491
aa(lp976
F0.84379859823912
aI52
aI98
aI1
ag493
aa(lp977
F0.15660190556719
aI52
aI0
aI1
ag495
aa(lp978
F0.34339809443281
aI50
aI31
aI1
ag497
aa(lp979
F0.12592219415455
aI50
aI0
aI1
ag499
aa(lp980
F0.87407780584545
aI48
aI92
aI1
ag501
aa(lp981
F0.13613892354806
aI48
aI0
aI1
ag503
aa(lp982
F0.36386107645194
aI50
aI95
aI1
ag505
aa(lp983
F0.20842701518086
aI50
aI0
aI1
ag507
aa(lp984
F0.79157298481914
aI48
aI76
aI1
ag509
aa(lp985
F0.17699182725664
aI48
aI0
aI1
ag511
aa(lp986
F0.32300817274336
aI47
aI90
aI1
ag513
aa(lp987
F0.20865196881368
aI47
aI0
aI1
ag515
aa(lp988
F0.79134803118632
aI48
aI74
aI1
ag517
aa(lp989
F0.14684130473415
aI48
aI0
aI1
ag519
aa(lp990
F0.35315869526585
aI47
aI101
aI1
ag521
aa(lp991
F0.20761974041216
aI47
aI0
aI1
ag523
aa(lp992
F0.79238025958784
aI45
aI76
aI1
ag525
aa(lp993
F0.051825107619152
aI45
aI0
aI1
ag527
aa(lp994
F0.44817489238085
aI45
aI87
aI1
ag529
aa(lp995
F4.7109430730034
aI45
aI0
aI1
ag531
aa(lp996
F0.78905692699664
aI0
aI0
aI0
ag533
aaa(lp997
(lp998
F0.0
aI57
aI93
aI1
ag536
aa(lp999
F0.19358589562898
aI57
aI0
aI1
ag538
aa(lp1000
F0.30641410437102
aI55
aI56
aI1
ag540
aa(lp1001
F0.12118321478647
aI55
aI0
aI1
ag542
aa(lp1002
F1.3788167852135
aI55
aI84
aI1
ag544
aa(lp1003
F0.20418353899913
aI55
aI0
aI1
ag546
aa(lp1004
F1.7958164610009
aI52
aI92
aI1
ag548
aa(lp1005
F0.20557338921935
aI52
aI0
aI1
ag550
aa(lp1006
F0.29442661078065
aI55
aI87
aI1
ag552
aa(lp1007
F0.16769050106359
aI55
aI0
aI1
ag554
aa(lp1008
F1.3323094989364
aI55
aI88
aI1
ag556
aa(lp1009
F0.26482197083806
aI55
aI0
aI1
ag558
aa(lp1010
F1.7351780291619
aI0
aI0
aI0
ag560
aaaI0
aI0
aI0
aI0
aI0
aI0
aI0
aI0
aI0
aI0
aI0
aI0
aI0
aI0
aI0
aI0
aI0
aI0
aI0
aI0
aI0
aI0
aI0
aI0
aI0
aI0
aI0
aI0
aI0
aI0
aI0
aI0
aI0
aI0
aI0
aI0
aI0
aI0
aI0
aI0
aI0
aI0
aI0
aI0
aI0
aI0
aI0
aI0
aI0
aI0
aI0
aI0
aI0
aI0
aI0
aa(lp1011
(dp1012
a(dp1013
a(dp1014
a(dp1015
a(dp1016
a(dp1017
a(dp1018
a(dp1019
a(dp1020
a(dp1021
a(dp1022
a(dp1023
a(dp1024
a(dp1025
a(dp1026
a(dp1027
a(dp1028
a(dp1029
a(dp1030
a(dp1031
a(dp1032
g583
I54
sg584
I0
sa(dp1033
a(dp1034
a(dp1035
a(dp1036
a(dp1037
g583
I61
sg584
I0
sa(dp1038
g583
I62
sg584
I0
sa(dp1039
g583
I63
sg584
I0
sa(dp1040
g583
I64
sg584
I0
sa(dp1041
a(dp1042
a(dp1043
a(dp1044
a(dp1045
a(dp1046
a(dp1047
g583
I73
sg584
I0
sa(dp1048
g583
I74
sg584
I1
sa(dp1049
a(dp1050
a(dp1051
a(dp1052
a(dp1053
g583
I81
sg584
I1
sa(dp1054
g583
I82
sg584
I0
sa(dp1055
g583
I83
sg584
I1
sa(dp1056
g583
I84
sg584
I0
sa(dp1057
a(dp1058
a(dp1059
a(dp1060
a(dp1061
a(dp1062
a(dp1063
a(dp1064
a(dp1065
a(dp1066
a(dp1067
a(dp1068
a(dp1069
a(dp1070
a(dp1071
a(dp1072
a(dp1073
a(dp1074
a(dp1075
a(dp1076
a(dp1077
a(dp1078
a(dp1079
a(dp1080
a(dp1081
a(dp1082
a(dp1083
a(dp1084
a(dp1085
a(dp1086
a(dp1087
a(dp1088
a(dp1089
a(dp1090
a(dp1091
a(dp1092
a(dp1093
a(dp1094
a(dp1095
a(dp1096
a(dp1097
a(dp1098
a(dp1099
a(dp1100
a(dp1101
a(dp1102
a(dp1103
a(dp1104
a(dp1105
a(dp1106
a(dp1107
a(dp1108
a(dp1109
a(dp1110
a(dp1111
aa(lp1112
I60
aI60
aI36
aI36
aa(lp1113
(lp1114
I0
aI2
aI3
aI5
aI7
aI8
aI10
aa(lp1115
I0
aI2
aI3
aI5
aI7
aI8
aI10
aa(lp1116
I0
aI2
aI3
aI5
aI7
aI8
aI10
aa(lp1117
I0
aI2
aI3
aI5
aI7
aI8
aI10
aa(lp1118
I0
aI2
aI3
aI5
aI7
aI8
aI10
aa(lp1119
I0
aI1
aI2
aI3
aI4
aI5
aI6
aI7
aI8
aI9
aI10
aI11
aaa(lp1120
(lp1121
(lp1122
I0
aI0
aI0
aI0
aI0
aI0
aI0
aI0
aI0
aI0
aI0
aI0
aa(lp1123
I0
aI0
aI0
aI0
aI0
aI0
aI0
aI0
aI0
aI0
aI0
aI0
aa(lp1124
I0
aI0
aI0
aI0
aI0
aI0
aI0
aI0
aI0
aI0
aI0
aI0
aa(lp1125
I0
aI0
aI0
aI0
aI0
aI0
aI0
aI0
aI0
aI0
aI0
aI0
aaa(lp1126
(lp1127
I0
aI0
aI0
aI0
aI0
aI0
aI0
aI0
aI0
aI0
aI0
aI0
aa(lp1128
I0
aI0
aI0
aI0
aI0
aI0
aI0
aI0
aI0
aI0
aI0
aI0
aa(lp1129
I0
aI0
aI0
aI0
aI0
aI0
aI0
aI0
aI0
aI0
aI0
aI0
aa(lp1130
I0
aI0
aI0
aI0
aI0
aI0
aI0
aI0
aI0
aI0
aI0
aI0
aaa(lp1131
(lp1132
I0
aI0
aI0
aI0
aI0
aI0
aI0
aI0
aI0
aI0
aI0
aI0
aa(lp1133
I0
aI0
aI0
aI0
aI0
aI0
aI0
aI0
aI0
aI0
aI0
aI0
aa(lp1134
I0
aI0
aI0
aI0
aI0
aI0
aI0
aI0
aI0
aI0
aI0
aI0
aa(lp1135
I0
aI0
aI0
aI0
aI0
aI0
aI0
aI0
aI0
aI0
aI0
aI0
aaa(lp1136
(lp1137
I0
aI0
aI0
aI0
aI0
aI0
aI0
aI0
aI0
aI0
aI0
aI0
aa(lp1138
I0
aI0
aI0
aI0
aI0
aI0
aI0
aI0
aI0
aI0
aI0
aI0
aa(lp1139
I0
aI0
aI0
aI0
aI0
aI0
aI0
aI0
aI0
aI0
aI0
aI0
aa(lp1140
I0
aI0
aI0
aI0
aI0
aI0
aI0
aI0
aI0
aI0
aI0
aI0
aaaa(lp1141
(lp1142
I0
aI0
aI0
aI0
aI0
aI0
aI0
aI0
aI0
aI0
aI0
aI0
aa(lp1143
I0
aI0
aI0
aI0
aI0
aI0
aI0
aI0
aI0
aI0
aI0
aI0
aa(lp1144
I0
aI0
aI0
aI0
aI0
aI0
aI0
aI0
aI0
aI0
aI0
aI0
aa(lp1145
I0
aI0
aI0
aI0
aI0
aI0
aI0
aI0
aI0
aI0
aI0
aI0
aaaaI0
aI0
aI0
aI0
aI0
aI0
aI0
aI0
aI0
aI0
aI0
aI0
aI0
aI0
aI0
aI0
aI0
aI0
aI0
aI0
aI0
aI0
aI0
aI0
aI0
aI0
aI0
aI0
aI0
a.