(lp0
I0
a(lp1
(lp2
I0
a(lp3
(lp4
F0.0
aI31
aI99
aI3
aS'on'
p5
aa(lp6
F0.65891966590061
aI31
aI0
aI3
aS'off'
p7
aa(lp8
F0.34108033409939
aI31
aI103
aI3
aS'on'
p9
aa(lp10
F0.69522106402292
aI31
aI0
aI3
aS'off'
p11
aa(lp12
F0.30477893597708
aI31
aI99
aI3
aS'on'
p13
aa(lp14
F0.69438935178641
aI31
aI0
aI3
aS'off'
p15
aa(lp16
F0.30561064821359
aI31
aI110
aI3
aS'on'
p17
aa(lp18
F0.65623286085247
aI31
aI0
aI3
aS'off'
p19
aa(lp20
F0.34376713914753
aI0
aI0
aI0
aS'timeAfterLastHit'
p21
aaaI0
a(lp22
(lp23
F0.5
aI35
aI108
aI3
aS'on'
p24
aa(lp25
F0.30620387969975
aI35
aI0
aI3
aS'off'
p26
aa(lp27
F0.52712945363358
aI34
aI112
aI3
aS'on'
p28
aa(lp29
F0.24786790991675
aI34
aI0
aI3
aS'off'
p30
aa(lp31
F0.25213209008325
aI33
aI112
aI3
aS'on'
p32
aa(lp33
F1.5793990982747
aI33
aI0
aI3
aS'off'
p34
aa(lp35
F0.58726756839193
aI0
aI0
aI0
aS'timeAfterLastHit'
p36
aaa(lp37
(lp38
F2.5
aI32
aI116
aI3
aS'on'
p39
aa(lp40
F0.46043987666417
aI32
aI0
aI3
aS'off'
p41
aa(lp42
F3.5395601233358
aI32
aI116
aI3
aS'on'
p43
aa(lp44
F0.18851552586784
aI32
aI0
aI3
aS'off'
p45
aa(lp46
F0.31148447413216
aI32
aI121
aI3
aS'on'
p47
aa(lp48
F0.48404598876914
aI32
aI0
aI3
aS'off'
p49
aa(lp50
F0.51595401123086
aI0
aI0
aI0
aS'timeAfterLastHit'
p51
aaaI0
a(lp52
(lp53
F0.022280124010649
aI67
aI114
aI1
aS'on'
p54
aa(lp55
F31.804039500968
aI67
aI0
aI1
aS'off'
p56
aa(lp57
F0.17368037502092
aI0
aI0
aI0
aS'timeAfterLastHit'
p58
aaa(lp59
(lp60
F0.038942152919844
aI74
aI90
aI1
aS'on'
p61
aa(lp62
F8.0116228372208
aI72
aI79
aI1
aS'on'
p63
aa(lp64
F0.094126738064006
aI74
aI0
aI1
aS'off'
p65
aa(lp66
F7.8880592366149
aI70
aI89
aI1
aS'on'
p67
aa(lp68
F0.093149186541268
aI72
aI0
aI1
aS'off'
p69
aa(lp70
F7.7568202098737
aI77
aI91
aI1
aS'on'
p71
aa(lp72
F0.059425325498523
aI70
aI0
aI1
aS'off'
p73
aa(lp74
F4.0362970412316
aI76
aI93
aI1
aS'on'
p75
aa(lp76
F0.070295431150953
aI77
aI0
aI1
aS'off'
p77
aa(lp78
F1.7330733408453
aI72
aI110
aI1
aS'on'
p79
aa(lp80
F0.058033331162733
aI76
aI0
aI1
aS'off'
p81
aa(lp82
F1.9785055260199
aI72
aI0
aI1
aS'off'
p83
aa(lp84
F0.18164964285643
aI0
aI0
aI0
aS'timeAfterLastHit'
p85
aaa(lp86
(lp87
F0.1456310114736
aI81
aI118
aI1
aS'on'
p88
aa(lp89
F15.787790768061
aI81
aI0
aI1
aS'off'
p90
aa(lp91
F0.11686472997644
aI79
aI114
aI1
aS'on'
p92
aa(lp93
F15.734362672298
aI79
aI0
aI1
aS'off'
p94
aa(lp95
F0.082417115072531
aI82
aI108
aI1
aS'on'
p96
aa(lp97
F16.107255950279
aI84
aI100
aI1
aS'on'
p98
aa(lp99
F0.10505749042022
aI82
aI0
aI1
aS'off'
p100
aa(lp101
F15.910620262419
aI84
aI0
aI1
aS'off'
p102
aa(lp103
F0.010000000000218
aI0
aI0
aI0
aS'timeAfterLastHit'
p104
aaaI0
aI0
a(lp105
(lp106
F0.5
aI26
aI112
aI3
aS'on'
p107
aa(lp108
F0.13974191692978
aI26
aI0
aI3
aS'off'
p109
aa(lp110
F0.36025808307022
aI35
aI110
aI3
aS'on'
p111
aa(lp112
F0.17630939709125
aI35
aI0
aI3
aS'off'
p113
aa(lp114
F0.32369060290875
aI34
aI115
aI3
aS'on'
p115
aa(lp116
F0.17749105834264
aI34
aI0
aI3
aS'off'
p117
aa(lp118
F0.32250894165736
aI33
aI114
aI3
aS'on'
p119
aa(lp120
F0.25283057809429
aI33
aI0
aI3
aS'off'
p121
aa(lp122
F0.58050275523904
aI34
aI119
aI3
aS'on'
p123
aa(lp124
F0.22297643197271
aI34
aI0
aI3
aS'off'
p125
aa(lp126
F0.44369023469396
aI35
aI116
aI3
aS'on'
p127
aa(lp128
F0.27882346488877
aI35
aI0
aI3
aS'off'
p129
aa(lp130
F0.55450986844456
aI26
aI118
aI3
aS'on'
p131
aa(lp132
F0.21446112910598
aI26
aI0
aI3
aS'off'
p133
aa(lp134
F0.45220553756068
aI35
aI116
aI3
aS'on'
p135
aa(lp136
F2.0478544536672
aI35
aI0
aI3
aS'off'
p137
aa(lp138
F0.95214554633276
aI0
aI0
aI0
aS'timeAfterLastHit'
p139
aaa(lp140
(lp141
F0.5
aI30
aI114
aI3
aS'on'
p142
aa(lp143
F0.14987270940765
aI30
aI0
aI3
aS'off'
p144
aa(lp145
F0.35012729059235
aI29
aI113
aI3
aS'on'
p146
aa(lp147
F0.15767134934322
aI29
aI0
aI3
aS'off'
p148
aa(lp149
F0.34232865065678
aI28
aI116
aI3
aS'on'
p150
aa(lp151
F0.15833204835326
aI28
aI0
aI3
aS'off'
p152
aa(lp153
F0.34166795164674
aI27
aI118
aI3
aS'on'
p154
aa(lp155
F0.25000905072557
aI27
aI0
aI3
aS'off'
p156
aa(lp157
F0.58332428260777
aI28
aI117
aI3
aS'on'
p158
aa(lp159
F0.25239797534414
aI28
aI0
aI3
aS'off'
p160
aa(lp161
F0.41426869132253
aI29
aI114
aI3
aS'on'
p162
aa(lp163
F0.28990001202874
aI29
aI0
aI3
aS'off'
p164
aa(lp165
F0.54343332130459
aI30
aI116
aI3
aS'on'
p166
aa(lp167
F0.28897668218269
aI30
aI0
aI3
aS'off'
p168
aa(lp169
F0.37768998448397
aI29
aI116
aI3
aS'on'
p170
aa(lp171
F2.406297322781
aI29
aI0
aI3
aS'off'
p172
aa(lp173
F0.59370267721897
aI0
aI0
aI0
aS'timeAfterLastHit'
p174
aaaI0
aI0
aI0
aI0
aI0
aI0
aI0
aI0
aI0
a(lp175
(lp176
F0.56421944935209
aI31
aI121
aI2
aS'on'
p177
aa(lp178
F0.613302803642
aI31
aI0
aI2
aS'off'
p179
aa(lp180
F0.33082235890106
aI31
aI119
aI2
aS'on'
p181
aa(lp182
F0.65821710743876
aI31
aI0
aI2
aS'off'
p183
aa(lp184
F0.38889901010589
aI31
aI118
aI2
aS'on'
p185
aa(lp186
F0.67216875888516
aI31
aI0
aI2
aS'off'
p187
aa(lp188
F0.33263003994944
aI31
aI116
aI2
aS'on'
p189
aa(lp190
F0.53831089549749
aI31
aI0
aI2
aS'off'
p191
aa(lp192
F0.48315048032055
aI34
aI114
aI2
aS'on'
p193
aa(lp194
F0.61179574664311
aI34
aI0
aI2
aS'off'
p195
aa(lp196
F0.3422095874048
aI34
aI111
aI2
aS'on'
p197
aa(lp198
F0.58831229353018
aI34
aI0
aI2
aS'off'
p199
aa(lp200
F0.39061991361268
aI38
aI110
aI2
aS'on'
p201
aa(lp202
F0.69349057484578
aI38
aI0
aI2
aS'off'
p203
aa(lp204
F0.3548961760207
aI38
aI119
aI2
aS'on'
p205
aa(lp206
F0.42695480385009
aI38
aI0
aI2
aS'off'
p207
aa(lp208
F0.010000000000218
aI0
aI0
aI0
aS'timeAfterLastHit'
p209
aaa(lp210
(lp211
F0.49227794327635
aI31
aI114
aI2
aS'on'
p212
aa(lp213
F0.65913780027586
aI31
aI0
aI2
aS'off'
p214
aa(lp215
F0.2713360914986
aI31
aI117
aI2
aS'on'
p216
aa(lp217
F0.63601774967174
aI31
aI0
aI2
aS'off'
p218
aa(lp219
F0.36534356198717
aI31
aI121
aI2
aS'on'
p220
aa(lp221
F0.67017547363503
aI31
aI0
aI2
aS'off'
p222
aa(lp223
F0.36410229318244
aI31
aI120
aI2
aS'on'
p224
aa(lp225
F0.67049590087481
aI31
aI0
aI2
aS'off'
p226
aa(lp227
F0.38801378859171
aI34
aI117
aI2
aS'on'
p228
aa(lp229
F0.60116991338327
aI34
aI0
aI2
aS'off'
p230
aa(lp231
F0.37638399355092
aI34
aI118
aI2
aS'on'
p232
aa(lp233
F0.60135992305004
aI34
aI0
aI2
aS'off'
p234
aa(lp235
F0.43568852815588
aI38
aI118
aI2
aS'on'
p236
aa(lp237
F0.62536045169327
aI38
aI0
aI2
aS'off'
p238
aa(lp239
F0.3523185479462
aI38
aI119
aI2
aS'on'
p240
aa(lp241
F0.66080311603946
aI38
aI0
aI2
aS'off'
p242
aa(lp243
F0.42338002542601
aI31
aI120
aI2
aS'on'
p244
aa(lp245
F0.50707978463106
aI31
aI0
aI2
aS'off'
p246
aa(lp247
F0.41300469305497
aI31
aI120
aI2
aS'on'
p248
aa(lp249
F0.66051729255196
aI31
aI0
aI2
aS'off'
p250
aa(lp251
F0.35301780470763
aI31
aI121
aI2
aS'on'
p252
aa(lp253
F0.63722350658827
aI31
aI0
aI2
aS'off'
p254
aa(lp255
F0.38958028670822
aI31
aI120
aI2
aS'on'
p256
aa(lp257
F0.61320317926584
aI31
aI0
aI2
aS'off'
p258
aa(lp259
F0.38829588038789
aI34
aI118
aI2
aS'on'
p260
aa(lp261
F0.6128501042549
aI34
aI0
aI2
aS'off'
p262
aa(lp263
F0.30746015413388
aI34
aI120
aI2
aS'on'
p264
aa(lp265
F0.63522598938471
aI34
aI0
aI2
aS'off'
p266
aa(lp267
F0.39085507987329
aI38
aI121
aI2
aS'on'
p268
aa(lp269
F0.59858158148927
aI38
aI0
aI2
aS'off'
p270
aa(lp271
F0.38746703306606
aI38
aI120
aI2
aS'on'
p272
aa(lp273
F0.66093472567809
aI38
aI0
aI2
aS'off'
p274
aa(lp275
F0.41287520840524
aI31
aI122
aI2
aS'on'
p276
aa(lp277
F0.62245907256147
aI31
aI0
aI2
aS'off'
p278
aa(lp279
F0.40160050970371
aI31
aI120
aI2
aS'on'
p280
aa(lp281
F0.60125549435361
aI31
aI0
aI2
aS'off'
p282
aa(lp283
F0.41237103379535
aI31
aI120
aI2
aS'on'
p284
aa(lp285
F0.61476985990885
aI31
aI0
aI2
aS'off'
p286
aa(lp287
F0.37499460869003
aI31
aI119
aI2
aS'on'
p288
aa(lp289
F0.55470893043639
aI31
aI0
aI2
aS'off'
p290
aa(lp291
F0.41298512422145
aI34
aI119
aI2
aS'on'
p292
aa(lp293
F0.58854320305181
aI34
aI0
aI2
aS'off'
p294
aa(lp295
F0.36533777066143
aI34
aI119
aI2
aS'on'
p296
aa(lp297
F0.65962734783716
aI34
aI0
aI2
aS'off'
p298
aa(lp299
F0.35414563783161
aI38
aI118
aI2
aS'on'
p300
aa(lp301
F0.61388542033637
aI38
aI0
aI2
aS'off'
p302
aa(lp303
F0.41371023690226
aI38
aI114
aI2
aS'on'
p304
aa(lp305
F0.52998468849728
aI38
aI0
aI2
aS'off'
p306
aa(lp307
F0.4588926589422
aI41
aI116
aI2
aS'on'
p308
aa(lp309
F0.57787481817286
aI41
aI0
aI2
aS'off'
p310
aa(lp311
F0.39913224985867
aI41
aI118
aI2
aS'on'
p312
aa(lp313
F0.62391759732236
aI41
aI0
aI2
aS'off'
p314
aa(lp315
F0.42530713404085
aI41
aI118
aI2
aS'on'
p316
aa(lp317
F0.57624981636582
aI41
aI0
aI2
aS'off'
p318
aa(lp319
F0.37719409679812
aI41
aI114
aI2
aS'on'
p320
aa(lp321
F0.60124674426152
aI41
aI0
aI2
aS'off'
p322
aa(lp323
F0.42412904480079
aI40
aI120
aI2
aS'on'
p324
aa(lp325
F0.61248502294075
aI40
aI0
aI2
aS'off'
p326
aa(lp327
F0.38835218247186
aI40
aI123
aI2
aS'on'
p328
aa(lp329
F0.64846973313433
aI40
aI0
aI2
aS'off'
p330
aa(lp331
F0.40124431819277
aI40
aI123
aI2
aS'on'
p332
aa(lp333
F0.59952362788317
aI40
aI0
aI2
aS'off'
p334
aa(lp335
F0.39015781965281
aI40
aI123
aI2
aS'on'
p336
aa(lp337
F0.29395246550484
aI40
aI0
aI2
aS'off'
p338
aa(lp339
F0.11995432444746
aI0
aI0
aI0
aS'timeAfterLastHit'
p340
aaaI0
a(lp341
(lp342
F0.5
aI38
aI120
aI3
aS'on'
p343
aa(lp344
F0.95324115163658
aI38
aI0
aI3
aS'off'
p345
aa(lp346
F1.0467588483634
aI38
aI115
aI3
aS'on'
p347
aa(lp348
F1.1735155769238
aI38
aI0
aI3
aS'off'
p349
aa(lp350
F0.82648442307618
aI38
aI120
aI3
aS'on'
p351
aa(lp352
F1.2662785580997
aI38
aI0
aI3
aS'off'
p353
aa(lp354
F0.73372144190034
aI38
aI120
aI3
aS'on'
p355
aa(lp356
F1.1735331852788
aI38
aI0
aI3
aS'off'
p357
aa(lp358
F0.32646681472124
aI0
aI0
aI0
aS'timeAfterLastHit'
p359
aaa(lp360
(lp361
F0.75710982805776
aI38
aI108
aI3
aS'on'
p362
aa(lp363
F2.3654799207807
aI38
aI0
aI3
aS'off'
p364
aa(lp365
F1.1181690560325
aI38
aI107
aI3
aS'on'
p366
aa(lp367
F3.2891501871936
aI38
aI0
aI3
aS'off'
p368
aa(lp369
F0.47009100793548
aI0
aI0
aI0
aS'timeAfterLastHit'
p370
aaaI0
aI0
aI0
a(lp371
(lp372
F0.5
aI31
aI120
aI2
aS'on'
p373
aa(lp374
F0.4579300940004
aI31
aI0
aI2
aS'off'
p375
aa(lp376
F0.5420699059996
aI31
aI120
aI2
aS'on'
p377
aa(lp378
F0.54177763200005
aI31
aI0
aI2
aS'off'
p379
aa(lp380
F0.45822236799995
aI31
aI121
aI2
aS'on'
p381
aa(lp382
F0.59366601999955
aI31
aI0
aI2
aS'off'
p383
aa(lp384
F0.40633398000045
aI31
aI118
aI2
aS'on'
p385
aa(lp386
F0.55593204599973
aI31
aI0
aI2
aS'off'
p387
aa(lp388
F0.44406795400027
aI34
aI120
aI2
aS'on'
p389
aa(lp390
F0.60656612799994
aI34
aI0
aI2
aS'off'
p391
aa(lp392
F0.39343387200006
aI34
aI117
aI2
aS'on'
p393
aa(lp394
F0.55493520999971
aI34
aI0
aI2
aS'off'
p395
aa(lp396
F0.44506479000029
aI37
aI123
aI2
aS'on'
p397
aa(lp398
F0.58670086599977
aI37
aI0
aI2
aS'off'
p399
aa(lp400
F0.41329913400023
aI37
aI123
aI2
aS'on'
p401
aa(lp402
F0.41736095200031
aI37
aI0
aI2
aS'off'
p403
aa(lp404
F0.082639047999692
aI0
aI0
aI0
aS'timeAfterLastHit'
p405
aaaI0
a(lp406
(lp407
F0.012034010000207
aI31
aI95
aI2
aS'on'
p408
aa(lp409
F14.722928938
aI31
aI0
aI2
aS'off'
p410
aa(lp411
F0.1785338640002
aI29
aI71
aI2
aS'on'
p412
aa(lp413
F0.84932248999985
aI29
aI0
aI2
aS'off'
p414
aa(lp415
F0.23718069799997
aI0
aI0
aI0
aS'timeAfterLastHit'
p416
aaa(lp417
(lp418
F0.0
aI36
aI110
aI3
aS'on'
p419
aa(lp420
F0.09875165837957
aI36
aI0
aI3
aS'off'
p421
aa(lp422
F0.90124834162043
aI36
aI110
aI3
aS'on'
p423
aa(lp424
F0.189526997332
aI36
aI0
aI3
aS'off'
p425
aa(lp426
F0.310473002668
aI37
aI113
aI3
aS'on'
p427
aa(lp428
F0.18934270846466
aI37
aI0
aI3
aS'off'
p429
aa(lp430
F0.31065729153534
aI36
aI103
aI3
aS'on'
p431
aa(lp432
F0.19110574135993
aI36
aI0
aI3
aS'off'
p433
aa(lp434
F0.80889425864007
aI36
aI111
aI3
aS'on'
p435
aa(lp436
F0.0631531828476
aI36
aI0
aI3
aS'off'
p437
aa(lp438
F0.9368468171524
aI36
aI114
aI3
aS'on'
p439
aa(lp440
F0.06266905209759
aI36
aI0
aI3
aS'off'
p441
aa(lp442
F0.77066428123574
aI37
aI106
aI3
aS'on'
p443
aa(lp444
F0.11366263007494
aI37
aI0
aI3
aS'off'
p445
aa(lp446
F0.053004036591726
aI36
aI112
aI3
aS'on'
p447
aa(lp448
F0.20214247313697
aI36
aI0
aI3
aS'off'
p449
aa(lp450
F0.29785752686303
aI37
aI103
aI3
aS'on'
p451
aa(lp452
F0.19057670350958
aI37
aI0
aI3
aS'off'
p453
aa(lp454
F0.30942329649042
aI36
aI105
aI3
aS'on'
p455
aa(lp456
F0.17599373070789
aI36
aI0
aI3
aS'off'
p457
aa(lp458
F0.82400626929211
aI36
aI113
aI3
aS'on'
p459
aa(lp460
F0.16377330553769
aI36
aI0
aI3
aS'off'
p461
aa(lp462
F0.83622669446231
aI0
aI0
aI0
aS'timeAfterLastHit'
p463
aaa(lp464
(lp465
F0.5
aI39
aI120
aI3
aS'on'
p466
aa(lp467
F1.2130195609689
aI39
aI0
aI3
aS'off'
p468
aa(lp469
F2.7869804390311
aI39
aI120
aI3
aS'on'
p470
aa(lp471
F2.8641439850353
aI39
aI0
aI3
aS'off'
p472
aa(lp473
F0.6358560149647
aI0
aI0
aI0
aS'timeAfterLastHit'
p474
aaaI0
aI0
a(lp475
(lp476
F0.0
aI40
aI112
aI3
aS'on'
p477
aa(lp478
F0.31419171476773
aI40
aI0
aI3
aS'off'
p479
aa(lp480
F0.68580828523227
aI40
aI113
aI3
aS'on'
p481
aa(lp482
F0.27811283583014
aI40
aI0
aI3
aS'off'
p483
aa(lp484
F0.22188716416986
aI41
aI118
aI3
aS'on'
p485
aa(lp486
F0.30320181223397
aI41
aI0
aI3
aS'off'
p487
aa(lp488
F0.19679818776603
aI40
aI115
aI3
aS'on'
p489
aa(lp490
F0.34153087566847
aI40
aI0
aI3
aS'off'
p491
aa(lp492
F0.65846912433153
aI40
aI107
aI3
aS'on'
p493
aa(lp494
F0.42871611829742
aI40
aI0
aI3
aS'off'
p495
aa(lp496
F0.57128388170258
aI40
aI112
aI3
aS'on'
p497
aa(lp498
F0.29094403329873
aI40
aI0
aI3
aS'off'
p499
aa(lp500
F0.5423893000346
aI41
aI116
aI3
aS'on'
p501
aa(lp502
F0.16444267898169
aI41
aI0
aI3
aS'off'
p503
aa(lp504
F0.0022239876849808
aI40
aI114
aI3
aS'on'
p505
aa(lp506
F0.2149932856164
aI40
aI0
aI3
aS'off'
p507
aa(lp508
F0.2850067143836
aI41
aI116
aI3
aS'on'
p509
aa(lp510
F0.21404902431277
aI41
aI0
aI3
aS'off'
p511
aa(lp512
F0.28595097568723
aI40
aI115
aI3
aS'on'
p513
aa(lp514
F0.30434995568339
aI40
aI0
aI3
aS'off'
p515
aa(lp516
F0.69565004431661
aI40
aI111
aI3
aS'on'
p517
aa(lp518
F0.22751237910143
aI40
aI0
aI3
aS'off'
p519
aa(lp520
F0.77248762089857
aI0
aI0
aI0
aS'timeAfterLastHit'
p521
aaaI0
aI0
aI0
aI0
aI0
aI0
aI0
aI0
aI0
a(lp522
(lp523
F0.015020120144072
aI61
aI90
aI0
aS'on'
p524
aa(lp525
F1.7885518858557
aI61
aI0
aI0
aS'off'
p526
aa(lp527
F0.094635222000761
aI60
aI105
aI0
aS'on'
p528
aa(lp529
F1.8938977119997
aI60
aI0
aI0
aS'off'
p530
aa(lp531
F0.10426414599988
aI58
aI101
aI0
aS'on'
p532
aa(lp533
F1.8214214380005
aI58
aI0
aI0
aS'off'
p534
aa(lp535
F0.083368375999271
aI57
aI89
aI0
aS'on'
p536
aa(lp537
F2.1111848440005
aI58
aI115
aI0
aS'on'
p538
aa(lp539
F0.064233097999931
aI57
aI0
aI0
aS'off'
p540
aa(lp541
F1.8592501359999
aI58
aI0
aI0
aS'off'
p542
aa(lp543
F0.022156504000122
aI60
aI79
aI0
aS'on'
p544
aa(lp545
F1.9033657479995
aI60
aI0
aI0
aS'off'
p546
aa(lp547
F0.14754592200006
aI61
aI97
aI0
aS'on'
p548
aa(lp549
F10.825497972
aI61
aI0
aI0
aS'off'
p550
aa(lp551
F0.10328673799995
aI60
aI100
aI0
aS'on'
p552
aa(lp553
F1.0228053399996
aI60
aI0
aI0
aS'off'
p554
aa(lp555
F0.052667068000119
aI61
aI91
aI0
aS'on'
p556
aa(lp557
F7.5706585360003
aI61
aI0
aI0
aS'off'
p558
aa(lp559
F0.51618919399971
aI0
aI0
aI0
aS'timeAfterLastHit'
p560
aaa(lp561
(lp562
F0.045097690000148
aI58
aI98
aI0
aS'on'
p563
aa(lp564
F1.9046672579998
aI57
aI79
aI0
aS'on'
p565
aa(lp566
F0.054284009999719
aI58
aI0
aI0
aS'off'
p567
aa(lp568
F1.9845449280001
aI55
aI95
aI0
aS'on'
p569
aa(lp570
F0.14619941199999
aI57
aI0
aI0
aS'off'
p571
aa(lp572
F1.7025473780004
aI53
aI92
aI0
aS'on'
p573
aa(lp574
F0.084052751999479
aI55
aI0
aI0
aS'off'
p575
aa(lp576
F2.0887314420006
aI50
aI94
aI0
aS'on'
p577
aa(lp578
F0.063405133999368
aI53
aI0
aI0
aS'off'
p579
aa(lp580
F1.8726375000006
aI57
aI105
aI0
aS'on'
p581
aa(lp582
F0.10549162999996
aI50
aI0
aI0
aS'off'
p583
aa(lp584
F1.9022475880001
aI55
aI98
aI0
aS'on'
p585
aa(lp586
F0.1140655979998
aI57
aI0
aI0
aS'off'
p587
aa(lp588
F10.906989492
aI55
aI0
aI0
aS'off'
p589
aa(lp590
F0.0091836859992327
aI53
aI88
aI0
aS'on'
p591
aa(lp592
F0.97294694000084
aI53
aI0
aI0
aS'off'
p593
aa(lp594
F0.00019982199955848
aI55
aI98
aI0
aS'on'
p595
aa(lp596
F7.3306846160003
aI55
aI0
aI0
aS'off'
p597
aa(lp598
F0.71202312399964
aI0
aI0
aI0
aS'timeAfterLastHit'
p599
aaaI0
aI0
aI0
aI0
aI0
aI0
aI0
aI0
aI0
aI0
aI0
aI0
aI0
aI0
aI0
aI0
aI0
aI0
aI0
aI0
aI0
aI0
aI0
aI0
aI0
aI0
aI0
aI0
aI0
aI0
aI0
aI0
aI0
aI0
aI0
aI0
aI0
aI0
aI0
aI0
aI0
aI0
aI0
aI0
aI0
aI0
aI0
aI0
aI0
aI0
aI0
aa(lp600
(dp601
a(dp602
S'button'
p603
I31
sS'playing'
p604
I0
sa(dp605
a(dp606
g603
I33
sg604
I0
sa(dp607
g603
I34
sg604
I0
sa(dp608
a(dp609
g603
I36
sg604
I0
sa(dp610
g603
I37
sg604
I0
sa(dp611
g603
I38
sg604
I0
sa(dp612
a(dp613
a(dp614
g603
I43
sg604
I0
sa(dp615
g603
I44
sg604
I0
sa(dp616
a(dp617
a(dp618
a(dp619
a(dp620
a(dp621
a(dp622
a(dp623
a(dp624
a(dp625
g603
I56
sg604
I0
sa(dp626
g603
I57
sg604
I0
sa(dp627
a(dp628
g603
I61
sg604
I0
sa(dp629
g603
I62
sg604
I0
sa(dp630
a(dp631
a(dp632
a(dp633
S'button'
p634
I66
sS'playing'
p635
I0
sa(dp636
a(dp637
g634
I68
sg635
I0
sa(dp638
g603
I71
sg604
I1
sa(dp639
g603
I72
sg604
I0
sa(dp640
a(dp641
a(dp642
g603
I75
sg604
I0
sa(dp643
a(dp644
a(dp645
a(dp646
a(dp647
a(dp648
a(dp649
a(dp650
a(dp651
a(dp652
g634
I87
sg635
I0
sa(dp653
g634
I88
sg635
I0
sa(dp654
a(dp655
a(dp656
a(dp657
a(dp658
a(dp659
a(dp660
a(dp661
a(dp662
a(dp663
a(dp664
a(dp665
a(dp666
a(dp667
a(dp668
a(dp669
a(dp670
a(dp671
a(dp672
a(dp673
a(dp674
a(dp675
a(dp676
a(dp677
a(dp678
a(dp679
a(dp680
a(dp681
a(dp682
a(dp683
a(dp684
a(dp685
a(dp686
a(dp687
a(dp688
a(dp689
a(dp690
a(dp691
a(dp692
a(dp693
a(dp694
a(dp695
a(dp696
a(dp697
a(dp698
a(dp699
a(dp700
a(dp701
a(dp702
a(dp703
a(dp704
aa(lp705
I60
aI60
aI36
aI36
aa(lp706
(lp707
I0
aI2
aI3
aI5
aI7
aI8
aI10
aa(lp708
I0
aI2
aI3
aI5
aI7
aI8
aI10
aa(lp709
I0
aI2
aI3
aI5
aI7
aI8
aI10
aa(lp710
I0
aI2
aI3
aI5
aI7
aI8
aI10
aa(lp711
I0
aI2
aI3
aI5
aI7
aI8
aI10
aa(lp712
I0
aI1
aI2
aI3
aI4
aI5
aI6
aI7
aI8
aI9
aI10
aI11
aaa(lp713
(lp714
(lp715
I0
aI0
aI0
aI0
aI0
aI0
aI0
aI0
aI0
aI0
aI0
aI0
aa(lp716
I0
aI0
aI0
aI0
aI0
aI0
aI0
aI0
aI0
aI0
aI0
aI0
aa(lp717
I0
aI0
aI0
aI0
aI0
aI0
aI0
aI0
aI0
aI0
aI0
aI0
aa(lp718
I0
aI0
aI0
aI0
aI0
aI0
aI0
aI0
aI0
aI0
aI0
aI0
aaa(lp719
(lp720
I0
aI0
aI0
aI0
aI0
aI0
aI0
aI0
aI0
aI0
aI0
aI0
aa(lp721
I0
aI0
aI0
aI0
aI0
aI0
aI0
aI0
aI0
aI0
aI0
aI0
aa(lp722
I0
aI0
aI0
aI0
aI0
aI0
aI0
aI0
aI0
aI0
aI0
aI0
aa(lp723
I0
aI0
aI0
aI0
aI0
aI0
aI0
aI0
aI0
aI0
aI0
aI0
aaa(lp724
(lp725
I0
aI0
aI0
aI0
aI0
aI0
aI0
aI0
aI0
aI0
aI0
aI0
aa(lp726
I0
aI0
aI0
aI0
aI0
aI0
aI0
aI0
aI0
aI0
aI0
aI0
aa(lp727
I0
aI0
aI0
aI0
aI0
aI0
aI0
aI0
aI0
aI0
aI0
aI0
aa(lp728
I0
aI0
aI0
aI0
aI0
aI0
aI0
aI0
aI0
aI0
aI0
aI0
aaa(lp729
(lp730
I0
aI0
aI0
aI0
aI0
aI0
aI0
aI0
aI0
aI0
aI0
aI0
aa(lp731
I0
aI0
aI0
aI0
aI0
aI0
aI0
aI0
aI0
aI0
aI0
aI0
aa(lp732
I0
aI0
aI0
aI0
aI0
aI0
aI0
aI0
aI0
aI0
aI0
aI0
aa(lp733
I0
aI0
aI0
aI0
aI0
aI0
aI0
aI0
aI0
aI0
aI0
aI0
aaaa(lp734
(lp735
I0
aI0
aI0
aI0
aI0
aI0
aI0
aI0
aI0
aI0
aI0
aI0
aa(lp736
I0
aI0
aI0
aI0
aI0
aI0
aI0
aI0
aI0
aI0
aI0
aI0
aa(lp737
I0
aI0
aI0
aI0
aI0
aI0
aI0
aI0
aI0
aI0
aI0
aI0
aa(lp738
I0
aI0
aI0
aI0
aI0
aI0
aI0
aI0
aI0
aI0
aI0
aI0
aaaa(lp739
(lp740
I0
a(lp741
(lp742
F0.0
aI31
aI99
aI3
ag5
aa(lp743
F0.65891966590061
aI31
aI0
aI3
ag7
aa(lp744
F0.34108033409939
aI31
aI103
aI3
ag9
aa(lp745
F0.69522106402292
aI31
aI0
aI3
ag11
aa(lp746
F0.30477893597708
aI31
aI99
aI3
ag13
aa(lp747
F0.69438935178641
aI31
aI0
aI3
ag15
aa(lp748
F0.30561064821359
aI31
aI110
aI3
ag17
aa(lp749
F0.65623286085247
aI31
aI0
aI3
ag19
aa(lp750
F0.34376713914753
aI0
aI0
aI0
ag21
aaaI0
a(lp751
(lp752
F0.5
aI35
aI108
aI3
ag24
aa(lp753
F0.30620387969975
aI35
aI0
aI3
ag26
aa(lp754
F0.52712945363358
aI34
aI112
aI3
ag28
aa(lp755
F0.24786790991675
aI34
aI0
aI3
ag30
aa(lp756
F0.25213209008325
aI33
aI112
aI3
ag32
aa(lp757
F1.5793990982747
aI33
aI0
aI3
ag34
aa(lp758
F0.58726756839193
aI0
aI0
aI0
ag36
aaa(lp759
(lp760
F2.5
aI32
aI116
aI3
ag39
aa(lp761
F0.46043987666417
aI32
aI0
aI3
ag41
aa(lp762
F3.5395601233358
aI32
aI116
aI3
ag43
aa(lp763
F0.18851552586784
aI32
aI0
aI3
ag45
aa(lp764
F0.31148447413216
aI32
aI121
aI3
ag47
aa(lp765
F0.48404598876914
aI32
aI0
aI3
ag49
aa(lp766
F0.51595401123086
aI0
aI0
aI0
ag51
aaaI0
a(lp767
(lp768
F0.022280124010649
aI67
aI114
aI1
ag54
aa(lp769
F31.804039500968
aI67
aI0
aI1
ag56
aa(lp770
F0.17368037502092
aI0
aI0
aI0
ag58
aaa(lp771
(lp772
F0.038942152919844
aI74
aI90
aI1
ag61
aa(lp773
F8.0116228372208
aI72
aI79
aI1
ag63
aa(lp774
F0.094126738064006
aI74
aI0
aI1
ag65
aa(lp775
F7.8880592366149
aI70
aI89
aI1
ag67
aa(lp776
F0.093149186541268
aI72
aI0
aI1
ag69
aa(lp777
F7.7568202098737
aI77
aI91
aI1
ag71
aa(lp778
F0.059425325498523
aI70
aI0
aI1
ag73
aa(lp779
F4.0362970412316
aI76
aI93
aI1
ag75
aa(lp780
F0.070295431150953
aI77
aI0
aI1
ag77
aa(lp781
F1.7330733408453
aI72
aI110
aI1
ag79
aa(lp782
F0.058033331162733
aI76
aI0
aI1
ag81
aa(lp783
F1.9785055260199
aI72
aI0
aI1
ag83
aa(lp784
F0.18164964285643
aI0
aI0
aI0
ag85
aaa(lp785
(lp786
F0.1456310114736
aI81
aI118
aI1
ag88
aa(lp787
F15.787790768061
aI81
aI0
aI1
ag90
aa(lp788
F0.11686472997644
aI79
aI114
aI1
ag92
aa(lp789
F15.734362672298
aI79
aI0
aI1
ag94
aa(lp790
F0.082417115072531
aI82
aI108
aI1
ag96
aa(lp791
F16.107255950279
aI84
aI100
aI1
ag98
aa(lp792
F0.10505749042022
aI82
aI0
aI1
ag100
aa(lp793
F15.910620262419
aI84
aI0
aI1
ag102
aa(lp794
F0.010000000000218
aI0
aI0
aI0
ag104
aaaI0
aI0
a(lp795
(lp796
F0.5
aI26
aI112
aI3
ag107
aa(lp797
F0.13974191692978
aI26
aI0
aI3
ag109
aa(lp798
F0.36025808307022
aI35
aI110
aI3
ag111
aa(lp799
F0.17630939709125
aI35
aI0
aI3
ag113
aa(lp800
F0.32369060290875
aI34
aI115
aI3
ag115
aa(lp801
F0.17749105834264
aI34
aI0
aI3
ag117
aa(lp802
F0.32250894165736
aI33
aI114
aI3
ag119
aa(lp803
F0.25283057809429
aI33
aI0
aI3
ag121
aa(lp804
F0.58050275523904
aI34
aI119
aI3
ag123
aa(lp805
F0.22297643197271
aI34
aI0
aI3
ag125
aa(lp806
F0.44369023469396
aI35
aI116
aI3
ag127
aa(lp807
F0.27882346488877
aI35
aI0
aI3
ag129
aa(lp808
F0.55450986844456
aI26
aI118
aI3
ag131
aa(lp809
F0.21446112910598
aI26
aI0
aI3
ag133
aa(lp810
F0.45220553756068
aI35
aI116
aI3
ag135
aa(lp811
F2.0478544536672
aI35
aI0
aI3
ag137
aa(lp812
F0.95214554633276
aI0
aI0
aI0
ag139
aaa(lp813
(lp814
F0.5
aI30
aI114
aI3
ag142
aa(lp815
F0.14987270940765
aI30
aI0
aI3
ag144
aa(lp816
F0.35012729059235
aI29
aI113
aI3
ag146
aa(lp817
F0.15767134934322
aI29
aI0
aI3
ag148
aa(lp818
F0.34232865065678
aI28
aI116
aI3
ag150
aa(lp819
F0.15833204835326
aI28
aI0
aI3
ag152
aa(lp820
F0.34166795164674
aI27
aI118
aI3
ag154
aa(lp821
F0.25000905072557
aI27
aI0
aI3
ag156
aa(lp822
F0.58332428260777
aI28
aI117
aI3
ag158
aa(lp823
F0.25239797534414
aI28
aI0
aI3
ag160
aa(lp824
F0.41426869132253
aI29
aI114
aI3
ag162
aa(lp825
F0.28990001202874
aI29
aI0
aI3
ag164
aa(lp826
F0.54343332130459
aI30
aI116
aI3
ag166
aa(lp827
F0.28897668218269
aI30
aI0
aI3
ag168
aa(lp828
F0.37768998448397
aI29
aI116
aI3
ag170
aa(lp829
F2.406297322781
aI29
aI0
aI3
ag172
aa(lp830
F0.59370267721897
aI0
aI0
aI0
ag174
aaaI0
aI0
aI0
aI0
aI0
aI0
aI0
aI0
aI0
a(lp831
(lp832
F0.56421944935209
aI31
aI121
aI2
ag177
aa(lp833
F0.613302803642
aI31
aI0
aI2
ag179
aa(lp834
F0.33082235890106
aI31
aI119
aI2
ag181
aa(lp835
F0.65821710743876
aI31
aI0
aI2
ag183
aa(lp836
F0.38889901010589
aI31
aI118
aI2
ag185
aa(lp837
F0.67216875888516
aI31
aI0
aI2
ag187
aa(lp838
F0.33263003994944
aI31
aI116
aI2
ag189
aa(lp839
F0.53831089549749
aI31
aI0
aI2
ag191
aa(lp840
F0.48315048032055
aI34
aI114
aI2
ag193
aa(lp841
F0.61179574664311
aI34
aI0
aI2
ag195
aa(lp842
F0.3422095874048
aI34
aI111
aI2
ag197
aa(lp843
F0.58831229353018
aI34
aI0
aI2
ag199
aa(lp844
F0.39061991361268
aI38
aI110
aI2
ag201
aa(lp845
F0.69349057484578
aI38
aI0
aI2
ag203
aa(lp846
F0.3548961760207
aI38
aI119
aI2
ag205
aa(lp847
F0.42695480385009
aI38
aI0
aI2
ag207
aa(lp848
F0.010000000000218
aI0
aI0
aI0
ag209
aaa(lp849
(lp850
F0.49227794327635
aI31
aI114
aI2
ag212
aa(lp851
F0.65913780027586
aI31
aI0
aI2
ag214
aa(lp852
F0.2713360914986
aI31
aI117
aI2
ag216
aa(lp853
F0.63601774967174
aI31
aI0
aI2
ag218
aa(lp854
F0.36534356198717
aI31
aI121
aI2
ag220
aa(lp855
F0.67017547363503
aI31
aI0
aI2
ag222
aa(lp856
F0.36410229318244
aI31
aI120
aI2
ag224
aa(lp857
F0.67049590087481
aI31
aI0
aI2
ag226
aa(lp858
F0.38801378859171
aI34
aI117
aI2
ag228
aa(lp859
F0.60116991338327
aI34
aI0
aI2
ag230
aa(lp860
F0.37638399355092
aI34
aI118
aI2
ag232
aa(lp861
F0.60135992305004
aI34
aI0
aI2
ag234
aa(lp862
F0.43568852815588
aI38
aI118
aI2
ag236
aa(lp863
F0.62536045169327
aI38
aI0
aI2
ag238
aa(lp864
F0.3523185479462
aI38
aI119
aI2
ag240
aa(lp865
F0.66080311603946
aI38
aI0
aI2
ag242
aa(lp866
F0.42338002542601
aI31
aI120
aI2
ag244
aa(lp867
F0.50707978463106
aI31
aI0
aI2
ag246
aa(lp868
F0.41300469305497
aI31
aI120
aI2
ag248
aa(lp869
F0.66051729255196
aI31
aI0
aI2
ag250
aa(lp870
F0.35301780470763
aI31
aI121
aI2
ag252
aa(lp871
F0.63722350658827
aI31
aI0
aI2
ag254
aa(lp872
F0.38958028670822
aI31
aI120
aI2
ag256
aa(lp873
F0.61320317926584
aI31
aI0
aI2
ag258
aa(lp874
F0.38829588038789
aI34
aI118
aI2
ag260
aa(lp875
F0.6128501042549
aI34
aI0
aI2
ag262
aa(lp876
F0.30746015413388
aI34
aI120
aI2
ag264
aa(lp877
F0.63522598938471
aI34
aI0
aI2
ag266
aa(lp878
F0.39085507987329
aI38
aI121
aI2
ag268
aa(lp879
F0.59858158148927
aI38
aI0
aI2
ag270
aa(lp880
F0.38746703306606
aI38
aI120
aI2
ag272
aa(lp881
F0.66093472567809
aI38
aI0
aI2
ag274
aa(lp882
F0.41287520840524
aI31
aI122
aI2
ag276
aa(lp883
F0.62245907256147
aI31
aI0
aI2
ag278
aa(lp884
F0.40160050970371
aI31
aI120
aI2
ag280
aa(lp885
F0.60125549435361
aI31
aI0
aI2
ag282
aa(lp886
F0.41237103379535
aI31
aI120
aI2
ag284
aa(lp887
F0.61476985990885
aI31
aI0
aI2
ag286
aa(lp888
F0.37499460869003
aI31
aI119
aI2
ag288
aa(lp889
F0.55470893043639
aI31
aI0
aI2
ag290
aa(lp890
F0.41298512422145
aI34
aI119
aI2
ag292
aa(lp891
F0.58854320305181
aI34
aI0
aI2
ag294
aa(lp892
F0.36533777066143
aI34
aI119
aI2
ag296
aa(lp893
F0.65962734783716
aI34
aI0
aI2
ag298
aa(lp894
F0.35414563783161
aI38
aI118
aI2
ag300
aa(lp895
F0.61388542033637
aI38
aI0
aI2
ag302
aa(lp896
F0.41371023690226
aI38
aI114
aI2
ag304
aa(lp897
F0.52998468849728
aI38
aI0
aI2
ag306
aa(lp898
F0.4588926589422
aI41
aI116
aI2
ag308
aa(lp899
F0.57787481817286
aI41
aI0
aI2
ag310
aa(lp900
F0.39913224985867
aI41
aI118
aI2
ag312
aa(lp901
F0.62391759732236
aI41
aI0
aI2
ag314
aa(lp902
F0.42530713404085
aI41
aI118
aI2
ag316
aa(lp903
F0.57624981636582
aI41
aI0
aI2
ag318
aa(lp904
F0.37719409679812
aI41
aI114
aI2
ag320
aa(lp905
F0.60124674426152
aI41
aI0
aI2
ag322
aa(lp906
F0.42412904480079
aI40
aI120
aI2
ag324
aa(lp907
F0.61248502294075
aI40
aI0
aI2
ag326
aa(lp908
F0.38835218247186
aI40
aI123
aI2
ag328
aa(lp909
F0.64846973313433
aI40
aI0
aI2
ag330
aa(lp910
F0.40124431819277
aI40
aI123
aI2
ag332
aa(lp911
F0.59952362788317
aI40
aI0
aI2
ag334
aa(lp912
F0.39015781965281
aI40
aI123
aI2
ag336
aa(lp913
F0.29395246550484
aI40
aI0
aI2
ag338
aa(lp914
F0.11995432444746
aI0
aI0
aI0
ag340
aaaI0
a(lp915
(lp916
F0.5
aI38
aI120
aI3
ag343
aa(lp917
F0.95324115163658
aI38
aI0
aI3
ag345
aa(lp918
F1.0467588483634
aI38
aI115
aI3
ag347
aa(lp919
F1.1735155769238
aI38
aI0
aI3
ag349
aa(lp920
F0.82648442307618
aI38
aI120
aI3
ag351
aa(lp921
F1.2662785580997
aI38
aI0
aI3
ag353
aa(lp922
F0.73372144190034
aI38
aI120
aI3
ag355
aa(lp923
F1.1735331852788
aI38
aI0
aI3
ag357
aa(lp924
F0.32646681472124
aI0
aI0
aI0
ag359
aaa(lp925
(lp926
F0.75710982805776
aI38
aI108
aI3
ag362
aa(lp927
F2.3654799207807
aI38
aI0
aI3
ag364
aa(lp928
F1.1181690560325
aI38
aI107
aI3
ag366
aa(lp929
F3.2891501871936
aI38
aI0
aI3
ag368
aa(lp930
F0.47009100793548
aI0
aI0
aI0
ag370
aaaI0
aI0
aI0
a(lp931
(lp932
F0.5
aI31
aI120
aI2
ag373
aa(lp933
F0.4579300940004
aI31
aI0
aI2
ag375
aa(lp934
F0.5420699059996
aI31
aI120
aI2
ag377
aa(lp935
F0.54177763200005
aI31
aI0
aI2
ag379
aa(lp936
F0.45822236799995
aI31
aI121
aI2
ag381
aa(lp937
F0.59366601999955
aI31
aI0
aI2
ag383
aa(lp938
F0.40633398000045
aI31
aI118
aI2
ag385
aa(lp939
F0.55593204599973
aI31
aI0
aI2
ag387
aa(lp940
F0.44406795400027
aI34
aI120
aI2
ag389
aa(lp941
F0.60656612799994
aI34
aI0
aI2
ag391
aa(lp942
F0.39343387200006
aI34
aI117
aI2
ag393
aa(lp943
F0.55493520999971
aI34
aI0
aI2
ag395
aa(lp944
F0.44506479000029
aI37
aI123
aI2
ag397
aa(lp945
F0.58670086599977
aI37
aI0
aI2
ag399
aa(lp946
F0.41329913400023
aI37
aI123
aI2
ag401
aa(lp947
F0.41736095200031
aI37
aI0
aI2
ag403
aa(lp948
F0.082639047999692
aI0
aI0
aI0
ag405
aaaI0
a(lp949
(lp950
F0.012034010000207
aI31
aI95
aI2
ag408
aa(lp951
F14.722928938
aI31
aI0
aI2
ag410
aa(lp952
F0.1785338640002
aI29
aI71
aI2
ag412
aa(lp953
F0.84932248999985
aI29
aI0
aI2
ag414
aa(lp954
F0.23718069799997
aI0
aI0
aI0
ag416
aaa(lp955
(lp956
F0.0
aI36
aI110
aI3
ag419
aa(lp957
F0.09875165837957
aI36
aI0
aI3
ag421
aa(lp958
F0.90124834162043
aI36
aI110
aI3
ag423
aa(lp959
F0.189526997332
aI36
aI0
aI3
ag425
aa(lp960
F0.310473002668
aI37
aI113
aI3
ag427
aa(lp961
F0.18934270846466
aI37
aI0
aI3
ag429
aa(lp962
F0.31065729153534
aI36
aI103
aI3
ag431
aa(lp963
F0.19110574135993
aI36
aI0
aI3
ag433
aa(lp964
F0.80889425864007
aI36
aI111
aI3
ag435
aa(lp965
F0.0631531828476
aI36
aI0
aI3
ag437
aa(lp966
F0.9368468171524
aI36
aI114
aI3
ag439
aa(lp967
F0.06266905209759
aI36
aI0
aI3
ag441
aa(lp968
F0.77066428123574
aI37
aI106
aI3
ag443
aa(lp969
F0.11366263007494
aI37
aI0
aI3
ag445
aa(lp970
F0.053004036591726
aI36
aI112
aI3
ag447
aa(lp971
F0.20214247313697
aI36
aI0
aI3
ag449
aa(lp972
F0.29785752686303
aI37
aI103
aI3
ag451
aa(lp973
F0.19057670350958
aI37
aI0
aI3
ag453
aa(lp974
F0.30942329649042
aI36
aI105
aI3
ag455
aa(lp975
F0.17599373070789
aI36
aI0
aI3
ag457
aa(lp976
F0.82400626929211
aI36
aI113
aI3
ag459
aa(lp977
F0.16377330553769
aI36
aI0
aI3
ag461
aa(lp978
F0.83622669446231
aI0
aI0
aI0
ag463
aaa(lp979
(lp980
F0.5
aI39
aI120
aI3
ag466
aa(lp981
F1.2130195609689
aI39
aI0
aI3
ag468
aa(lp982
F2.7869804390311
aI39
aI120
aI3
ag470
aa(lp983
F2.8641439850353
aI39
aI0
aI3
ag472
aa(lp984
F0.6358560149647
aI0
aI0
aI0
ag474
aaaI0
aI0
a(lp985
(lp986
F0.0
aI40
aI112
aI3
ag477
aa(lp987
F0.31419171476773
aI40
aI0
aI3
ag479
aa(lp988
F0.68580828523227
aI40
aI113
aI3
ag481
aa(lp989
F0.27811283583014
aI40
aI0
aI3
ag483
aa(lp990
F0.22188716416986
aI41
aI118
aI3
ag485
aa(lp991
F0.30320181223397
aI41
aI0
aI3
ag487
aa(lp992
F0.19679818776603
aI40
aI115
aI3
ag489
aa(lp993
F0.34153087566847
aI40
aI0
aI3
ag491
aa(lp994
F0.65846912433153
aI40
aI107
aI3
ag493
aa(lp995
F0.42871611829742
aI40
aI0
aI3
ag495
aa(lp996
F0.57128388170258
aI40
aI112
aI3
ag497
aa(lp997
F0.29094403329873
aI40
aI0
aI3
ag499
aa(lp998
F0.5423893000346
aI41
aI116
aI3
ag501
aa(lp999
F0.16444267898169
aI41
aI0
aI3
ag503
aa(lp1000
F0.0022239876849808
aI40
aI114
aI3
ag505
aa(lp1001
F0.2149932856164
aI40
aI0
aI3
ag507
aa(lp1002
F0.2850067143836
aI41
aI116
aI3
ag509
aa(lp1003
F0.21404902431277
aI41
aI0
aI3
ag511
aa(lp1004
F0.28595097568723
aI40
aI115
aI3
ag513
aa(lp1005
F0.30434995568339
aI40
aI0
aI3
ag515
aa(lp1006
F0.69565004431661
aI40
aI111
aI3
ag517
aa(lp1007
F0.22751237910143
aI40
aI0
aI3
ag519
aa(lp1008
F0.77248762089857
aI0
aI0
aI0
ag521
aaaI0
aI0
aI0
aI0
aI0
aI0
aI0
aI0
aI0
a(lp1009
(lp1010
F0.015020120144072
aI61
aI90
aI0
ag524
aa(lp1011
F1.7885518858557
aI61
aI0
aI0
ag526
aa(lp1012
F0.094635222000761
aI60
aI105
aI0
ag528
aa(lp1013
F1.8938977119997
aI60
aI0
aI0
ag530
aa(lp1014
F0.10426414599988
aI58
aI101
aI0
ag532
aa(lp1015
F1.8214214380005
aI58
aI0
aI0
ag534
aa(lp1016
F0.083368375999271
aI57
aI89
aI0
ag536
aa(lp1017
F2.1111848440005
aI58
aI115
aI0
ag538
aa(lp1018
F0.064233097999931
aI57
aI0
aI0
ag540
aa(lp1019
F1.8592501359999
aI58
aI0
aI0
ag542
aa(lp1020
F0.022156504000122
aI60
aI79
aI0
ag544
aa(lp1021
F1.9033657479995
aI60
aI0
aI0
ag546
aa(lp1022
F0.14754592200006
aI61
aI97
aI0
ag548
aa(lp1023
F10.825497972
aI61
aI0
aI0
ag550
aa(lp1024
F0.10328673799995
aI60
aI100
aI0
ag552
aa(lp1025
F1.0228053399996
aI60
aI0
aI0
ag554
aa(lp1026
F0.052667068000119
aI61
aI91
aI0
ag556
aa(lp1027
F7.5706585360003
aI61
aI0
aI0
ag558
aa(lp1028
F0.51618919399971
aI0
aI0
aI0
ag560
aaa(lp1029
(lp1030
F0.045097690000148
aI58
aI98
aI0
ag563
aa(lp1031
F1.9046672579998
aI57
aI79
aI0
ag565
aa(lp1032
F0.054284009999719
aI58
aI0
aI0
ag567
aa(lp1033
F1.9845449280001
aI55
aI95
aI0
ag569
aa(lp1034
F0.14619941199999
aI57
aI0
aI0
ag571
aa(lp1035
F1.7025473780004
aI53
aI92
aI0
ag573
aa(lp1036
F0.084052751999479
aI55
aI0
aI0
ag575
aa(lp1037
F2.0887314420006
aI50
aI94
aI0
ag577
aa(lp1038
F0.063405133999368
aI53
aI0
aI0
ag579
aa(lp1039
F1.8726375000006
aI57
aI105
aI0
ag581
aa(lp1040
F0.10549162999996
aI50
aI0
aI0
ag583
aa(lp1041
F1.9022475880001
aI55
aI98
aI0
ag585
aa(lp1042
F0.1140655979998
aI57
aI0
aI0
ag587
aa(lp1043
F10.906989492
aI55
aI0
aI0
ag589
aa(lp1044
F0.0091836859992327
aI53
aI88
aI0
ag591
aa(lp1045
F0.97294694000084
aI53
aI0
aI0
ag593
aa(lp1046
F0.00019982199955848
aI55
aI98
aI0
ag595
aa(lp1047
F7.3306846160003
aI55
aI0
aI0
ag597
aa(lp1048
F0.71202312399964
aI0
aI0
aI0
ag599
aaaI0
aI0
aI0
aI0
aI0
aI0
aI0
aI0
aI0
aI0
aI0
aI0
aI0
aI0
aI0
aI0
aI0
aI0
aI0
aI0
aI0
aI0
aI0
aI0
aI0
aI0
aI0
aI0
aI0
aI0
aI0
aI0
aI0
aI0
aI0
aI0
aI0
aI0
aI0
aI0
aI0
aI0
aI0
aI0
aI0
aI0
aI0
aI0
aI0
aI0
aI0
aa(lp1049
(dp1050
a(dp1051
g603
I31
sg604
I1
sa(dp1052
a(dp1053
g603
I33
sg604
I0
sa(dp1054
g603
I34
sg604
I0
sa(dp1055
a(dp1056
g603
I36
sg604
I0
sa(dp1057
g603
I37
sg604
I0
sa(dp1058
g603
I38
sg604
I0
sa(dp1059
a(dp1060
a(dp1061
g603
I43
sg604
I0
sa(dp1062
g603
I44
sg604
I0
sa(dp1063
a(dp1064
a(dp1065
a(dp1066
a(dp1067
a(dp1068
a(dp1069
a(dp1070
a(dp1071
a(dp1072
g603
I56
sg604
I1
sa(dp1073
g603
I57
sg604
I0
sa(dp1074
a(dp1075
g603
I61
sg604
I1
sa(dp1076
g603
I62
sg604
I0
sa(dp1077
a(dp1078
a(dp1079
a(dp1080
g634
I66
sg635
I0
sa(dp1081
a(dp1082
g634
I68
sg635
I0
sa(dp1083
g603
I71
sg604
I0
sa(dp1084
g603
I72
sg604
I0
sa(dp1085
a(dp1086
a(dp1087
g603
I75
sg604
I1
sa(dp1088
a(dp1089
a(dp1090
a(dp1091
a(dp1092
a(dp1093
a(dp1094
a(dp1095
a(dp1096
a(dp1097
g634
I87
sg635
I0
sa(dp1098
g634
I88
sg635
I0
sa(dp1099
a(dp1100
a(dp1101
a(dp1102
a(dp1103
a(dp1104
a(dp1105
a(dp1106
a(dp1107
a(dp1108
a(dp1109
a(dp1110
a(dp1111
a(dp1112
a(dp1113
a(dp1114
a(dp1115
a(dp1116
a(dp1117
a(dp1118
a(dp1119
a(dp1120
a(dp1121
a(dp1122
a(dp1123
a(dp1124
a(dp1125
a(dp1126
a(dp1127
a(dp1128
a(dp1129
a(dp1130
a(dp1131
a(dp1132
a(dp1133
a(dp1134
a(dp1135
a(dp1136
a(dp1137
a(dp1138
a(dp1139
a(dp1140
a(dp1141
a(dp1142
a(dp1143
a(dp1144
a(dp1145
a(dp1146
a(dp1147
a(dp1148
a(dp1149
aa(lp1150
I60
aI60
aI36
aI36
aa(lp1151
(lp1152
I0
aI2
aI3
aI5
aI7
aI8
aI10
aa(lp1153
I0
aI2
aI3
aI5
aI7
aI8
aI10
aa(lp1154
I0
aI2
aI3
aI5
aI7
aI8
aI10
aa(lp1155
I0
aI2
aI3
aI5
aI7
aI8
aI10
aa(lp1156
I0
aI2
aI3
aI5
aI7
aI8
aI10
aa(lp1157
I0
aI1
aI2
aI3
aI4
aI5
aI6
aI7
aI8
aI9
aI10
aI11
aaa(lp1158
(lp1159
(lp1160
I0
aI0
aI0
aI0
aI0
aI0
aI0
aI0
aI0
aI0
aI0
aI0
aa(lp1161
I0
aI0
aI0
aI0
aI0
aI0
aI0
aI0
aI0
aI0
aI0
aI0
aa(lp1162
I0
aI0
aI0
aI0
aI0
aI0
aI0
aI0
aI0
aI0
aI0
aI0
aa(lp1163
I0
aI0
aI0
aI0
aI0
aI0
aI0
aI0
aI0
aI0
aI0
aI0
aaa(lp1164
(lp1165
I0
aI0
aI0
aI0
aI0
aI0
aI0
aI0
aI0
aI0
aI0
aI0
aa(lp1166
I0
aI0
aI0
aI0
aI0
aI0
aI0
aI0
aI0
aI0
aI0
aI0
aa(lp1167
I0
aI0
aI0
aI0
aI0
aI0
aI0
aI0
aI0
aI0
aI0
aI0
aa(lp1168
I0
aI0
aI0
aI0
aI0
aI0
aI0
aI0
aI0
aI0
aI0
aI0
aaa(lp1169
(lp1170
I0
aI0
aI0
aI0
aI0
aI0
aI0
aI0
aI0
aI0
aI0
aI0
aa(lp1171
I0
aI0
aI0
aI0
aI0
aI0
aI0
aI0
aI0
aI0
aI0
aI0
aa(lp1172
I0
aI0
aI0
aI0
aI0
aI0
aI0
aI0
aI0
aI0
aI0
aI0
aa(lp1173
I0
aI0
aI0
aI0
aI0
aI0
aI0
aI0
aI0
aI0
aI0
aI0
aaa(lp1174
(lp1175
I0
aI0
aI0
aI0
aI0
aI0
aI0
aI0
aI0
aI0
aI0
aI0
aa(lp1176
I0
aI0
aI0
aI0
aI0
aI0
aI0
aI0
aI0
aI0
aI0
aI0
aa(lp1177
I0
aI0
aI0
aI0
aI0
aI0
aI0
aI0
aI0
aI0
aI0
aI0
aa(lp1178
I0
aI0
aI0
aI0
aI0
aI0
aI0
aI0
aI0
aI0
aI0
aI0
aaaa(lp1179
(lp1180
I0
aI0
aI0
aI0
aI0
aI0
aI0
aI0
aI0
aI0
aI0
aI0
aa(lp1181
I0
aI0
aI0
aI0
aI0
aI0
aI0
aI0
aI0
aI0
aI0
aI0
aa(lp1182
I0
aI0
aI0
aI0
aI0
aI0
aI0
aI0
aI0
aI0
aI0
aI0
aa(lp1183
I0
aI0
aI0
aI0
aI0
aI0
aI0
aI0
aI0
aI0
aI0
aI0
aaaa(lp1184
(lp1185
I0
a(lp1186
(lp1187
F0.0
aI31
aI99
aI3
ag5
aa(lp1188
F0.65891966590061
aI31
aI0
aI3
ag7
aa(lp1189
F0.34108033409939
aI31
aI103
aI3
ag9
aa(lp1190
F0.69522106402292
aI31
aI0
aI3
ag11
aa(lp1191
F0.30477893597708
aI31
aI99
aI3
ag13
aa(lp1192
F0.69438935178641
aI31
aI0
aI3
ag15
aa(lp1193
F0.30561064821359
aI31
aI110
aI3
ag17
aa(lp1194
F0.65623286085247
aI31
aI0
aI3
ag19
aa(lp1195
F0.34376713914753
aI0
aI0
aI0
ag21
aaaI0
a(lp1196
(lp1197
F0.5
aI35
aI108
aI3
ag24
aa(lp1198
F0.30620387969975
aI35
aI0
aI3
ag26
aa(lp1199
F0.52712945363358
aI34
aI112
aI3
ag28
aa(lp1200
F0.24786790991675
aI34
aI0
aI3
ag30
aa(lp1201
F0.25213209008325
aI33
aI112
aI3
ag32
aa(lp1202
F1.5793990982747
aI33
aI0
aI3
ag34
aa(lp1203
F0.58726756839193
aI0
aI0
aI0
ag36
aaa(lp1204
(lp1205
F2.5
aI32
aI116
aI3
ag39
aa(lp1206
F0.46043987666417
aI32
aI0
aI3
ag41
aa(lp1207
F3.5395601233358
aI32
aI116
aI3
ag43
aa(lp1208
F0.18851552586784
aI32
aI0
aI3
ag45
aa(lp1209
F0.31148447413216
aI32
aI121
aI3
ag47
aa(lp1210
F0.48404598876914
aI32
aI0
aI3
ag49
aa(lp1211
F0.51595401123086
aI0
aI0
aI0
ag51
aaaI0
a(lp1212
(lp1213
F0.022280124010649
aI67
aI114
aI1
ag54
aa(lp1214
F31.804039500968
aI67
aI0
aI1
ag56
aa(lp1215
F0.17368037502092
aI0
aI0
aI0
ag58
aaa(lp1216
(lp1217
F0.038942152919844
aI74
aI90
aI1
ag61
aa(lp1218
F8.0116228372208
aI72
aI79
aI1
ag63
aa(lp1219
F0.094126738064006
aI74
aI0
aI1
ag65
aa(lp1220
F7.8880592366149
aI70
aI89
aI1
ag67
aa(lp1221
F0.093149186541268
aI72
aI0
aI1
ag69
aa(lp1222
F7.7568202098737
aI77
aI91
aI1
ag71
aa(lp1223
F0.059425325498523
aI70
aI0
aI1
ag73
aa(lp1224
F4.0362970412316
aI76
aI93
aI1
ag75
aa(lp1225
F0.070295431150953
aI77
aI0
aI1
ag77
aa(lp1226
F1.7330733408453
aI72
aI110
aI1
ag79
aa(lp1227
F0.058033331162733
aI76
aI0
aI1
ag81
aa(lp1228
F1.9785055260199
aI72
aI0
aI1
ag83
aa(lp1229
F0.18164964285643
aI0
aI0
aI0
ag85
aaa(lp1230
(lp1231
F0.1456310114736
aI81
aI118
aI1
ag88
aa(lp1232
F15.787790768061
aI81
aI0
aI1
ag90
aa(lp1233
F0.11686472997644
aI79
aI114
aI1
ag92
aa(lp1234
F15.734362672298
aI79
aI0
aI1
ag94
aa(lp1235
F0.082417115072531
aI82
aI108
aI1
ag96
aa(lp1236
F16.107255950279
aI84
aI100
aI1
ag98
aa(lp1237
F0.10505749042022
aI82
aI0
aI1
ag100
aa(lp1238
F15.910620262419
aI84
aI0
aI1
ag102
aa(lp1239
F0.010000000000218
aI0
aI0
aI0
ag104
aaaI0
aI0
a(lp1240
(lp1241
F0.5
aI26
aI112
aI3
ag107
aa(lp1242
F0.13974191692978
aI26
aI0
aI3
ag109
aa(lp1243
F0.36025808307022
aI35
aI110
aI3
ag111
aa(lp1244
F0.17630939709125
aI35
aI0
aI3
ag113
aa(lp1245
F0.32369060290875
aI34
aI115
aI3
ag115
aa(lp1246
F0.17749105834264
aI34
aI0
aI3
ag117
aa(lp1247
F0.32250894165736
aI33
aI114
aI3
ag119
aa(lp1248
F0.25283057809429
aI33
aI0
aI3
ag121
aa(lp1249
F0.58050275523904
aI34
aI119
aI3
ag123
aa(lp1250
F0.22297643197271
aI34
aI0
aI3
ag125
aa(lp1251
F0.44369023469396
aI35
aI116
aI3
ag127
aa(lp1252
F0.27882346488877
aI35
aI0
aI3
ag129
aa(lp1253
F0.55450986844456
aI26
aI118
aI3
ag131
aa(lp1254
F0.21446112910598
aI26
aI0
aI3
ag133
aa(lp1255
F0.45220553756068
aI35
aI116
aI3
ag135
aa(lp1256
F2.0478544536672
aI35
aI0
aI3
ag137
aa(lp1257
F0.95214554633276
aI0
aI0
aI0
ag139
aaa(lp1258
(lp1259
F0.5
aI30
aI114
aI3
ag142
aa(lp1260
F0.14987270940765
aI30
aI0
aI3
ag144
aa(lp1261
F0.35012729059235
aI29
aI113
aI3
ag146
aa(lp1262
F0.15767134934322
aI29
aI0
aI3
ag148
aa(lp1263
F0.34232865065678
aI28
aI116
aI3
ag150
aa(lp1264
F0.15833204835326
aI28
aI0
aI3
ag152
aa(lp1265
F0.34166795164674
aI27
aI118
aI3
ag154
aa(lp1266
F0.25000905072557
aI27
aI0
aI3
ag156
aa(lp1267
F0.58332428260777
aI28
aI117
aI3
ag158
aa(lp1268
F0.25239797534414
aI28
aI0
aI3
ag160
aa(lp1269
F0.41426869132253
aI29
aI114
aI3
ag162
aa(lp1270
F0.28990001202874
aI29
aI0
aI3
ag164
aa(lp1271
F0.54343332130459
aI30
aI116
aI3
ag166
aa(lp1272
F0.28897668218269
aI30
aI0
aI3
ag168
aa(lp1273
F0.37768998448397
aI29
aI116
aI3
ag170
aa(lp1274
F2.406297322781
aI29
aI0
aI3
ag172
aa(lp1275
F0.59370267721897
aI0
aI0
aI0
ag174
aaaI0
aI0
aI0
aI0
aI0
aI0
aI0
aI0
aI0
a(lp1276
(lp1277
F0.56421944935209
aI31
aI121
aI2
ag177
aa(lp1278
F0.613302803642
aI31
aI0
aI2
ag179
aa(lp1279
F0.33082235890106
aI31
aI119
aI2
ag181
aa(lp1280
F0.65821710743876
aI31
aI0
aI2
ag183
aa(lp1281
F0.38889901010589
aI31
aI118
aI2
ag185
aa(lp1282
F0.67216875888516
aI31
aI0
aI2
ag187
aa(lp1283
F0.33263003994944
aI31
aI116
aI2
ag189
aa(lp1284
F0.53831089549749
aI31
aI0
aI2
ag191
aa(lp1285
F0.48315048032055
aI34
aI114
aI2
ag193
aa(lp1286
F0.61179574664311
aI34
aI0
aI2
ag195
aa(lp1287
F0.3422095874048
aI34
aI111
aI2
ag197
aa(lp1288
F0.58831229353018
aI34
aI0
aI2
ag199
aa(lp1289
F0.39061991361268
aI38
aI110
aI2
ag201
aa(lp1290
F0.69349057484578
aI38
aI0
aI2
ag203
aa(lp1291
F0.3548961760207
aI38
aI119
aI2
ag205
aa(lp1292
F0.42695480385009
aI38
aI0
aI2
ag207
aa(lp1293
F0.010000000000218
aI0
aI0
aI0
ag209
aaa(lp1294
(lp1295
F0.49227794327635
aI31
aI114
aI2
ag212
aa(lp1296
F0.65913780027586
aI31
aI0
aI2
ag214
aa(lp1297
F0.2713360914986
aI31
aI117
aI2
ag216
aa(lp1298
F0.63601774967174
aI31
aI0
aI2
ag218
aa(lp1299
F0.36534356198717
aI31
aI121
aI2
ag220
aa(lp1300
F0.67017547363503
aI31
aI0
aI2
ag222
aa(lp1301
F0.36410229318244
aI31
aI120
aI2
ag224
aa(lp1302
F0.67049590087481
aI31
aI0
aI2
ag226
aa(lp1303
F0.38801378859171
aI34
aI117
aI2
ag228
aa(lp1304
F0.60116991338327
aI34
aI0
aI2
ag230
aa(lp1305
F0.37638399355092
aI34
aI118
aI2
ag232
aa(lp1306
F0.60135992305004
aI34
aI0
aI2
ag234
aa(lp1307
F0.43568852815588
aI38
aI118
aI2
ag236
aa(lp1308
F0.62536045169327
aI38
aI0
aI2
ag238
aa(lp1309
F0.3523185479462
aI38
aI119
aI2
ag240
aa(lp1310
F0.66080311603946
aI38
aI0
aI2
ag242
aa(lp1311
F0.42338002542601
aI31
aI120
aI2
ag244
aa(lp1312
F0.50707978463106
aI31
aI0
aI2
ag246
aa(lp1313
F0.41300469305497
aI31
aI120
aI2
ag248
aa(lp1314
F0.66051729255196
aI31
aI0
aI2
ag250
aa(lp1315
F0.35301780470763
aI31
aI121
aI2
ag252
aa(lp1316
F0.63722350658827
aI31
aI0
aI2
ag254
aa(lp1317
F0.38958028670822
aI31
aI120
aI2
ag256
aa(lp1318
F0.61320317926584
aI31
aI0
aI2
ag258
aa(lp1319
F0.38829588038789
aI34
aI118
aI2
ag260
aa(lp1320
F0.6128501042549
aI34
aI0
aI2
ag262
aa(lp1321
F0.30746015413388
aI34
aI120
aI2
ag264
aa(lp1322
F0.63522598938471
aI34
aI0
aI2
ag266
aa(lp1323
F0.39085507987329
aI38
aI121
aI2
ag268
aa(lp1324
F0.59858158148927
aI38
aI0
aI2
ag270
aa(lp1325
F0.38746703306606
aI38
aI120
aI2
ag272
aa(lp1326
F0.66093472567809
aI38
aI0
aI2
ag274
aa(lp1327
F0.41287520840524
aI31
aI122
aI2
ag276
aa(lp1328
F0.62245907256147
aI31
aI0
aI2
ag278
aa(lp1329
F0.40160050970371
aI31
aI120
aI2
ag280
aa(lp1330
F0.60125549435361
aI31
aI0
aI2
ag282
aa(lp1331
F0.41237103379535
aI31
aI120
aI2
ag284
aa(lp1332
F0.61476985990885
aI31
aI0
aI2
ag286
aa(lp1333
F0.37499460869003
aI31
aI119
aI2
ag288
aa(lp1334
F0.55470893043639
aI31
aI0
aI2
ag290
aa(lp1335
F0.41298512422145
aI34
aI119
aI2
ag292
aa(lp1336
F0.58854320305181
aI34
aI0
aI2
ag294
aa(lp1337
F0.36533777066143
aI34
aI119
aI2
ag296
aa(lp1338
F0.65962734783716
aI34
aI0
aI2
ag298
aa(lp1339
F0.35414563783161
aI38
aI118
aI2
ag300
aa(lp1340
F0.61388542033637
aI38
aI0
aI2
ag302
aa(lp1341
F0.41371023690226
aI38
aI114
aI2
ag304
aa(lp1342
F0.52998468849728
aI38
aI0
aI2
ag306
aa(lp1343
F0.4588926589422
aI41
aI116
aI2
ag308
aa(lp1344
F0.57787481817286
aI41
aI0
aI2
ag310
aa(lp1345
F0.39913224985867
aI41
aI118
aI2
ag312
aa(lp1346
F0.62391759732236
aI41
aI0
aI2
ag314
aa(lp1347
F0.42530713404085
aI41
aI118
aI2
ag316
aa(lp1348
F0.57624981636582
aI41
aI0
aI2
ag318
aa(lp1349
F0.37719409679812
aI41
aI114
aI2
ag320
aa(lp1350
F0.60124674426152
aI41
aI0
aI2
ag322
aa(lp1351
F0.42412904480079
aI40
aI120
aI2
ag324
aa(lp1352
F0.61248502294075
aI40
aI0
aI2
ag326
aa(lp1353
F0.38835218247186
aI40
aI123
aI2
ag328
aa(lp1354
F0.64846973313433
aI40
aI0
aI2
ag330
aa(lp1355
F0.40124431819277
aI40
aI123
aI2
ag332
aa(lp1356
F0.59952362788317
aI40
aI0
aI2
ag334
aa(lp1357
F0.39015781965281
aI40
aI123
aI2
ag336
aa(lp1358
F0.29395246550484
aI40
aI0
aI2
ag338
aa(lp1359
F0.11995432444746
aI0
aI0
aI0
ag340
aaaI0
a(lp1360
(lp1361
F0.5
aI38
aI120
aI3
ag343
aa(lp1362
F0.95324115163658
aI38
aI0
aI3
ag345
aa(lp1363
F1.0467588483634
aI38
aI115
aI3
ag347
aa(lp1364
F1.1735155769238
aI38
aI0
aI3
ag349
aa(lp1365
F0.82648442307618
aI38
aI120
aI3
ag351
aa(lp1366
F1.2662785580997
aI38
aI0
aI3
ag353
aa(lp1367
F0.73372144190034
aI38
aI120
aI3
ag355
aa(lp1368
F1.1735331852788
aI38
aI0
aI3
ag357
aa(lp1369
F0.32646681472124
aI0
aI0
aI0
ag359
aaa(lp1370
(lp1371
F0.75710982805776
aI38
aI108
aI3
ag362
aa(lp1372
F2.3654799207807
aI38
aI0
aI3
ag364
aa(lp1373
F1.1181690560325
aI38
aI107
aI3
ag366
aa(lp1374
F3.2891501871936
aI38
aI0
aI3
ag368
aa(lp1375
F0.47009100793548
aI0
aI0
aI0
ag370
aaaI0
aI0
aI0
a(lp1376
(lp1377
F0.5
aI31
aI120
aI2
ag373
aa(lp1378
F0.4579300940004
aI31
aI0
aI2
ag375
aa(lp1379
F0.5420699059996
aI31
aI120
aI2
ag377
aa(lp1380
F0.54177763200005
aI31
aI0
aI2
ag379
aa(lp1381
F0.45822236799995
aI31
aI121
aI2
ag381
aa(lp1382
F0.59366601999955
aI31
aI0
aI2
ag383
aa(lp1383
F0.40633398000045
aI31
aI118
aI2
ag385
aa(lp1384
F0.55593204599973
aI31
aI0
aI2
ag387
aa(lp1385
F0.44406795400027
aI34
aI120
aI2
ag389
aa(lp1386
F0.60656612799994
aI34
aI0
aI2
ag391
aa(lp1387
F0.39343387200006
aI34
aI117
aI2
ag393
aa(lp1388
F0.55493520999971
aI34
aI0
aI2
ag395
aa(lp1389
F0.44506479000029
aI37
aI123
aI2
ag397
aa(lp1390
F0.58670086599977
aI37
aI0
aI2
ag399
aa(lp1391
F0.41329913400023
aI37
aI123
aI2
ag401
aa(lp1392
F0.41736095200031
aI37
aI0
aI2
ag403
aa(lp1393
F0.082639047999692
aI0
aI0
aI0
ag405
aaaI0
a(lp1394
(lp1395
F0.012034010000207
aI31
aI95
aI2
ag408
aa(lp1396
F14.722928938
aI31
aI0
aI2
ag410
aa(lp1397
F0.1785338640002
aI29
aI71
aI2
ag412
aa(lp1398
F0.84932248999985
aI29
aI0
aI2
ag414
aa(lp1399
F0.23718069799997
aI0
aI0
aI0
ag416
aaa(lp1400
(lp1401
F0.0
aI36
aI110
aI3
ag419
aa(lp1402
F0.09875165837957
aI36
aI0
aI3
ag421
aa(lp1403
F0.90124834162043
aI36
aI110
aI3
ag423
aa(lp1404
F0.189526997332
aI36
aI0
aI3
ag425
aa(lp1405
F0.310473002668
aI37
aI113
aI3
ag427
aa(lp1406
F0.18934270846466
aI37
aI0
aI3
ag429
aa(lp1407
F0.31065729153534
aI36
aI103
aI3
ag431
aa(lp1408
F0.19110574135993
aI36
aI0
aI3
ag433
aa(lp1409
F0.80889425864007
aI36
aI111
aI3
ag435
aa(lp1410
F0.0631531828476
aI36
aI0
aI3
ag437
aa(lp1411
F0.9368468171524
aI36
aI114
aI3
ag439
aa(lp1412
F0.06266905209759
aI36
aI0
aI3
ag441
aa(lp1413
F0.77066428123574
aI37
aI106
aI3
ag443
aa(lp1414
F0.11366263007494
aI37
aI0
aI3
ag445
aa(lp1415
F0.053004036591726
aI36
aI112
aI3
ag447
aa(lp1416
F0.20214247313697
aI36
aI0
aI3
ag449
aa(lp1417
F0.29785752686303
aI37
aI103
aI3
ag451
aa(lp1418
F0.19057670350958
aI37
aI0
aI3
ag453
aa(lp1419
F0.30942329649042
aI36
aI105
aI3
ag455
aa(lp1420
F0.17599373070789
aI36
aI0
aI3
ag457
aa(lp1421
F0.82400626929211
aI36
aI113
aI3
ag459
aa(lp1422
F0.16377330553769
aI36
aI0
aI3
ag461
aa(lp1423
F0.83622669446231
aI0
aI0
aI0
ag463
aaa(lp1424
(lp1425
F0.5
aI39
aI120
aI3
ag466
aa(lp1426
F1.2130195609689
aI39
aI0
aI3
ag468
aa(lp1427
F2.7869804390311
aI39
aI120
aI3
ag470
aa(lp1428
F2.8641439850353
aI39
aI0
aI3
ag472
aa(lp1429
F0.6358560149647
aI0
aI0
aI0
ag474
aaaI0
aI0
a(lp1430
(lp1431
F0.0
aI40
aI112
aI3
ag477
aa(lp1432
F0.31419171476773
aI40
aI0
aI3
ag479
aa(lp1433
F0.68580828523227
aI40
aI113
aI3
ag481
aa(lp1434
F0.27811283583014
aI40
aI0
aI3
ag483
aa(lp1435
F0.22188716416986
aI41
aI118
aI3
ag485
aa(lp1436
F0.30320181223397
aI41
aI0
aI3
ag487
aa(lp1437
F0.19679818776603
aI40
aI115
aI3
ag489
aa(lp1438
F0.34153087566847
aI40
aI0
aI3
ag491
aa(lp1439
F0.65846912433153
aI40
aI107
aI3
ag493
aa(lp1440
F0.42871611829742
aI40
aI0
aI3
ag495
aa(lp1441
F0.57128388170258
aI40
aI112
aI3
ag497
aa(lp1442
F0.29094403329873
aI40
aI0
aI3
ag499
aa(lp1443
F0.5423893000346
aI41
aI116
aI3
ag501
aa(lp1444
F0.16444267898169
aI41
aI0
aI3
ag503
aa(lp1445
F0.0022239876849808
aI40
aI114
aI3
ag505
aa(lp1446
F0.2149932856164
aI40
aI0
aI3
ag507
aa(lp1447
F0.2850067143836
aI41
aI116
aI3
ag509
aa(lp1448
F0.21404902431277
aI41
aI0
aI3
ag511
aa(lp1449
F0.28595097568723
aI40
aI115
aI3
ag513
aa(lp1450
F0.30434995568339
aI40
aI0
aI3
ag515
aa(lp1451
F0.69565004431661
aI40
aI111
aI3
ag517
aa(lp1452
F0.22751237910143
aI40
aI0
aI3
ag519
aa(lp1453
F0.77248762089857
aI0
aI0
aI0
ag521
aaaI0
aI0
aI0
aI0
aI0
aI0
aI0
aI0
aI0
a(lp1454
(lp1455
F0.015020120144072
aI61
aI90
aI0
ag524
aa(lp1456
F1.7885518858557
aI61
aI0
aI0
ag526
aa(lp1457
F0.094635222000761
aI60
aI105
aI0
ag528
aa(lp1458
F1.8938977119997
aI60
aI0
aI0
ag530
aa(lp1459
F0.10426414599988
aI58
aI101
aI0
ag532
aa(lp1460
F1.8214214380005
aI58
aI0
aI0
ag534
aa(lp1461
F0.083368375999271
aI57
aI89
aI0
ag536
aa(lp1462
F2.1111848440005
aI58
aI115
aI0
ag538
aa(lp1463
F0.064233097999931
aI57
aI0
aI0
ag540
aa(lp1464
F1.8592501359999
aI58
aI0
aI0
ag542
aa(lp1465
F0.022156504000122
aI60
aI79
aI0
ag544
aa(lp1466
F1.9033657479995
aI60
aI0
aI0
ag546
aa(lp1467
F0.14754592200006
aI61
aI97
aI0
ag548
aa(lp1468
F10.825497972
aI61
aI0
aI0
ag550
aa(lp1469
F0.10328673799995
aI60
aI100
aI0
ag552
aa(lp1470
F1.0228053399996
aI60
aI0
aI0
ag554
aa(lp1471
F0.052667068000119
aI61
aI91
aI0
ag556
aa(lp1472
F7.5706585360003
aI61
aI0
aI0
ag558
aa(lp1473
F0.51618919399971
aI0
aI0
aI0
ag560
aaa(lp1474
(lp1475
F0.045097690000148
aI58
aI98
aI0
ag563
aa(lp1476
F1.9046672579998
aI57
aI79
aI0
ag565
aa(lp1477
F0.054284009999719
aI58
aI0
aI0
ag567
aa(lp1478
F1.9845449280001
aI55
aI95
aI0
ag569
aa(lp1479
F0.14619941199999
aI57
aI0
aI0
ag571
aa(lp1480
F1.7025473780004
aI53
aI92
aI0
ag573
aa(lp1481
F0.084052751999479
aI55
aI0
aI0
ag575
aa(lp1482
F2.0887314420006
aI50
aI94
aI0
ag577
aa(lp1483
F0.063405133999368
aI53
aI0
aI0
ag579
aa(lp1484
F1.8726375000006
aI57
aI105
aI0
ag581
aa(lp1485
F0.10549162999996
aI50
aI0
aI0
ag583
aa(lp1486
F1.9022475880001
aI55
aI98
aI0
ag585
aa(lp1487
F0.1140655979998
aI57
aI0
aI0
ag587
aa(lp1488
F10.906989492
aI55
aI0
aI0
ag589
aa(lp1489
F0.0091836859992327
aI53
aI88
aI0
ag591
aa(lp1490
F0.97294694000084
aI53
aI0
aI0
ag593
aa(lp1491
F0.00019982199955848
aI55
aI98
aI0
ag595
aa(lp1492
F7.3306846160003
aI55
aI0
aI0
ag597
aa(lp1493
F0.71202312399964
aI0
aI0
aI0
ag599
aaaI0
aI0
aI0
aI0
aI0
aI0
aI0
aI0
aI0
aI0
aI0
aI0
aI0
aI0
aI0
aI0
aI0
aI0
aI0
aI0
aI0
aI0
aI0
aI0
aI0
aI0
aI0
aI0
aI0
aI0
aI0
aI0
aI0
aI0
aI0
aI0
aI0
aI0
aI0
aI0
aI0
aI0
aI0
aI0
aI0
aI0
aI0
aI0
aI0
aI0
aI0
aa(lp1494
(dp1495
a(dp1496
g603
I31
sg604
I1
sa(dp1497
a(dp1498
g603
I33
sg604
I0
sa(dp1499
g603
I34
sg604
I0
sa(dp1500
a(dp1501
g603
I36
sg604
I1
sa(dp1502
g603
I37
sg604
I1
sa(dp1503
g603
I38
sg604
I1
sa(dp1504
a(dp1505
a(dp1506
g603
I43
sg604
I0
sa(dp1507
g603
I44
sg604
I0
sa(dp1508
a(dp1509
a(dp1510
a(dp1511
a(dp1512
a(dp1513
a(dp1514
a(dp1515
a(dp1516
a(dp1517
g603
I56
sg604
I0
sa(dp1518
g603
I57
sg604
I1
sa(dp1519
a(dp1520
g603
I61
sg604
I1
sa(dp1521
g603
I62
sg604
I0
sa(dp1522
a(dp1523
a(dp1524
a(dp1525
g634
I66
sg635
I0
sa(dp1526
a(dp1527
g634
I68
sg635
I0
sa(dp1528
g603
I71
sg604
I1
sa(dp1529
g603
I72
sg604
I0
sa(dp1530
a(dp1531
a(dp1532
g603
I75
sg604
I0
sa(dp1533
a(dp1534
a(dp1535
a(dp1536
a(dp1537
a(dp1538
a(dp1539
a(dp1540
a(dp1541
a(dp1542
g634
I87
sg635
I0
sa(dp1543
g634
I88
sg635
I0
sa(dp1544
a(dp1545
a(dp1546
a(dp1547
a(dp1548
a(dp1549
a(dp1550
a(dp1551
a(dp1552
a(dp1553
a(dp1554
a(dp1555
a(dp1556
a(dp1557
a(dp1558
a(dp1559
a(dp1560
a(dp1561
a(dp1562
a(dp1563
a(dp1564
a(dp1565
a(dp1566
a(dp1567
a(dp1568
a(dp1569
a(dp1570
a(dp1571
a(dp1572
a(dp1573
a(dp1574
a(dp1575
a(dp1576
a(dp1577
a(dp1578
a(dp1579
a(dp1580
a(dp1581
a(dp1582
a(dp1583
a(dp1584
a(dp1585
a(dp1586
a(dp1587
a(dp1588
a(dp1589
a(dp1590
a(dp1591
a(dp1592
a(dp1593
a(dp1594
aa(lp1595
I60
aI60
aI36
aI36
aa(lp1596
(lp1597
I0
aI2
aI3
aI5
aI7
aI8
aI10
aa(lp1598
I0
aI2
aI3
aI5
aI7
aI8
aI10
aa(lp1599
I0
aI2
aI3
aI5
aI7
aI8
aI10
aa(lp1600
I0
aI2
aI3
aI5
aI7
aI8
aI10
aa(lp1601
I0
aI2
aI3
aI5
aI7
aI8
aI10
aa(lp1602
I0
aI1
aI2
aI3
aI4
aI5
aI6
aI7
aI8
aI9
aI10
aI11
aaa(lp1603
(lp1604
(lp1605
I0
aI0
aI0
aI0
aI0
aI0
aI0
aI0
aI0
aI0
aI0
aI0
aa(lp1606
I0
aI0
aI0
aI0
aI0
aI0
aI0
aI0
aI0
aI0
aI0
aI0
aa(lp1607
I0
aI0
aI0
aI0
aI0
aI0
aI0
aI0
aI0
aI0
aI0
aI0
aa(lp1608
I0
aI0
aI0
aI0
aI0
aI0
aI0
aI0
aI0
aI0
aI0
aI0
aaa(lp1609
(lp1610
I0
aI0
aI0
aI0
aI0
aI0
aI0
aI0
aI0
aI0
aI0
aI0
aa(lp1611
I0
aI0
aI0
aI0
aI0
aI0
aI0
aI0
aI0
aI0
aI0
aI0
aa(lp1612
I0
aI0
aI0
aI0
aI0
aI0
aI0
aI0
aI0
aI0
aI0
aI0
aa(lp1613
I0
aI0
aI0
aI0
aI0
aI0
aI0
aI0
aI0
aI0
aI0
aI0
aaa(lp1614
(lp1615
I0
aI0
aI0
aI0
aI0
aI0
aI0
aI0
aI0
aI0
aI0
aI0
aa(lp1616
I0
aI0
aI0
aI0
aI0
aI0
aI0
aI0
aI0
aI0
aI0
aI0
aa(lp1617
I0
aI0
aI0
aI0
aI0
aI0
aI0
aI0
aI0
aI0
aI0
aI0
aa(lp1618
I0
aI0
aI0
aI0
aI0
aI0
aI0
aI0
aI0
aI0
aI0
aI0
aaa(lp1619
(lp1620
I0
aI0
aI0
aI0
aI0
aI0
aI0
aI0
aI0
aI0
aI0
aI0
aa(lp1621
I0
aI0
aI0
aI0
aI0
aI0
aI0
aI0
aI0
aI0
aI0
aI0
aa(lp1622
I0
aI0
aI0
aI0
aI0
aI0
aI0
aI0
aI0
aI0
aI0
aI0
aa(lp1623
I0
aI0
aI0
aI0
aI0
aI0
aI0
aI0
aI0
aI0
aI0
aI0
aaaa(lp1624
(lp1625
I0
aI0
aI0
aI0
aI0
aI0
aI0
aI0
aI0
aI0
aI0
aI0
aa(lp1626
I0
aI0
aI0
aI0
aI0
aI0
aI0
aI0
aI0
aI0
aI0
aI0
aa(lp1627
I0
aI0
aI0
aI0
aI0
aI0
aI0
aI0
aI0
aI0
aI0
aI0
aa(lp1628
I0
aI0
aI0
aI0
aI0
aI0
aI0
aI0
aI0
aI0
aI0
aI0
aaaa(lp1629
(lp1630
I0
a(lp1631
(lp1632
F0.0
aI31
aI99
aI3
ag5
aa(lp1633
F0.65891966590061
aI31
aI0
aI3
ag7
aa(lp1634
F0.34108033409939
aI31
aI103
aI3
ag9
aa(lp1635
F0.69522106402292
aI31
aI0
aI3
ag11
aa(lp1636
F0.30477893597708
aI31
aI99
aI3
ag13
aa(lp1637
F0.69438935178641
aI31
aI0
aI3
ag15
aa(lp1638
F0.30561064821359
aI31
aI110
aI3
ag17
aa(lp1639
F0.65623286085247
aI31
aI0
aI3
ag19
aa(lp1640
F0.34376713914753
aI0
aI0
aI0
ag21
aaaI0
a(lp1641
(lp1642
F0.5
aI35
aI108
aI3
ag24
aa(lp1643
F0.30620387969975
aI35
aI0
aI3
ag26
aa(lp1644
F0.52712945363358
aI34
aI112
aI3
ag28
aa(lp1645
F0.24786790991675
aI34
aI0
aI3
ag30
aa(lp1646
F0.25213209008325
aI33
aI112
aI3
ag32
aa(lp1647
F1.5793990982747
aI33
aI0
aI3
ag34
aa(lp1648
F0.58726756839193
aI0
aI0
aI0
ag36
aaa(lp1649
(lp1650
F2.5
aI32
aI116
aI3
ag39
aa(lp1651
F0.46043987666417
aI32
aI0
aI3
ag41
aa(lp1652
F3.5395601233358
aI32
aI116
aI3
ag43
aa(lp1653
F0.18851552586784
aI32
aI0
aI3
ag45
aa(lp1654
F0.31148447413216
aI32
aI121
aI3
ag47
aa(lp1655
F0.48404598876914
aI32
aI0
aI3
ag49
aa(lp1656
F0.51595401123086
aI0
aI0
aI0
ag51
aaaI0
a(lp1657
(lp1658
F0.022280124010649
aI67
aI114
aI1
ag54
aa(lp1659
F31.804039500968
aI67
aI0
aI1
ag56
aa(lp1660
F0.17368037502092
aI0
aI0
aI0
ag58
aaa(lp1661
(lp1662
F0.038942152919844
aI74
aI90
aI1
ag61
aa(lp1663
F8.0116228372208
aI72
aI79
aI1
ag63
aa(lp1664
F0.094126738064006
aI74
aI0
aI1
ag65
aa(lp1665
F7.8880592366149
aI70
aI89
aI1
ag67
aa(lp1666
F0.093149186541268
aI72
aI0
aI1
ag69
aa(lp1667
F7.7568202098737
aI77
aI91
aI1
ag71
aa(lp1668
F0.059425325498523
aI70
aI0
aI1
ag73
aa(lp1669
F4.0362970412316
aI76
aI93
aI1
ag75
aa(lp1670
F0.070295431150953
aI77
aI0
aI1
ag77
aa(lp1671
F1.7330733408453
aI72
aI110
aI1
ag79
aa(lp1672
F0.058033331162733
aI76
aI0
aI1
ag81
aa(lp1673
F1.9785055260199
aI72
aI0
aI1
ag83
aa(lp1674
F0.18164964285643
aI0
aI0
aI0
ag85
aaa(lp1675
(lp1676
F0.1456310114736
aI81
aI118
aI1
ag88
aa(lp1677
F15.787790768061
aI81
aI0
aI1
ag90
aa(lp1678
F0.11686472997644
aI79
aI114
aI1
ag92
aa(lp1679
F15.734362672298
aI79
aI0
aI1
ag94
aa(lp1680
F0.082417115072531
aI82
aI108
aI1
ag96
aa(lp1681
F16.107255950279
aI84
aI100
aI1
ag98
aa(lp1682
F0.10505749042022
aI82
aI0
aI1
ag100
aa(lp1683
F15.910620262419
aI84
aI0
aI1
ag102
aa(lp1684
F0.010000000000218
aI0
aI0
aI0
ag104
aaaI0
aI0
a(lp1685
(lp1686
F0.5
aI26
aI112
aI3
ag107
aa(lp1687
F0.13974191692978
aI26
aI0
aI3
ag109
aa(lp1688
F0.36025808307022
aI35
aI110
aI3
ag111
aa(lp1689
F0.17630939709125
aI35
aI0
aI3
ag113
aa(lp1690
F0.32369060290875
aI34
aI115
aI3
ag115
aa(lp1691
F0.17749105834264
aI34
aI0
aI3
ag117
aa(lp1692
F0.32250894165736
aI33
aI114
aI3
ag119
aa(lp1693
F0.25283057809429
aI33
aI0
aI3
ag121
aa(lp1694
F0.58050275523904
aI34
aI119
aI3
ag123
aa(lp1695
F0.22297643197271
aI34
aI0
aI3
ag125
aa(lp1696
F0.44369023469396
aI35
aI116
aI3
ag127
aa(lp1697
F0.27882346488877
aI35
aI0
aI3
ag129
aa(lp1698
F0.55450986844456
aI26
aI118
aI3
ag131
aa(lp1699
F0.21446112910598
aI26
aI0
aI3
ag133
aa(lp1700
F0.45220553756068
aI35
aI116
aI3
ag135
aa(lp1701
F2.0478544536672
aI35
aI0
aI3
ag137
aa(lp1702
F0.95214554633276
aI0
aI0
aI0
ag139
aaa(lp1703
(lp1704
F0.5
aI30
aI114
aI3
ag142
aa(lp1705
F0.14987270940765
aI30
aI0
aI3
ag144
aa(lp1706
F0.35012729059235
aI29
aI113
aI3
ag146
aa(lp1707
F0.15767134934322
aI29
aI0
aI3
ag148
aa(lp1708
F0.34232865065678
aI28
aI116
aI3
ag150
aa(lp1709
F0.15833204835326
aI28
aI0
aI3
ag152
aa(lp1710
F0.34166795164674
aI27
aI118
aI3
ag154
aa(lp1711
F0.25000905072557
aI27
aI0
aI3
ag156
aa(lp1712
F0.58332428260777
aI28
aI117
aI3
ag158
aa(lp1713
F0.25239797534414
aI28
aI0
aI3
ag160
aa(lp1714
F0.41426869132253
aI29
aI114
aI3
ag162
aa(lp1715
F0.28990001202874
aI29
aI0
aI3
ag164
aa(lp1716
F0.54343332130459
aI30
aI116
aI3
ag166
aa(lp1717
F0.28897668218269
aI30
aI0
aI3
ag168
aa(lp1718
F0.37768998448397
aI29
aI116
aI3
ag170
aa(lp1719
F2.406297322781
aI29
aI0
aI3
ag172
aa(lp1720
F0.59370267721897
aI0
aI0
aI0
ag174
aaaI0
aI0
aI0
aI0
aI0
aI0
aI0
aI0
aI0
a(lp1721
(lp1722
F0.56421944935209
aI31
aI121
aI2
ag177
aa(lp1723
F0.613302803642
aI31
aI0
aI2
ag179
aa(lp1724
F0.33082235890106
aI31
aI119
aI2
ag181
aa(lp1725
F0.65821710743876
aI31
aI0
aI2
ag183
aa(lp1726
F0.38889901010589
aI31
aI118
aI2
ag185
aa(lp1727
F0.67216875888516
aI31
aI0
aI2
ag187
aa(lp1728
F0.33263003994944
aI31
aI116
aI2
ag189
aa(lp1729
F0.53831089549749
aI31
aI0
aI2
ag191
aa(lp1730
F0.48315048032055
aI34
aI114
aI2
ag193
aa(lp1731
F0.61179574664311
aI34
aI0
aI2
ag195
aa(lp1732
F0.3422095874048
aI34
aI111
aI2
ag197
aa(lp1733
F0.58831229353018
aI34
aI0
aI2
ag199
aa(lp1734
F0.39061991361268
aI38
aI110
aI2
ag201
aa(lp1735
F0.69349057484578
aI38
aI0
aI2
ag203
aa(lp1736
F0.3548961760207
aI38
aI119
aI2
ag205
aa(lp1737
F0.42695480385009
aI38
aI0
aI2
ag207
aa(lp1738
F0.010000000000218
aI0
aI0
aI0
ag209
aaa(lp1739
(lp1740
F0.49227794327635
aI31
aI114
aI2
ag212
aa(lp1741
F0.65913780027586
aI31
aI0
aI2
ag214
aa(lp1742
F0.2713360914986
aI31
aI117
aI2
ag216
aa(lp1743
F0.63601774967174
aI31
aI0
aI2
ag218
aa(lp1744
F0.36534356198717
aI31
aI121
aI2
ag220
aa(lp1745
F0.67017547363503
aI31
aI0
aI2
ag222
aa(lp1746
F0.36410229318244
aI31
aI120
aI2
ag224
aa(lp1747
F0.67049590087481
aI31
aI0
aI2
ag226
aa(lp1748
F0.38801378859171
aI34
aI117
aI2
ag228
aa(lp1749
F0.60116991338327
aI34
aI0
aI2
ag230
aa(lp1750
F0.37638399355092
aI34
aI118
aI2
ag232
aa(lp1751
F0.60135992305004
aI34
aI0
aI2
ag234
aa(lp1752
F0.43568852815588
aI38
aI118
aI2
ag236
aa(lp1753
F0.62536045169327
aI38
aI0
aI2
ag238
aa(lp1754
F0.3523185479462
aI38
aI119
aI2
ag240
aa(lp1755
F0.66080311603946
aI38
aI0
aI2
ag242
aa(lp1756
F0.42338002542601
aI31
aI120
aI2
ag244
aa(lp1757
F0.50707978463106
aI31
aI0
aI2
ag246
aa(lp1758
F0.41300469305497
aI31
aI120
aI2
ag248
aa(lp1759
F0.66051729255196
aI31
aI0
aI2
ag250
aa(lp1760
F0.35301780470763
aI31
aI121
aI2
ag252
aa(lp1761
F0.63722350658827
aI31
aI0
aI2
ag254
aa(lp1762
F0.38958028670822
aI31
aI120
aI2
ag256
aa(lp1763
F0.61320317926584
aI31
aI0
aI2
ag258
aa(lp1764
F0.38829588038789
aI34
aI118
aI2
ag260
aa(lp1765
F0.6128501042549
aI34
aI0
aI2
ag262
aa(lp1766
F0.30746015413388
aI34
aI120
aI2
ag264
aa(lp1767
F0.63522598938471
aI34
aI0
aI2
ag266
aa(lp1768
F0.39085507987329
aI38
aI121
aI2
ag268
aa(lp1769
F0.59858158148927
aI38
aI0
aI2
ag270
aa(lp1770
F0.38746703306606
aI38
aI120
aI2
ag272
aa(lp1771
F0.66093472567809
aI38
aI0
aI2
ag274
aa(lp1772
F0.41287520840524
aI31
aI122
aI2
ag276
aa(lp1773
F0.62245907256147
aI31
aI0
aI2
ag278
aa(lp1774
F0.40160050970371
aI31
aI120
aI2
ag280
aa(lp1775
F0.60125549435361
aI31
aI0
aI2
ag282
aa(lp1776
F0.41237103379535
aI31
aI120
aI2
ag284
aa(lp1777
F0.61476985990885
aI31
aI0
aI2
ag286
aa(lp1778
F0.37499460869003
aI31
aI119
aI2
ag288
aa(lp1779
F0.55470893043639
aI31
aI0
aI2
ag290
aa(lp1780
F0.41298512422145
aI34
aI119
aI2
ag292
aa(lp1781
F0.58854320305181
aI34
aI0
aI2
ag294
aa(lp1782
F0.36533777066143
aI34
aI119
aI2
ag296
aa(lp1783
F0.65962734783716
aI34
aI0
aI2
ag298
aa(lp1784
F0.35414563783161
aI38
aI118
aI2
ag300
aa(lp1785
F0.61388542033637
aI38
aI0
aI2
ag302
aa(lp1786
F0.41371023690226
aI38
aI114
aI2
ag304
aa(lp1787
F0.52998468849728
aI38
aI0
aI2
ag306
aa(lp1788
F0.4588926589422
aI41
aI116
aI2
ag308
aa(lp1789
F0.57787481817286
aI41
aI0
aI2
ag310
aa(lp1790
F0.39913224985867
aI41
aI118
aI2
ag312
aa(lp1791
F0.62391759732236
aI41
aI0
aI2
ag314
aa(lp1792
F0.42530713404085
aI41
aI118
aI2
ag316
aa(lp1793
F0.57624981636582
aI41
aI0
aI2
ag318
aa(lp1794
F0.37719409679812
aI41
aI114
aI2
ag320
aa(lp1795
F0.60124674426152
aI41
aI0
aI2
ag322
aa(lp1796
F0.42412904480079
aI40
aI120
aI2
ag324
aa(lp1797
F0.61248502294075
aI40
aI0
aI2
ag326
aa(lp1798
F0.38835218247186
aI40
aI123
aI2
ag328
aa(lp1799
F0.64846973313433
aI40
aI0
aI2
ag330
aa(lp1800
F0.40124431819277
aI40
aI123
aI2
ag332
aa(lp1801
F0.59952362788317
aI40
aI0
aI2
ag334
aa(lp1802
F0.39015781965281
aI40
aI123
aI2
ag336
aa(lp1803
F0.29395246550484
aI40
aI0
aI2
ag338
aa(lp1804
F0.11995432444746
aI0
aI0
aI0
ag340
aaaI0
a(lp1805
(lp1806
F0.5
aI38
aI120
aI3
ag343
aa(lp1807
F0.95324115163658
aI38
aI0
aI3
ag345
aa(lp1808
F1.0467588483634
aI38
aI115
aI3
ag347
aa(lp1809
F1.1735155769238
aI38
aI0
aI3
ag349
aa(lp1810
F0.82648442307618
aI38
aI120
aI3
ag351
aa(lp1811
F1.2662785580997
aI38
aI0
aI3
ag353
aa(lp1812
F0.73372144190034
aI38
aI120
aI3
ag355
aa(lp1813
F1.1735331852788
aI38
aI0
aI3
ag357
aa(lp1814
F0.32646681472124
aI0
aI0
aI0
ag359
aaa(lp1815
(lp1816
F0.75710982805776
aI38
aI108
aI3
ag362
aa(lp1817
F2.3654799207807
aI38
aI0
aI3
ag364
aa(lp1818
F1.1181690560325
aI38
aI107
aI3
ag366
aa(lp1819
F3.2891501871936
aI38
aI0
aI3
ag368
aa(lp1820
F0.47009100793548
aI0
aI0
aI0
ag370
aaaI0
aI0
aI0
a(lp1821
(lp1822
F0.5
aI31
aI120
aI2
ag373
aa(lp1823
F0.4579300940004
aI31
aI0
aI2
ag375
aa(lp1824
F0.5420699059996
aI31
aI120
aI2
ag377
aa(lp1825
F0.54177763200005
aI31
aI0
aI2
ag379
aa(lp1826
F0.45822236799995
aI31
aI121
aI2
ag381
aa(lp1827
F0.59366601999955
aI31
aI0
aI2
ag383
aa(lp1828
F0.40633398000045
aI31
aI118
aI2
ag385
aa(lp1829
F0.55593204599973
aI31
aI0
aI2
ag387
aa(lp1830
F0.44406795400027
aI34
aI120
aI2
ag389
aa(lp1831
F0.60656612799994
aI34
aI0
aI2
ag391
aa(lp1832
F0.39343387200006
aI34
aI117
aI2
ag393
aa(lp1833
F0.55493520999971
aI34
aI0
aI2
ag395
aa(lp1834
F0.44506479000029
aI37
aI123
aI2
ag397
aa(lp1835
F0.58670086599977
aI37
aI0
aI2
ag399
aa(lp1836
F0.41329913400023
aI37
aI123
aI2
ag401
aa(lp1837
F0.41736095200031
aI37
aI0
aI2
ag403
aa(lp1838
F0.082639047999692
aI0
aI0
aI0
ag405
aaaI0
a(lp1839
(lp1840
F0.012034010000207
aI31
aI95
aI2
ag408
aa(lp1841
F14.722928938
aI31
aI0
aI2
ag410
aa(lp1842
F0.1785338640002
aI29
aI71
aI2
ag412
aa(lp1843
F0.84932248999985
aI29
aI0
aI2
ag414
aa(lp1844
F0.23718069799997
aI0
aI0
aI0
ag416
aaa(lp1845
(lp1846
F0.0
aI36
aI110
aI3
ag419
aa(lp1847
F0.09875165837957
aI36
aI0
aI3
ag421
aa(lp1848
F0.90124834162043
aI36
aI110
aI3
ag423
aa(lp1849
F0.189526997332
aI36
aI0
aI3
ag425
aa(lp1850
F0.310473002668
aI37
aI113
aI3
ag427
aa(lp1851
F0.18934270846466
aI37
aI0
aI3
ag429
aa(lp1852
F0.31065729153534
aI36
aI103
aI3
ag431
aa(lp1853
F0.19110574135993
aI36
aI0
aI3
ag433
aa(lp1854
F0.80889425864007
aI36
aI111
aI3
ag435
aa(lp1855
F0.0631531828476
aI36
aI0
aI3
ag437
aa(lp1856
F0.9368468171524
aI36
aI114
aI3
ag439
aa(lp1857
F0.06266905209759
aI36
aI0
aI3
ag441
aa(lp1858
F0.77066428123574
aI37
aI106
aI3
ag443
aa(lp1859
F0.11366263007494
aI37
aI0
aI3
ag445
aa(lp1860
F0.053004036591726
aI36
aI112
aI3
ag447
aa(lp1861
F0.20214247313697
aI36
aI0
aI3
ag449
aa(lp1862
F0.29785752686303
aI37
aI103
aI3
ag451
aa(lp1863
F0.19057670350958
aI37
aI0
aI3
ag453
aa(lp1864
F0.30942329649042
aI36
aI105
aI3
ag455
aa(lp1865
F0.17599373070789
aI36
aI0
aI3
ag457
aa(lp1866
F0.82400626929211
aI36
aI113
aI3
ag459
aa(lp1867
F0.16377330553769
aI36
aI0
aI3
ag461
aa(lp1868
F0.83622669446231
aI0
aI0
aI0
ag463
aaa(lp1869
(lp1870
F0.5
aI39
aI120
aI3
ag466
aa(lp1871
F1.2130195609689
aI39
aI0
aI3
ag468
aa(lp1872
F2.7869804390311
aI39
aI120
aI3
ag470
aa(lp1873
F2.8641439850353
aI39
aI0
aI3
ag472
aa(lp1874
F0.6358560149647
aI0
aI0
aI0
ag474
aaaI0
aI0
a(lp1875
(lp1876
F0.0
aI40
aI112
aI3
ag477
aa(lp1877
F0.31419171476773
aI40
aI0
aI3
ag479
aa(lp1878
F0.68580828523227
aI40
aI113
aI3
ag481
aa(lp1879
F0.27811283583014
aI40
aI0
aI3
ag483
aa(lp1880
F0.22188716416986
aI41
aI118
aI3
ag485
aa(lp1881
F0.30320181223397
aI41
aI0
aI3
ag487
aa(lp1882
F0.19679818776603
aI40
aI115
aI3
ag489
aa(lp1883
F0.34153087566847
aI40
aI0
aI3
ag491
aa(lp1884
F0.65846912433153
aI40
aI107
aI3
ag493
aa(lp1885
F0.42871611829742
aI40
aI0
aI3
ag495
aa(lp1886
F0.57128388170258
aI40
aI112
aI3
ag497
aa(lp1887
F0.29094403329873
aI40
aI0
aI3
ag499
aa(lp1888
F0.5423893000346
aI41
aI116
aI3
ag501
aa(lp1889
F0.16444267898169
aI41
aI0
aI3
ag503
aa(lp1890
F0.0022239876849808
aI40
aI114
aI3
ag505
aa(lp1891
F0.2149932856164
aI40
aI0
aI3
ag507
aa(lp1892
F0.2850067143836
aI41
aI116
aI3
ag509
aa(lp1893
F0.21404902431277
aI41
aI0
aI3
ag511
aa(lp1894
F0.28595097568723
aI40
aI115
aI3
ag513
aa(lp1895
F0.30434995568339
aI40
aI0
aI3
ag515
aa(lp1896
F0.69565004431661
aI40
aI111
aI3
ag517
aa(lp1897
F0.22751237910143
aI40
aI0
aI3
ag519
aa(lp1898
F0.77248762089857
aI0
aI0
aI0
ag521
aaaI0
aI0
aI0
aI0
aI0
aI0
aI0
aI0
aI0
a(lp1899
(lp1900
F0.015020120144072
aI61
aI90
aI0
ag524
aa(lp1901
F1.7885518858557
aI61
aI0
aI0
ag526
aa(lp1902
F0.094635222000761
aI60
aI105
aI0
ag528
aa(lp1903
F1.8938977119997
aI60
aI0
aI0
ag530
aa(lp1904
F0.10426414599988
aI58
aI101
aI0
ag532
aa(lp1905
F1.8214214380005
aI58
aI0
aI0
ag534
aa(lp1906
F0.083368375999271
aI57
aI89
aI0
ag536
aa(lp1907
F2.1111848440005
aI58
aI115
aI0
ag538
aa(lp1908
F0.064233097999931
aI57
aI0
aI0
ag540
aa(lp1909
F1.8592501359999
aI58
aI0
aI0
ag542
aa(lp1910
F0.022156504000122
aI60
aI79
aI0
ag544
aa(lp1911
F1.9033657479995
aI60
aI0
aI0
ag546
aa(lp1912
F0.14754592200006
aI61
aI97
aI0
ag548
aa(lp1913
F10.825497972
aI61
aI0
aI0
ag550
aa(lp1914
F0.10328673799995
aI60
aI100
aI0
ag552
aa(lp1915
F1.0228053399996
aI60
aI0
aI0
ag554
aa(lp1916
F0.052667068000119
aI61
aI91
aI0
ag556
aa(lp1917
F7.5706585360003
aI61
aI0
aI0
ag558
aa(lp1918
F0.51618919399971
aI0
aI0
aI0
ag560
aaa(lp1919
(lp1920
F0.045097690000148
aI58
aI98
aI0
ag563
aa(lp1921
F1.9046672579998
aI57
aI79
aI0
ag565
aa(lp1922
F0.054284009999719
aI58
aI0
aI0
ag567
aa(lp1923
F1.9845449280001
aI55
aI95
aI0
ag569
aa(lp1924
F0.14619941199999
aI57
aI0
aI0
ag571
aa(lp1925
F1.7025473780004
aI53
aI92
aI0
ag573
aa(lp1926
F0.084052751999479
aI55
aI0
aI0
ag575
aa(lp1927
F2.0887314420006
aI50
aI94
aI0
ag577
aa(lp1928
F0.063405133999368
aI53
aI0
aI0
ag579
aa(lp1929
F1.8726375000006
aI57
aI105
aI0
ag581
aa(lp1930
F0.10549162999996
aI50
aI0
aI0
ag583
aa(lp1931
F1.9022475880001
aI55
aI98
aI0
ag585
aa(lp1932
F0.1140655979998
aI57
aI0
aI0
ag587
aa(lp1933
F10.906989492
aI55
aI0
aI0
ag589
aa(lp1934
F0.0091836859992327
aI53
aI88
aI0
ag591
aa(lp1935
F0.97294694000084
aI53
aI0
aI0
ag593
aa(lp1936
F0.00019982199955848
aI55
aI98
aI0
ag595
aa(lp1937
F7.3306846160003
aI55
aI0
aI0
ag597
aa(lp1938
F0.71202312399964
aI0
aI0
aI0
ag599
aaaI0
aI0
aI0
aI0
aI0
aI0
aI0
aI0
aI0
aI0
aI0
aI0
aI0
aI0
aI0
aI0
aI0
aI0
aI0
aI0
aI0
aI0
aI0
aI0
aI0
aI0
aI0
aI0
aI0
aI0
aI0
aI0
aI0
aI0
aI0
aI0
aI0
aI0
aI0
aI0
aI0
aI0
aI0
aI0
aI0
aI0
aI0
aI0
aI0
aI0
aI0
aa(lp1939
(dp1940
a(dp1941
g603
I31
sg604
I1
sa(dp1942
a(dp1943
g603
I33
sg604
I0
sa(dp1944
g603
I34
sg604
I0
sa(dp1945
a(dp1946
g603
I36
sg604
I0
sa(dp1947
g603
I37
sg604
I0
sa(dp1948
g603
I38
sg604
I0
sa(dp1949
a(dp1950
a(dp1951
g603
I43
sg604
I1
sa(dp1952
g603
I44
sg604
I1
sa(dp1953
a(dp1954
a(dp1955
a(dp1956
a(dp1957
a(dp1958
a(dp1959
a(dp1960
a(dp1961
a(dp1962
g603
I56
sg604
I1
sa(dp1963
g603
I57
sg604
I0
sa(dp1964
a(dp1965
g603
I61
sg604
I1
sa(dp1966
g603
I62
sg604
I0
sa(dp1967
a(dp1968
a(dp1969
a(dp1970
g634
I66
sg635
I0
sa(dp1971
a(dp1972
g634
I68
sg635
I0
sa(dp1973
g603
I71
sg604
I0
sa(dp1974
g603
I72
sg604
I0
sa(dp1975
a(dp1976
a(dp1977
g603
I75
sg604
I1
sa(dp1978
a(dp1979
a(dp1980
a(dp1981
a(dp1982
a(dp1983
a(dp1984
a(dp1985
a(dp1986
a(dp1987
g634
I87
sg635
I0
sa(dp1988
g634
I88
sg635
I0
sa(dp1989
a(dp1990
a(dp1991
a(dp1992
a(dp1993
a(dp1994
a(dp1995
a(dp1996
a(dp1997
a(dp1998
a(dp1999
a(dp2000
a(dp2001
a(dp2002
a(dp2003
a(dp2004
a(dp2005
a(dp2006
a(dp2007
a(dp2008
a(dp2009
a(dp2010
a(dp2011
a(dp2012
a(dp2013
a(dp2014
a(dp2015
a(dp2016
a(dp2017
a(dp2018
a(dp2019
a(dp2020
a(dp2021
a(dp2022
a(dp2023
a(dp2024
a(dp2025
a(dp2026
a(dp2027
a(dp2028
a(dp2029
a(dp2030
a(dp2031
a(dp2032
a(dp2033
a(dp2034
a(dp2035
a(dp2036
a(dp2037
a(dp2038
a(dp2039
aa(lp2040
I60
aI60
aI36
aI36
aa(lp2041
(lp2042
I0
aI2
aI3
aI5
aI7
aI8
aI10
aa(lp2043
I0
aI2
aI3
aI5
aI7
aI8
aI10
aa(lp2044
I0
aI2
aI3
aI5
aI7
aI8
aI10
aa(lp2045
I0
aI2
aI3
aI5
aI7
aI8
aI10
aa(lp2046
I0
aI2
aI3
aI5
aI7
aI8
aI10
aa(lp2047
I0
aI1
aI2
aI3
aI4
aI5
aI6
aI7
aI8
aI9
aI10
aI11
aaa(lp2048
(lp2049
(lp2050
I0
aI0
aI0
aI0
aI0
aI0
aI0
aI0
aI0
aI0
aI0
aI0
aa(lp2051
I0
aI0
aI0
aI0
aI0
aI0
aI0
aI0
aI0
aI0
aI0
aI0
aa(lp2052
I0
aI0
aI0
aI0
aI0
aI0
aI0
aI0
aI0
aI0
aI0
aI0
aa(lp2053
I0
aI0
aI0
aI0
aI0
aI0
aI0
aI0
aI0
aI0
aI0
aI0
aaa(lp2054
(lp2055
I0
aI0
aI0
aI0
aI0
aI0
aI0
aI0
aI0
aI0
aI0
aI0
aa(lp2056
I0
aI0
aI0
aI0
aI0
aI0
aI0
aI0
aI0
aI0
aI0
aI0
aa(lp2057
I0
aI0
aI0
aI0
aI0
aI0
aI0
aI0
aI0
aI0
aI0
aI0
aa(lp2058
I0
aI0
aI0
aI0
aI0
aI0
aI0
aI0
aI0
aI0
aI0
aI0
aaa(lp2059
(lp2060
I0
aI0
aI0
aI0
aI0
aI0
aI0
aI0
aI0
aI0
aI0
aI0
aa(lp2061
I0
aI0
aI0
aI0
aI0
aI0
aI0
aI0
aI0
aI0
aI0
aI0
aa(lp2062
I0
aI0
aI0
aI0
aI0
aI0
aI0
aI0
aI0
aI0
aI0
aI0
aa(lp2063
I0
aI0
aI0
aI0
aI0
aI0
aI0
aI0
aI0
aI0
aI0
aI0
aaa(lp2064
(lp2065
I0
aI0
aI0
aI0
aI0
aI0
aI0
aI0
aI0
aI0
aI0
aI0
aa(lp2066
I0
aI0
aI0
aI0
aI0
aI0
aI0
aI0
aI0
aI0
aI0
aI0
aa(lp2067
I0
aI0
aI0
aI0
aI0
aI0
aI0
aI0
aI0
aI0
aI0
aI0
aa(lp2068
I0
aI0
aI0
aI0
aI0
aI0
aI0
aI0
aI0
aI0
aI0
aI0
aaaa(lp2069
(lp2070
I0
aI0
aI0
aI0
aI0
aI0
aI0
aI0
aI0
aI0
aI0
aI0
aa(lp2071
I0
aI0
aI0
aI0
aI0
aI0
aI0
aI0
aI0
aI0
aI0
aI0
aa(lp2072
I0
aI0
aI0
aI0
aI0
aI0
aI0
aI0
aI0
aI0
aI0
aI0
aa(lp2073
I0
aI0
aI0
aI0
aI0
aI0
aI0
aI0
aI0
aI0
aI0
aI0
aaaa(lp2074
(lp2075
I0
a(lp2076
(lp2077
F0.0
aI31
aI99
aI3
ag5
aa(lp2078
F0.65891966590061
aI31
aI0
aI3
ag7
aa(lp2079
F0.34108033409939
aI31
aI103
aI3
ag9
aa(lp2080
F0.69522106402292
aI31
aI0
aI3
ag11
aa(lp2081
F0.30477893597708
aI31
aI99
aI3
ag13
aa(lp2082
F0.69438935178641
aI31
aI0
aI3
ag15
aa(lp2083
F0.30561064821359
aI31
aI110
aI3
ag17
aa(lp2084
F0.65623286085247
aI31
aI0
aI3
ag19
aa(lp2085
F0.34376713914753
aI0
aI0
aI0
ag21
aaaI0
a(lp2086
(lp2087
F0.5
aI35
aI108
aI3
ag24
aa(lp2088
F0.30620387969975
aI35
aI0
aI3
ag26
aa(lp2089
F0.52712945363358
aI34
aI112
aI3
ag28
aa(lp2090
F0.24786790991675
aI34
aI0
aI3
ag30
aa(lp2091
F0.25213209008325
aI33
aI112
aI3
ag32
aa(lp2092
F1.5793990982747
aI33
aI0
aI3
ag34
aa(lp2093
F0.58726756839193
aI0
aI0
aI0
ag36
aaa(lp2094
(lp2095
F2.5
aI32
aI116
aI3
ag39
aa(lp2096
F0.46043987666417
aI32
aI0
aI3
ag41
aa(lp2097
F3.5395601233358
aI32
aI116
aI3
ag43
aa(lp2098
F0.18851552586784
aI32
aI0
aI3
ag45
aa(lp2099
F0.31148447413216
aI32
aI121
aI3
ag47
aa(lp2100
F0.48404598876914
aI32
aI0
aI3
ag49
aa(lp2101
F0.51595401123086
aI0
aI0
aI0
ag51
aaaI0
a(lp2102
(lp2103
F0.022280124010649
aI67
aI114
aI1
ag54
aa(lp2104
F31.804039500968
aI67
aI0
aI1
ag56
aa(lp2105
F0.17368037502092
aI0
aI0
aI0
ag58
aaa(lp2106
(lp2107
F0.038942152919844
aI74
aI90
aI1
ag61
aa(lp2108
F8.0116228372208
aI72
aI79
aI1
ag63
aa(lp2109
F0.094126738064006
aI74
aI0
aI1
ag65
aa(lp2110
F7.8880592366149
aI70
aI89
aI1
ag67
aa(lp2111
F0.093149186541268
aI72
aI0
aI1
ag69
aa(lp2112
F7.7568202098737
aI77
aI91
aI1
ag71
aa(lp2113
F0.059425325498523
aI70
aI0
aI1
ag73
aa(lp2114
F4.0362970412316
aI76
aI93
aI1
ag75
aa(lp2115
F0.070295431150953
aI77
aI0
aI1
ag77
aa(lp2116
F1.7330733408453
aI72
aI110
aI1
ag79
aa(lp2117
F0.058033331162733
aI76
aI0
aI1
ag81
aa(lp2118
F1.9785055260199
aI72
aI0
aI1
ag83
aa(lp2119
F0.18164964285643
aI0
aI0
aI0
ag85
aaa(lp2120
(lp2121
F0.1456310114736
aI81
aI118
aI1
ag88
aa(lp2122
F15.787790768061
aI81
aI0
aI1
ag90
aa(lp2123
F0.11686472997644
aI79
aI114
aI1
ag92
aa(lp2124
F15.734362672298
aI79
aI0
aI1
ag94
aa(lp2125
F0.082417115072531
aI82
aI108
aI1
ag96
aa(lp2126
F16.107255950279
aI84
aI100
aI1
ag98
aa(lp2127
F0.10505749042022
aI82
aI0
aI1
ag100
aa(lp2128
F15.910620262419
aI84
aI0
aI1
ag102
aa(lp2129
F0.010000000000218
aI0
aI0
aI0
ag104
aaaI0
aI0
a(lp2130
(lp2131
F0.5
aI26
aI112
aI3
ag107
aa(lp2132
F0.13974191692978
aI26
aI0
aI3
ag109
aa(lp2133
F0.36025808307022
aI35
aI110
aI3
ag111
aa(lp2134
F0.17630939709125
aI35
aI0
aI3
ag113
aa(lp2135
F0.32369060290875
aI34
aI115
aI3
ag115
aa(lp2136
F0.17749105834264
aI34
aI0
aI3
ag117
aa(lp2137
F0.32250894165736
aI33
aI114
aI3
ag119
aa(lp2138
F0.25283057809429
aI33
aI0
aI3
ag121
aa(lp2139
F0.58050275523904
aI34
aI119
aI3
ag123
aa(lp2140
F0.22297643197271
aI34
aI0
aI3
ag125
aa(lp2141
F0.44369023469396
aI35
aI116
aI3
ag127
aa(lp2142
F0.27882346488877
aI35
aI0
aI3
ag129
aa(lp2143
F0.55450986844456
aI26
aI118
aI3
ag131
aa(lp2144
F0.21446112910598
aI26
aI0
aI3
ag133
aa(lp2145
F0.45220553756068
aI35
aI116
aI3
ag135
aa(lp2146
F2.0478544536672
aI35
aI0
aI3
ag137
aa(lp2147
F0.95214554633276
aI0
aI0
aI0
ag139
aaa(lp2148
(lp2149
F0.5
aI30
aI114
aI3
ag142
aa(lp2150
F0.14987270940765
aI30
aI0
aI3
ag144
aa(lp2151
F0.35012729059235
aI29
aI113
aI3
ag146
aa(lp2152
F0.15767134934322
aI29
aI0
aI3
ag148
aa(lp2153
F0.34232865065678
aI28
aI116
aI3
ag150
aa(lp2154
F0.15833204835326
aI28
aI0
aI3
ag152
aa(lp2155
F0.34166795164674
aI27
aI118
aI3
ag154
aa(lp2156
F0.25000905072557
aI27
aI0
aI3
ag156
aa(lp2157
F0.58332428260777
aI28
aI117
aI3
ag158
aa(lp2158
F0.25239797534414
aI28
aI0
aI3
ag160
aa(lp2159
F0.41426869132253
aI29
aI114
aI3
ag162
aa(lp2160
F0.28990001202874
aI29
aI0
aI3
ag164
aa(lp2161
F0.54343332130459
aI30
aI116
aI3
ag166
aa(lp2162
F0.28897668218269
aI30
aI0
aI3
ag168
aa(lp2163
F0.37768998448397
aI29
aI116
aI3
ag170
aa(lp2164
F2.406297322781
aI29
aI0
aI3
ag172
aa(lp2165
F0.59370267721897
aI0
aI0
aI0
ag174
aaaI0
aI0
aI0
aI0
aI0
aI0
aI0
aI0
aI0
a(lp2166
(lp2167
F0.56421944935209
aI31
aI121
aI2
ag177
aa(lp2168
F0.613302803642
aI31
aI0
aI2
ag179
aa(lp2169
F0.33082235890106
aI31
aI119
aI2
ag181
aa(lp2170
F0.65821710743876
aI31
aI0
aI2
ag183
aa(lp2171
F0.38889901010589
aI31
aI118
aI2
ag185
aa(lp2172
F0.67216875888516
aI31
aI0
aI2
ag187
aa(lp2173
F0.33263003994944
aI31
aI116
aI2
ag189
aa(lp2174
F0.53831089549749
aI31
aI0
aI2
ag191
aa(lp2175
F0.48315048032055
aI34
aI114
aI2
ag193
aa(lp2176
F0.61179574664311
aI34
aI0
aI2
ag195
aa(lp2177
F0.3422095874048
aI34
aI111
aI2
ag197
aa(lp2178
F0.58831229353018
aI34
aI0
aI2
ag199
aa(lp2179
F0.39061991361268
aI38
aI110
aI2
ag201
aa(lp2180
F0.69349057484578
aI38
aI0
aI2
ag203
aa(lp2181
F0.3548961760207
aI38
aI119
aI2
ag205
aa(lp2182
F0.42695480385009
aI38
aI0
aI2
ag207
aa(lp2183
F0.010000000000218
aI0
aI0
aI0
ag209
aaa(lp2184
(lp2185
F0.49227794327635
aI31
aI114
aI2
ag212
aa(lp2186
F0.65913780027586
aI31
aI0
aI2
ag214
aa(lp2187
F0.2713360914986
aI31
aI117
aI2
ag216
aa(lp2188
F0.63601774967174
aI31
aI0
aI2
ag218
aa(lp2189
F0.36534356198717
aI31
aI121
aI2
ag220
aa(lp2190
F0.67017547363503
aI31
aI0
aI2
ag222
aa(lp2191
F0.36410229318244
aI31
aI120
aI2
ag224
aa(lp2192
F0.67049590087481
aI31
aI0
aI2
ag226
aa(lp2193
F0.38801378859171
aI34
aI117
aI2
ag228
aa(lp2194
F0.60116991338327
aI34
aI0
aI2
ag230
aa(lp2195
F0.37638399355092
aI34
aI118
aI2
ag232
aa(lp2196
F0.60135992305004
aI34
aI0
aI2
ag234
aa(lp2197
F0.43568852815588
aI38
aI118
aI2
ag236
aa(lp2198
F0.62536045169327
aI38
aI0
aI2
ag238
aa(lp2199
F0.3523185479462
aI38
aI119
aI2
ag240
aa(lp2200
F0.66080311603946
aI38
aI0
aI2
ag242
aa(lp2201
F0.42338002542601
aI31
aI120
aI2
ag244
aa(lp2202
F0.50707978463106
aI31
aI0
aI2
ag246
aa(lp2203
F0.41300469305497
aI31
aI120
aI2
ag248
aa(lp2204
F0.66051729255196
aI31
aI0
aI2
ag250
aa(lp2205
F0.35301780470763
aI31
aI121
aI2
ag252
aa(lp2206
F0.63722350658827
aI31
aI0
aI2
ag254
aa(lp2207
F0.38958028670822
aI31
aI120
aI2
ag256
aa(lp2208
F0.61320317926584
aI31
aI0
aI2
ag258
aa(lp2209
F0.38829588038789
aI34
aI118
aI2
ag260
aa(lp2210
F0.6128501042549
aI34
aI0
aI2
ag262
aa(lp2211
F0.30746015413388
aI34
aI120
aI2
ag264
aa(lp2212
F0.63522598938471
aI34
aI0
aI2
ag266
aa(lp2213
F0.39085507987329
aI38
aI121
aI2
ag268
aa(lp2214
F0.59858158148927
aI38
aI0
aI2
ag270
aa(lp2215
F0.38746703306606
aI38
aI120
aI2
ag272
aa(lp2216
F0.66093472567809
aI38
aI0
aI2
ag274
aa(lp2217
F0.41287520840524
aI31
aI122
aI2
ag276
aa(lp2218
F0.62245907256147
aI31
aI0
aI2
ag278
aa(lp2219
F0.40160050970371
aI31
aI120
aI2
ag280
aa(lp2220
F0.60125549435361
aI31
aI0
aI2
ag282
aa(lp2221
F0.41237103379535
aI31
aI120
aI2
ag284
aa(lp2222
F0.61476985990885
aI31
aI0
aI2
ag286
aa(lp2223
F0.37499460869003
aI31
aI119
aI2
ag288
aa(lp2224
F0.55470893043639
aI31
aI0
aI2
ag290
aa(lp2225
F0.41298512422145
aI34
aI119
aI2
ag292
aa(lp2226
F0.58854320305181
aI34
aI0
aI2
ag294
aa(lp2227
F0.36533777066143
aI34
aI119
aI2
ag296
aa(lp2228
F0.65962734783716
aI34
aI0
aI2
ag298
aa(lp2229
F0.35414563783161
aI38
aI118
aI2
ag300
aa(lp2230
F0.61388542033637
aI38
aI0
aI2
ag302
aa(lp2231
F0.41371023690226
aI38
aI114
aI2
ag304
aa(lp2232
F0.52998468849728
aI38
aI0
aI2
ag306
aa(lp2233
F0.4588926589422
aI41
aI116
aI2
ag308
aa(lp2234
F0.57787481817286
aI41
aI0
aI2
ag310
aa(lp2235
F0.39913224985867
aI41
aI118
aI2
ag312
aa(lp2236
F0.62391759732236
aI41
aI0
aI2
ag314
aa(lp2237
F0.42530713404085
aI41
aI118
aI2
ag316
aa(lp2238
F0.57624981636582
aI41
aI0
aI2
ag318
aa(lp2239
F0.37719409679812
aI41
aI114
aI2
ag320
aa(lp2240
F0.60124674426152
aI41
aI0
aI2
ag322
aa(lp2241
F0.42412904480079
aI40
aI120
aI2
ag324
aa(lp2242
F0.61248502294075
aI40
aI0
aI2
ag326
aa(lp2243
F0.38835218247186
aI40
aI123
aI2
ag328
aa(lp2244
F0.64846973313433
aI40
aI0
aI2
ag330
aa(lp2245
F0.40124431819277
aI40
aI123
aI2
ag332
aa(lp2246
F0.59952362788317
aI40
aI0
aI2
ag334
aa(lp2247
F0.39015781965281
aI40
aI123
aI2
ag336
aa(lp2248
F0.29395246550484
aI40
aI0
aI2
ag338
aa(lp2249
F0.11995432444746
aI0
aI0
aI0
ag340
aaaI0
a(lp2250
(lp2251
F0.5
aI38
aI120
aI3
ag343
aa(lp2252
F0.95324115163658
aI38
aI0
aI3
ag345
aa(lp2253
F1.0467588483634
aI38
aI115
aI3
ag347
aa(lp2254
F1.1735155769238
aI38
aI0
aI3
ag349
aa(lp2255
F0.82648442307618
aI38
aI120
aI3
ag351
aa(lp2256
F1.2662785580997
aI38
aI0
aI3
ag353
aa(lp2257
F0.73372144190034
aI38
aI120
aI3
ag355
aa(lp2258
F1.1735331852788
aI38
aI0
aI3
ag357
aa(lp2259
F0.32646681472124
aI0
aI0
aI0
ag359
aaa(lp2260
(lp2261
F0.75710982805776
aI38
aI108
aI3
ag362
aa(lp2262
F2.3654799207807
aI38
aI0
aI3
ag364
aa(lp2263
F1.1181690560325
aI38
aI107
aI3
ag366
aa(lp2264
F3.2891501871936
aI38
aI0
aI3
ag368
aa(lp2265
F0.47009100793548
aI0
aI0
aI0
ag370
aaaI0
aI0
aI0
a(lp2266
(lp2267
F0.5
aI31
aI120
aI2
ag373
aa(lp2268
F0.4579300940004
aI31
aI0
aI2
ag375
aa(lp2269
F0.5420699059996
aI31
aI120
aI2
ag377
aa(lp2270
F0.54177763200005
aI31
aI0
aI2
ag379
aa(lp2271
F0.45822236799995
aI31
aI121
aI2
ag381
aa(lp2272
F0.59366601999955
aI31
aI0
aI2
ag383
aa(lp2273
F0.40633398000045
aI31
aI118
aI2
ag385
aa(lp2274
F0.55593204599973
aI31
aI0
aI2
ag387
aa(lp2275
F0.44406795400027
aI34
aI120
aI2
ag389
aa(lp2276
F0.60656612799994
aI34
aI0
aI2
ag391
aa(lp2277
F0.39343387200006
aI34
aI117
aI2
ag393
aa(lp2278
F0.55493520999971
aI34
aI0
aI2
ag395
aa(lp2279
F0.44506479000029
aI37
aI123
aI2
ag397
aa(lp2280
F0.58670086599977
aI37
aI0
aI2
ag399
aa(lp2281
F0.41329913400023
aI37
aI123
aI2
ag401
aa(lp2282
F0.41736095200031
aI37
aI0
aI2
ag403
aa(lp2283
F0.082639047999692
aI0
aI0
aI0
ag405
aaaI0
a(lp2284
(lp2285
F0.012034010000207
aI31
aI95
aI2
ag408
aa(lp2286
F14.722928938
aI31
aI0
aI2
ag410
aa(lp2287
F0.1785338640002
aI29
aI71
aI2
ag412
aa(lp2288
F0.84932248999985
aI29
aI0
aI2
ag414
aa(lp2289
F0.23718069799997
aI0
aI0
aI0
ag416
aaa(lp2290
(lp2291
F0.0
aI36
aI110
aI3
ag419
aa(lp2292
F0.09875165837957
aI36
aI0
aI3
ag421
aa(lp2293
F0.90124834162043
aI36
aI110
aI3
ag423
aa(lp2294
F0.189526997332
aI36
aI0
aI3
ag425
aa(lp2295
F0.310473002668
aI37
aI113
aI3
ag427
aa(lp2296
F0.18934270846466
aI37
aI0
aI3
ag429
aa(lp2297
F0.31065729153534
aI36
aI103
aI3
ag431
aa(lp2298
F0.19110574135993
aI36
aI0
aI3
ag433
aa(lp2299
F0.80889425864007
aI36
aI111
aI3
ag435
aa(lp2300
F0.0631531828476
aI36
aI0
aI3
ag437
aa(lp2301
F0.9368468171524
aI36
aI114
aI3
ag439
aa(lp2302
F0.06266905209759
aI36
aI0
aI3
ag441
aa(lp2303
F0.77066428123574
aI37
aI106
aI3
ag443
aa(lp2304
F0.11366263007494
aI37
aI0
aI3
ag445
aa(lp2305
F0.053004036591726
aI36
aI112
aI3
ag447
aa(lp2306
F0.20214247313697
aI36
aI0
aI3
ag449
aa(lp2307
F0.29785752686303
aI37
aI103
aI3
ag451
aa(lp2308
F0.19057670350958
aI37
aI0
aI3
ag453
aa(lp2309
F0.30942329649042
aI36
aI105
aI3
ag455
aa(lp2310
F0.17599373070789
aI36
aI0
aI3
ag457
aa(lp2311
F0.82400626929211
aI36
aI113
aI3
ag459
aa(lp2312
F0.16377330553769
aI36
aI0
aI3
ag461
aa(lp2313
F0.83622669446231
aI0
aI0
aI0
ag463
aaa(lp2314
(lp2315
F0.5
aI39
aI120
aI3
ag466
aa(lp2316
F1.2130195609689
aI39
aI0
aI3
ag468
aa(lp2317
F2.7869804390311
aI39
aI120
aI3
ag470
aa(lp2318
F2.8641439850353
aI39
aI0
aI3
ag472
aa(lp2319
F0.6358560149647
aI0
aI0
aI0
ag474
aaaI0
aI0
a(lp2320
(lp2321
F0.0
aI40
aI112
aI3
ag477
aa(lp2322
F0.31419171476773
aI40
aI0
aI3
ag479
aa(lp2323
F0.68580828523227
aI40
aI113
aI3
ag481
aa(lp2324
F0.27811283583014
aI40
aI0
aI3
ag483
aa(lp2325
F0.22188716416986
aI41
aI118
aI3
ag485
aa(lp2326
F0.30320181223397
aI41
aI0
aI3
ag487
aa(lp2327
F0.19679818776603
aI40
aI115
aI3
ag489
aa(lp2328
F0.34153087566847
aI40
aI0
aI3
ag491
aa(lp2329
F0.65846912433153
aI40
aI107
aI3
ag493
aa(lp2330
F0.42871611829742
aI40
aI0
aI3
ag495
aa(lp2331
F0.57128388170258
aI40
aI112
aI3
ag497
aa(lp2332
F0.29094403329873
aI40
aI0
aI3
ag499
aa(lp2333
F0.5423893000346
aI41
aI116
aI3
ag501
aa(lp2334
F0.16444267898169
aI41
aI0
aI3
ag503
aa(lp2335
F0.0022239876849808
aI40
aI114
aI3
ag505
aa(lp2336
F0.2149932856164
aI40
aI0
aI3
ag507
aa(lp2337
F0.2850067143836
aI41
aI116
aI3
ag509
aa(lp2338
F0.21404902431277
aI41
aI0
aI3
ag511
aa(lp2339
F0.28595097568723
aI40
aI115
aI3
ag513
aa(lp2340
F0.30434995568339
aI40
aI0
aI3
ag515
aa(lp2341
F0.69565004431661
aI40
aI111
aI3
ag517
aa(lp2342
F0.22751237910143
aI40
aI0
aI3
ag519
aa(lp2343
F0.77248762089857
aI0
aI0
aI0
ag521
aaaI0
aI0
aI0
aI0
aI0
aI0
aI0
aI0
aI0
a(lp2344
(lp2345
F0.015020120144072
aI61
aI90
aI0
ag524
aa(lp2346
F1.7885518858557
aI61
aI0
aI0
ag526
aa(lp2347
F0.094635222000761
aI60
aI105
aI0
ag528
aa(lp2348
F1.8938977119997
aI60
aI0
aI0
ag530
aa(lp2349
F0.10426414599988
aI58
aI101
aI0
ag532
aa(lp2350
F1.8214214380005
aI58
aI0
aI0
ag534
aa(lp2351
F0.083368375999271
aI57
aI89
aI0
ag536
aa(lp2352
F2.1111848440005
aI58
aI115
aI0
ag538
aa(lp2353
F0.064233097999931
aI57
aI0
aI0
ag540
aa(lp2354
F1.8592501359999
aI58
aI0
aI0
ag542
aa(lp2355
F0.022156504000122
aI60
aI79
aI0
ag544
aa(lp2356
F1.9033657479995
aI60
aI0
aI0
ag546
aa(lp2357
F0.14754592200006
aI61
aI97
aI0
ag548
aa(lp2358
F10.825497972
aI61
aI0
aI0
ag550
aa(lp2359
F0.10328673799995
aI60
aI100
aI0
ag552
aa(lp2360
F1.0228053399996
aI60
aI0
aI0
ag554
aa(lp2361
F0.052667068000119
aI61
aI91
aI0
ag556
aa(lp2362
F7.5706585360003
aI61
aI0
aI0
ag558
aa(lp2363
F0.51618919399971
aI0
aI0
aI0
ag560
aaa(lp2364
(lp2365
F0.045097690000148
aI58
aI98
aI0
ag563
aa(lp2366
F1.9046672579998
aI57
aI79
aI0
ag565
aa(lp2367
F0.054284009999719
aI58
aI0
aI0
ag567
aa(lp2368
F1.9845449280001
aI55
aI95
aI0
ag569
aa(lp2369
F0.14619941199999
aI57
aI0
aI0
ag571
aa(lp2370
F1.7025473780004
aI53
aI92
aI0
ag573
aa(lp2371
F0.084052751999479
aI55
aI0
aI0
ag575
aa(lp2372
F2.0887314420006
aI50
aI94
aI0
ag577
aa(lp2373
F0.063405133999368
aI53
aI0
aI0
ag579
aa(lp2374
F1.8726375000006
aI57
aI105
aI0
ag581
aa(lp2375
F0.10549162999996
aI50
aI0
aI0
ag583
aa(lp2376
F1.9022475880001
aI55
aI98
aI0
ag585
aa(lp2377
F0.1140655979998
aI57
aI0
aI0
ag587
aa(lp2378
F10.906989492
aI55
aI0
aI0
ag589
aa(lp2379
F0.0091836859992327
aI53
aI88
aI0
ag591
aa(lp2380
F0.97294694000084
aI53
aI0
aI0
ag593
aa(lp2381
F0.00019982199955848
aI55
aI98
aI0
ag595
aa(lp2382
F7.3306846160003
aI55
aI0
aI0
ag597
aa(lp2383
F0.71202312399964
aI0
aI0
aI0
ag599
aaaI0
aI0
aI0
aI0
aI0
aI0
aI0
aI0
aI0
aI0
aI0
aI0
aI0
aI0
aI0
aI0
aI0
aI0
aI0
aI0
aI0
aI0
aI0
aI0
aI0
aI0
aI0
aI0
aI0
aI0
aI0
aI0
aI0
aI0
aI0
aI0
aI0
aI0
aI0
aI0
aI0
aI0
aI0
aI0
aI0
aI0
aI0
aI0
aI0
aI0
aI0
aa(lp2384
(dp2385
a(dp2386
g603
I31
sg604
I1
sa(dp2387
a(dp2388
g603
I33
sg604
I0
sa(dp2389
g603
I34
sg604
I0
sa(dp2390
a(dp2391
g603
I36
sg604
I0
sa(dp2392
g603
I37
sg604
I0
sa(dp2393
g603
I38
sg604
I0
sa(dp2394
a(dp2395
a(dp2396
g603
I43
sg604
I0
sa(dp2397
g603
I44
sg604
I1
sa(dp2398
a(dp2399
a(dp2400
a(dp2401
a(dp2402
a(dp2403
a(dp2404
a(dp2405
a(dp2406
a(dp2407
g603
I56
sg604
I0
sa(dp2408
g603
I57
sg604
I0
sa(dp2409
a(dp2410
g603
I61
sg604
I1
sa(dp2411
g603
I62
sg604
I0
sa(dp2412
a(dp2413
a(dp2414
a(dp2415
g634
I66
sg635
I0
sa(dp2416
a(dp2417
g634
I68
sg635
I1
sa(dp2418
g603
I71
sg604
I0
sa(dp2419
g603
I72
sg604
I0
sa(dp2420
a(dp2421
a(dp2422
g603
I75
sg604
I0
sa(dp2423
a(dp2424
a(dp2425
a(dp2426
a(dp2427
a(dp2428
a(dp2429
a(dp2430
a(dp2431
a(dp2432
g634
I87
sg635
I0
sa(dp2433
g634
I88
sg635
I0
sa(dp2434
a(dp2435
a(dp2436
a(dp2437
a(dp2438
a(dp2439
a(dp2440
a(dp2441
a(dp2442
a(dp2443
a(dp2444
a(dp2445
a(dp2446
a(dp2447
a(dp2448
a(dp2449
a(dp2450
a(dp2451
a(dp2452
a(dp2453
a(dp2454
a(dp2455
a(dp2456
a(dp2457
a(dp2458
a(dp2459
a(dp2460
a(dp2461
a(dp2462
a(dp2463
a(dp2464
a(dp2465
a(dp2466
a(dp2467
a(dp2468
a(dp2469
a(dp2470
a(dp2471
a(dp2472
a(dp2473
a(dp2474
a(dp2475
a(dp2476
a(dp2477
a(dp2478
a(dp2479
a(dp2480
a(dp2481
a(dp2482
a(dp2483
a(dp2484
aa(lp2485
I60
aI60
aI36
aI36
aa(lp2486
(lp2487
I0
aI2
aI3
aI5
aI7
aI8
aI10
aa(lp2488
I0
aI2
aI3
aI5
aI7
aI8
aI10
aa(lp2489
I0
aI2
aI3
aI5
aI7
aI8
aI10
aa(lp2490
I0
aI2
aI3
aI5
aI7
aI8
aI10
aa(lp2491
I0
aI2
aI3
aI5
aI7
aI8
aI10
aa(lp2492
I0
aI1
aI2
aI3
aI4
aI5
aI6
aI7
aI8
aI9
aI10
aI11
aaa(lp2493
(lp2494
(lp2495
I0
aI0
aI0
aI0
aI0
aI0
aI0
aI0
aI0
aI0
aI0
aI0
aa(lp2496
I0
aI0
aI0
aI0
aI0
aI0
aI0
aI0
aI0
aI0
aI0
aI0
aa(lp2497
I0
aI0
aI0
aI0
aI0
aI0
aI0
aI0
aI0
aI0
aI0
aI0
aa(lp2498
I0
aI0
aI0
aI0
aI0
aI0
aI0
aI0
aI0
aI0
aI0
aI0
aaa(lp2499
(lp2500
I0
aI0
aI0
aI0
aI0
aI0
aI0
aI0
aI0
aI0
aI0
aI0
aa(lp2501
I0
aI0
aI0
aI0
aI0
aI0
aI0
aI0
aI0
aI0
aI0
aI0
aa(lp2502
I0
aI0
aI0
aI0
aI0
aI0
aI0
aI0
aI0
aI0
aI0
aI0
aa(lp2503
I0
aI0
aI0
aI0
aI0
aI0
aI0
aI0
aI0
aI0
aI0
aI0
aaa(lp2504
(lp2505
I0
aI0
aI0
aI0
aI0
aI0
aI0
aI0
aI0
aI0
aI0
aI0
aa(lp2506
I0
aI0
aI0
aI0
aI0
aI0
aI0
aI0
aI0
aI0
aI0
aI0
aa(lp2507
I0
aI0
aI0
aI0
aI0
aI0
aI0
aI0
aI0
aI0
aI0
aI0
aa(lp2508
I0
aI0
aI0
aI0
aI0
aI0
aI0
aI0
aI0
aI0
aI0
aI0
aaa(lp2509
(lp2510
I0
aI0
aI0
aI0
aI0
aI0
aI0
aI0
aI0
aI0
aI0
aI0
aa(lp2511
I0
aI0
aI0
aI0
aI0
aI0
aI0
aI0
aI0
aI0
aI0
aI0
aa(lp2512
I0
aI0
aI0
aI0
aI0
aI0
aI0
aI0
aI0
aI0
aI0
aI0
aa(lp2513
I0
aI0
aI0
aI0
aI0
aI0
aI0
aI0
aI0
aI0
aI0
aI0
aaaa(lp2514
(lp2515
I0
aI0
aI0
aI0
aI0
aI0
aI0
aI0
aI0
aI0
aI0
aI0
aa(lp2516
I0
aI0
aI0
aI0
aI0
aI0
aI0
aI0
aI0
aI0
aI0
aI0
aa(lp2517
I0
aI0
aI0
aI0
aI0
aI0
aI0
aI0
aI0
aI0
aI0
aI0
aa(lp2518
I0
aI0
aI0
aI0
aI0
aI0
aI0
aI0
aI0
aI0
aI0
aI0
aaaa(lp2519
(lp2520
I0
a(lp2521
(lp2522
F0.0
aI31
aI99
aI3
ag5
aa(lp2523
F0.65891966590061
aI31
aI0
aI3
ag7
aa(lp2524
F0.34108033409939
aI31
aI103
aI3
ag9
aa(lp2525
F0.69522106402292
aI31
aI0
aI3
ag11
aa(lp2526
F0.30477893597708
aI31
aI99
aI3
ag13
aa(lp2527
F0.69438935178641
aI31
aI0
aI3
ag15
aa(lp2528
F0.30561064821359
aI31
aI110
aI3
ag17
aa(lp2529
F0.65623286085247
aI31
aI0
aI3
ag19
aa(lp2530
F0.34376713914753
aI0
aI0
aI0
ag21
aaaI0
a(lp2531
(lp2532
F0.5
aI35
aI108
aI3
ag24
aa(lp2533
F0.30620387969975
aI35
aI0
aI3
ag26
aa(lp2534
F0.52712945363358
aI34
aI112
aI3
ag28
aa(lp2535
F0.24786790991675
aI34
aI0
aI3
ag30
aa(lp2536
F0.25213209008325
aI33
aI112
aI3
ag32
aa(lp2537
F1.5793990982747
aI33
aI0
aI3
ag34
aa(lp2538
F0.58726756839193
aI0
aI0
aI0
ag36
aaa(lp2539
(lp2540
F2.5
aI32
aI116
aI3
ag39
aa(lp2541
F0.46043987666417
aI32
aI0
aI3
ag41
aa(lp2542
F3.5395601233358
aI32
aI116
aI3
ag43
aa(lp2543
F0.18851552586784
aI32
aI0
aI3
ag45
aa(lp2544
F0.31148447413216
aI32
aI121
aI3
ag47
aa(lp2545
F0.48404598876914
aI32
aI0
aI3
ag49
aa(lp2546
F0.51595401123086
aI0
aI0
aI0
ag51
aaaI0
a(lp2547
(lp2548
F0.022280124010649
aI67
aI114
aI1
ag54
aa(lp2549
F31.804039500968
aI67
aI0
aI1
ag56
aa(lp2550
F0.17368037502092
aI0
aI0
aI0
ag58
aaa(lp2551
(lp2552
F0.038942152919844
aI74
aI90
aI1
ag61
aa(lp2553
F8.0116228372208
aI72
aI79
aI1
ag63
aa(lp2554
F0.094126738064006
aI74
aI0
aI1
ag65
aa(lp2555
F7.8880592366149
aI70
aI89
aI1
ag67
aa(lp2556
F0.093149186541268
aI72
aI0
aI1
ag69
aa(lp2557
F7.7568202098737
aI77
aI91
aI1
ag71
aa(lp2558
F0.059425325498523
aI70
aI0
aI1
ag73
aa(lp2559
F4.0362970412316
aI76
aI93
aI1
ag75
aa(lp2560
F0.070295431150953
aI77
aI0
aI1
ag77
aa(lp2561
F1.7330733408453
aI72
aI110
aI1
ag79
aa(lp2562
F0.058033331162733
aI76
aI0
aI1
ag81
aa(lp2563
F1.9785055260199
aI72
aI0
aI1
ag83
aa(lp2564
F0.18164964285643
aI0
aI0
aI0
ag85
aaa(lp2565
(lp2566
F0.1456310114736
aI81
aI118
aI1
ag88
aa(lp2567
F15.787790768061
aI81
aI0
aI1
ag90
aa(lp2568
F0.11686472997644
aI79
aI114
aI1
ag92
aa(lp2569
F15.734362672298
aI79
aI0
aI1
ag94
aa(lp2570
F0.082417115072531
aI82
aI108
aI1
ag96
aa(lp2571
F16.107255950279
aI84
aI100
aI1
ag98
aa(lp2572
F0.10505749042022
aI82
aI0
aI1
ag100
aa(lp2573
F15.910620262419
aI84
aI0
aI1
ag102
aa(lp2574
F0.010000000000218
aI0
aI0
aI0
ag104
aaaI0
aI0
a(lp2575
(lp2576
F0.5
aI26
aI112
aI3
ag107
aa(lp2577
F0.13974191692978
aI26
aI0
aI3
ag109
aa(lp2578
F0.36025808307022
aI35
aI110
aI3
ag111
aa(lp2579
F0.17630939709125
aI35
aI0
aI3
ag113
aa(lp2580
F0.32369060290875
aI34
aI115
aI3
ag115
aa(lp2581
F0.17749105834264
aI34
aI0
aI3
ag117
aa(lp2582
F0.32250894165736
aI33
aI114
aI3
ag119
aa(lp2583
F0.25283057809429
aI33
aI0
aI3
ag121
aa(lp2584
F0.58050275523904
aI34
aI119
aI3
ag123
aa(lp2585
F0.22297643197271
aI34
aI0
aI3
ag125
aa(lp2586
F0.44369023469396
aI35
aI116
aI3
ag127
aa(lp2587
F0.27882346488877
aI35
aI0
aI3
ag129
aa(lp2588
F0.55450986844456
aI26
aI118
aI3
ag131
aa(lp2589
F0.21446112910598
aI26
aI0
aI3
ag133
aa(lp2590
F0.45220553756068
aI35
aI116
aI3
ag135
aa(lp2591
F2.0478544536672
aI35
aI0
aI3
ag137
aa(lp2592
F0.95214554633276
aI0
aI0
aI0
ag139
aaa(lp2593
(lp2594
F0.5
aI30
aI114
aI3
ag142
aa(lp2595
F0.14987270940765
aI30
aI0
aI3
ag144
aa(lp2596
F0.35012729059235
aI29
aI113
aI3
ag146
aa(lp2597
F0.15767134934322
aI29
aI0
aI3
ag148
aa(lp2598
F0.34232865065678
aI28
aI116
aI3
ag150
aa(lp2599
F0.15833204835326
aI28
aI0
aI3
ag152
aa(lp2600
F0.34166795164674
aI27
aI118
aI3
ag154
aa(lp2601
F0.25000905072557
aI27
aI0
aI3
ag156
aa(lp2602
F0.58332428260777
aI28
aI117
aI3
ag158
aa(lp2603
F0.25239797534414
aI28
aI0
aI3
ag160
aa(lp2604
F0.41426869132253
aI29
aI114
aI3
ag162
aa(lp2605
F0.28990001202874
aI29
aI0
aI3
ag164
aa(lp2606
F0.54343332130459
aI30
aI116
aI3
ag166
aa(lp2607
F0.28897668218269
aI30
aI0
aI3
ag168
aa(lp2608
F0.37768998448397
aI29
aI116
aI3
ag170
aa(lp2609
F2.406297322781
aI29
aI0
aI3
ag172
aa(lp2610
F0.59370267721897
aI0
aI0
aI0
ag174
aaaI0
aI0
aI0
aI0
aI0
aI0
aI0
aI0
aI0
a(lp2611
(lp2612
F0.56421944935209
aI31
aI121
aI2
ag177
aa(lp2613
F0.613302803642
aI31
aI0
aI2
ag179
aa(lp2614
F0.33082235890106
aI31
aI119
aI2
ag181
aa(lp2615
F0.65821710743876
aI31
aI0
aI2
ag183
aa(lp2616
F0.38889901010589
aI31
aI118
aI2
ag185
aa(lp2617
F0.67216875888516
aI31
aI0
aI2
ag187
aa(lp2618
F0.33263003994944
aI31
aI116
aI2
ag189
aa(lp2619
F0.53831089549749
aI31
aI0
aI2
ag191
aa(lp2620
F0.48315048032055
aI34
aI114
aI2
ag193
aa(lp2621
F0.61179574664311
aI34
aI0
aI2
ag195
aa(lp2622
F0.3422095874048
aI34
aI111
aI2
ag197
aa(lp2623
F0.58831229353018
aI34
aI0
aI2
ag199
aa(lp2624
F0.39061991361268
aI38
aI110
aI2
ag201
aa(lp2625
F0.69349057484578
aI38
aI0
aI2
ag203
aa(lp2626
F0.3548961760207
aI38
aI119
aI2
ag205
aa(lp2627
F0.42695480385009
aI38
aI0
aI2
ag207
aa(lp2628
F0.010000000000218
aI0
aI0
aI0
ag209
aaa(lp2629
(lp2630
F0.49227794327635
aI31
aI114
aI2
ag212
aa(lp2631
F0.65913780027586
aI31
aI0
aI2
ag214
aa(lp2632
F0.2713360914986
aI31
aI117
aI2
ag216
aa(lp2633
F0.63601774967174
aI31
aI0
aI2
ag218
aa(lp2634
F0.36534356198717
aI31
aI121
aI2
ag220
aa(lp2635
F0.67017547363503
aI31
aI0
aI2
ag222
aa(lp2636
F0.36410229318244
aI31
aI120
aI2
ag224
aa(lp2637
F0.67049590087481
aI31
aI0
aI2
ag226
aa(lp2638
F0.38801378859171
aI34
aI117
aI2
ag228
aa(lp2639
F0.60116991338327
aI34
aI0
aI2
ag230
aa(lp2640
F0.37638399355092
aI34
aI118
aI2
ag232
aa(lp2641
F0.60135992305004
aI34
aI0
aI2
ag234
aa(lp2642
F0.43568852815588
aI38
aI118
aI2
ag236
aa(lp2643
F0.62536045169327
aI38
aI0
aI2
ag238
aa(lp2644
F0.3523185479462
aI38
aI119
aI2
ag240
aa(lp2645
F0.66080311603946
aI38
aI0
aI2
ag242
aa(lp2646
F0.42338002542601
aI31
aI120
aI2
ag244
aa(lp2647
F0.50707978463106
aI31
aI0
aI2
ag246
aa(lp2648
F0.41300469305497
aI31
aI120
aI2
ag248
aa(lp2649
F0.66051729255196
aI31
aI0
aI2
ag250
aa(lp2650
F0.35301780470763
aI31
aI121
aI2
ag252
aa(lp2651
F0.63722350658827
aI31
aI0
aI2
ag254
aa(lp2652
F0.38958028670822
aI31
aI120
aI2
ag256
aa(lp2653
F0.61320317926584
aI31
aI0
aI2
ag258
aa(lp2654
F0.38829588038789
aI34
aI118
aI2
ag260
aa(lp2655
F0.6128501042549
aI34
aI0
aI2
ag262
aa(lp2656
F0.30746015413388
aI34
aI120
aI2
ag264
aa(lp2657
F0.63522598938471
aI34
aI0
aI2
ag266
aa(lp2658
F0.39085507987329
aI38
aI121
aI2
ag268
aa(lp2659
F0.59858158148927
aI38
aI0
aI2
ag270
aa(lp2660
F0.38746703306606
aI38
aI120
aI2
ag272
aa(lp2661
F0.66093472567809
aI38
aI0
aI2
ag274
aa(lp2662
F0.41287520840524
aI31
aI122
aI2
ag276
aa(lp2663
F0.62245907256147
aI31
aI0
aI2
ag278
aa(lp2664
F0.40160050970371
aI31
aI120
aI2
ag280
aa(lp2665
F0.60125549435361
aI31
aI0
aI2
ag282
aa(lp2666
F0.41237103379535
aI31
aI120
aI2
ag284
aa(lp2667
F0.61476985990885
aI31
aI0
aI2
ag286
aa(lp2668
F0.37499460869003
aI31
aI119
aI2
ag288
aa(lp2669
F0.55470893043639
aI31
aI0
aI2
ag290
aa(lp2670
F0.41298512422145
aI34
aI119
aI2
ag292
aa(lp2671
F0.58854320305181
aI34
aI0
aI2
ag294
aa(lp2672
F0.36533777066143
aI34
aI119
aI2
ag296
aa(lp2673
F0.65962734783716
aI34
aI0
aI2
ag298
aa(lp2674
F0.35414563783161
aI38
aI118
aI2
ag300
aa(lp2675
F0.61388542033637
aI38
aI0
aI2
ag302
aa(lp2676
F0.41371023690226
aI38
aI114
aI2
ag304
aa(lp2677
F0.52998468849728
aI38
aI0
aI2
ag306
aa(lp2678
F0.4588926589422
aI41
aI116
aI2
ag308
aa(lp2679
F0.57787481817286
aI41
aI0
aI2
ag310
aa(lp2680
F0.39913224985867
aI41
aI118
aI2
ag312
aa(lp2681
F0.62391759732236
aI41
aI0
aI2
ag314
aa(lp2682
F0.42530713404085
aI41
aI118
aI2
ag316
aa(lp2683
F0.57624981636582
aI41
aI0
aI2
ag318
aa(lp2684
F0.37719409679812
aI41
aI114
aI2
ag320
aa(lp2685
F0.60124674426152
aI41
aI0
aI2
ag322
aa(lp2686
F0.42412904480079
aI40
aI120
aI2
ag324
aa(lp2687
F0.61248502294075
aI40
aI0
aI2
ag326
aa(lp2688
F0.38835218247186
aI40
aI123
aI2
ag328
aa(lp2689
F0.64846973313433
aI40
aI0
aI2
ag330
aa(lp2690
F0.40124431819277
aI40
aI123
aI2
ag332
aa(lp2691
F0.59952362788317
aI40
aI0
aI2
ag334
aa(lp2692
F0.39015781965281
aI40
aI123
aI2
ag336
aa(lp2693
F0.29395246550484
aI40
aI0
aI2
ag338
aa(lp2694
F0.11995432444746
aI0
aI0
aI0
ag340
aaaI0
a(lp2695
(lp2696
F0.5
aI38
aI120
aI3
ag343
aa(lp2697
F0.95324115163658
aI38
aI0
aI3
ag345
aa(lp2698
F1.0467588483634
aI38
aI115
aI3
ag347
aa(lp2699
F1.1735155769238
aI38
aI0
aI3
ag349
aa(lp2700
F0.82648442307618
aI38
aI120
aI3
ag351
aa(lp2701
F1.2662785580997
aI38
aI0
aI3
ag353
aa(lp2702
F0.73372144190034
aI38
aI120
aI3
ag355
aa(lp2703
F1.1735331852788
aI38
aI0
aI3
ag357
aa(lp2704
F0.32646681472124
aI0
aI0
aI0
ag359
aaa(lp2705
(lp2706
F0.75710982805776
aI38
aI108
aI3
ag362
aa(lp2707
F2.3654799207807
aI38
aI0
aI3
ag364
aa(lp2708
F1.1181690560325
aI38
aI107
aI3
ag366
aa(lp2709
F3.2891501871936
aI38
aI0
aI3
ag368
aa(lp2710
F0.47009100793548
aI0
aI0
aI0
ag370
aaaI0
aI0
aI0
a(lp2711
(lp2712
F0.5
aI31
aI120
aI2
ag373
aa(lp2713
F0.4579300940004
aI31
aI0
aI2
ag375
aa(lp2714
F0.5420699059996
aI31
aI120
aI2
ag377
aa(lp2715
F0.54177763200005
aI31
aI0
aI2
ag379
aa(lp2716
F0.45822236799995
aI31
aI121
aI2
ag381
aa(lp2717
F0.59366601999955
aI31
aI0
aI2
ag383
aa(lp2718
F0.40633398000045
aI31
aI118
aI2
ag385
aa(lp2719
F0.55593204599973
aI31
aI0
aI2
ag387
aa(lp2720
F0.44406795400027
aI34
aI120
aI2
ag389
aa(lp2721
F0.60656612799994
aI34
aI0
aI2
ag391
aa(lp2722
F0.39343387200006
aI34
aI117
aI2
ag393
aa(lp2723
F0.55493520999971
aI34
aI0
aI2
ag395
aa(lp2724
F0.44506479000029
aI37
aI123
aI2
ag397
aa(lp2725
F0.58670086599977
aI37
aI0
aI2
ag399
aa(lp2726
F0.41329913400023
aI37
aI123
aI2
ag401
aa(lp2727
F0.41736095200031
aI37
aI0
aI2
ag403
aa(lp2728
F0.082639047999692
aI0
aI0
aI0
ag405
aaaI0
a(lp2729
(lp2730
F0.012034010000207
aI31
aI95
aI2
ag408
aa(lp2731
F14.722928938
aI31
aI0
aI2
ag410
aa(lp2732
F0.1785338640002
aI29
aI71
aI2
ag412
aa(lp2733
F0.84932248999985
aI29
aI0
aI2
ag414
aa(lp2734
F0.23718069799997
aI0
aI0
aI0
ag416
aaa(lp2735
(lp2736
F0.0
aI36
aI110
aI3
ag419
aa(lp2737
F0.09875165837957
aI36
aI0
aI3
ag421
aa(lp2738
F0.90124834162043
aI36
aI110
aI3
ag423
aa(lp2739
F0.189526997332
aI36
aI0
aI3
ag425
aa(lp2740
F0.310473002668
aI37
aI113
aI3
ag427
aa(lp2741
F0.18934270846466
aI37
aI0
aI3
ag429
aa(lp2742
F0.31065729153534
aI36
aI103
aI3
ag431
aa(lp2743
F0.19110574135993
aI36
aI0
aI3
ag433
aa(lp2744
F0.80889425864007
aI36
aI111
aI3
ag435
aa(lp2745
F0.0631531828476
aI36
aI0
aI3
ag437
aa(lp2746
F0.9368468171524
aI36
aI114
aI3
ag439
aa(lp2747
F0.06266905209759
aI36
aI0
aI3
ag441
aa(lp2748
F0.77066428123574
aI37
aI106
aI3
ag443
aa(lp2749
F0.11366263007494
aI37
aI0
aI3
ag445
aa(lp2750
F0.053004036591726
aI36
aI112
aI3
ag447
aa(lp2751
F0.20214247313697
aI36
aI0
aI3
ag449
aa(lp2752
F0.29785752686303
aI37
aI103
aI3
ag451
aa(lp2753
F0.19057670350958
aI37
aI0
aI3
ag453
aa(lp2754
F0.30942329649042
aI36
aI105
aI3
ag455
aa(lp2755
F0.17599373070789
aI36
aI0
aI3
ag457
aa(lp2756
F0.82400626929211
aI36
aI113
aI3
ag459
aa(lp2757
F0.16377330553769
aI36
aI0
aI3
ag461
aa(lp2758
F0.83622669446231
aI0
aI0
aI0
ag463
aaa(lp2759
(lp2760
F0.5
aI39
aI120
aI3
ag466
aa(lp2761
F1.2130195609689
aI39
aI0
aI3
ag468
aa(lp2762
F2.7869804390311
aI39
aI120
aI3
ag470
aa(lp2763
F2.8641439850353
aI39
aI0
aI3
ag472
aa(lp2764
F0.6358560149647
aI0
aI0
aI0
ag474
aaaI0
aI0
a(lp2765
(lp2766
F0.0
aI40
aI112
aI3
ag477
aa(lp2767
F0.31419171476773
aI40
aI0
aI3
ag479
aa(lp2768
F0.68580828523227
aI40
aI113
aI3
ag481
aa(lp2769
F0.27811283583014
aI40
aI0
aI3
ag483
aa(lp2770
F0.22188716416986
aI41
aI118
aI3
ag485
aa(lp2771
F0.30320181223397
aI41
aI0
aI3
ag487
aa(lp2772
F0.19679818776603
aI40
aI115
aI3
ag489
aa(lp2773
F0.34153087566847
aI40
aI0
aI3
ag491
aa(lp2774
F0.65846912433153
aI40
aI107
aI3
ag493
aa(lp2775
F0.42871611829742
aI40
aI0
aI3
ag495
aa(lp2776
F0.57128388170258
aI40
aI112
aI3
ag497
aa(lp2777
F0.29094403329873
aI40
aI0
aI3
ag499
aa(lp2778
F0.5423893000346
aI41
aI116
aI3
ag501
aa(lp2779
F0.16444267898169
aI41
aI0
aI3
ag503
aa(lp2780
F0.0022239876849808
aI40
aI114
aI3
ag505
aa(lp2781
F0.2149932856164
aI40
aI0
aI3
ag507
aa(lp2782
F0.2850067143836
aI41
aI116
aI3
ag509
aa(lp2783
F0.21404902431277
aI41
aI0
aI3
ag511
aa(lp2784
F0.28595097568723
aI40
aI115
aI3
ag513
aa(lp2785
F0.30434995568339
aI40
aI0
aI3
ag515
aa(lp2786
F0.69565004431661
aI40
aI111
aI3
ag517
aa(lp2787
F0.22751237910143
aI40
aI0
aI3
ag519
aa(lp2788
F0.77248762089857
aI0
aI0
aI0
ag521
aaaI0
aI0
aI0
aI0
aI0
aI0
a(lp2789
(lp2790
F0.030619083999682
aI60
aI104
aI0
aS'on'
p2791
aa(lp2792
F3.975159606
aI62
aI99
aI0
aS'on'
p2793
aa(lp2794
F0.05260366199991
aI60
aI0
aI0
aS'off'
p2795
aa(lp2796
F3.8811571780002
aI65
aI105
aI0
aS'on'
p2797
aa(lp2798
F0.06505818200003
aI62
aI0
aI0
aS'off'
p2799
aa(lp2800
F3.7518385479998
aI58
aI97
aI0
aS'on'
p2801
aa(lp2802
F0.12564040000007
aI65
aI0
aI0
aS'off'
p2803
aa(lp2804
F3.9823086740003
aI60
aI72
aI0
aS'on'
p2805
aa(lp2806
F0.10475469599987
aI58
aI0
aI0
aS'off'
p2807
aa(lp2808
F4.0264988479998
aI53
aI103
aI0
aS'on'
p2809
aa(lp2810
F0.103033762
aI60
aI0
aI0
aS'off'
p2811
aa(lp2812
F3.8165490420001
aI57
aI89
aI0
aS'on'
p2813
aa(lp2814
F0.11462447800022
aI53
aI0
aI0
aS'off'
p2815
aa(lp2816
F3.8806841279998
aI58
aI95
aI0
aS'on'
p2817
aa(lp2818
F0.08343713000022
aI57
aI0
aI0
aS'off'
p2819
aa(lp2820
F3.9960325819998
aI58
aI0
aI0
aS'off'
p2821
aa(lp2822
F0.010000000000218
aI0
aI0
aI0
aS'timeAfterLastHit'
p2823
aaa(lp2824
(lp2825
F11.96841492
aI82
aI13
aI0
aS'on'
p2826
aa(lp2827
F1.9950034060003
aI81
aI39
aI0
aS'on'
p2828
aa(lp2829
F0.021344883999973
aI82
aI0
aI0
aS'off'
p2830
aa(lp2831
F1.8392177339997
aI81
aI0
aI0
aS'off'
p2832
aa(lp2833
F0.08402713400028
aI79
aI19
aI0
aS'on'
p2834
aa(lp2835
F11.687800206
aI79
aI0
aI0
aS'off'
p2836
aa(lp2837
F0.36701427200023
aI81
aI31
aI0
aS'on'
p2838
aa(lp2839
F0.93090261199995
aI81
aI0
aI0
aS'off'
p2840
aa(lp2841
F0.11401683399981
aI82
aI50
aI0
aS'on'
p2842
aa(lp2843
F0.82638914400013
aI82
aI0
aI0
aS'off'
p2844
aa(lp2845
F0.021363144000134
aI81
aI37
aI0
aS'on'
p2846
aa(lp2847
F0.96368011599998
aI81
aI0
aI0
aS'off'
p2848
aa(lp2849
F0.074720229999912
aI77
aI28
aI0
aS'on'
p2850
aa(lp2851
F1.0961053639999
aI77
aI0
aI0
aS'off'
p2852
aa(lp2853
F0.010000000000218
aI0
aI0
aI0
aS'timeAfterLastHit'
p2854
aaa(lp2855
(lp2856
F0.049824467999997
aI74
aI60
aI0
aS'on'
p2857
aa(lp2858
F0.010546650000151
aI67
aI10
aI0
aS'on'
p2859
aa(lp2860
F1.9158684239999
aI79
aI5
aI0
aS'on'
p2861
aa(lp2862
F12.593553868
aI79
aI0
aI0
aS'off'
p2863
aa(lp2864
F0.041414589999931
aI79
aI5
aI0
aS'on'
p2865
aa(lp2866
F0.11464113800002
aI79
aI0
aI0
aS'off'
p2867
aa(lp2868
F0.51145261000011
aI79
aI9
aI0
aS'on'
p2869
aa(lp2870
F0.21869828799981
aI79
aI0
aI0
aS'off'
p2871
aa(lp2872
F0.13634986400007
aI74
aI0
aI0
aS'off'
p2873
aa(lp2874
F0.073127494000119
aI67
aI0
aI0
aS'off'
p2875
aa(lp2876
F0.26188165399981
aI77
aI49
aI0
aS'on'
p2877
aa(lp2878
F0.093851214000097
aI72
aI3
aI0
aS'on'
p2879
aa(lp2880
F0.00014504999990095
aI69
aI2
aI0
aS'on'
p2881
aa(lp2882
F0.0097607960001369
aI77
aI0
aI0
aS'off'
p2883
aa(lp2884
F0.041662253999903
aI69
aI0
aI0
aS'off'
p2885
aa(lp2886
F0.10492423400001
aI69
aI14
aI0
aS'on'
p2887
aa(lp2888
F0.22832380800014
aI69
aI0
aI0
aS'off'
p2889
aa(lp2890
F0.063016011999935
aI69
aI2
aI0
aS'on'
p2891
aa(lp2892
F0.093522961999952
aI69
aI0
aI0
aS'off'
p2893
aa(lp2894
F0.12576087999992
aI69
aI2
aI0
aS'on'
p2895
aa(lp2896
F0.15564163800013
aI69
aI0
aI0
aS'off'
p2897
aa(lp2898
F0.23026547599989
aI77
aI2
aI0
aS'on'
p2899
aa(lp2900
F0.094095924000158
aI69
aI5
aI0
aS'on'
p2901
aa(lp2902
F0.3353645159998
aI74
aI3
aI0
aS'on'
p2903
aa(lp2904
F13.829916944
aI74
aI0
aI0
aS'off'
p2905
aa(lp2906
F0.010148403999892
aI69
aI0
aI0
aS'off'
p2907
aa(lp2908
F0.052289502000122
aI77
aI0
aI0
aS'off'
p2909
aa(lp2910
F0.031530664000002
aI72
aI0
aI0
aS'off'
p2911
aa(lp2912
F0.57242067399989
aI0
aI0
aI0
aS'timeAfterLastHit'
p2913
aaa(lp2914
(lp2915
F0.015020120144072
aI61
aI90
aI0
ag524
aa(lp2916
F1.7885518858557
aI61
aI0
aI0
ag526
aa(lp2917
F0.094635222000761
aI60
aI105
aI0
ag528
aa(lp2918
F1.8938977119997
aI60
aI0
aI0
ag530
aa(lp2919
F0.10426414599988
aI58
aI101
aI0
ag532
aa(lp2920
F1.8214214380005
aI58
aI0
aI0
ag534
aa(lp2921
F0.083368375999271
aI57
aI89
aI0
ag536
aa(lp2922
F2.1111848440005
aI58
aI115
aI0
ag538
aa(lp2923
F0.064233097999931
aI57
aI0
aI0
ag540
aa(lp2924
F1.8592501359999
aI58
aI0
aI0
ag542
aa(lp2925
F0.022156504000122
aI60
aI79
aI0
ag544
aa(lp2926
F1.9033657479995
aI60
aI0
aI0
ag546
aa(lp2927
F0.14754592200006
aI61
aI97
aI0
ag548
aa(lp2928
F10.825497972
aI61
aI0
aI0
ag550
aa(lp2929
F0.10328673799995
aI60
aI100
aI0
ag552
aa(lp2930
F1.0228053399996
aI60
aI0
aI0
ag554
aa(lp2931
F0.052667068000119
aI61
aI91
aI0
ag556
aa(lp2932
F7.5706585360003
aI61
aI0
aI0
ag558
aa(lp2933
F0.51618919399971
aI0
aI0
aI0
ag560
aaa(lp2934
(lp2935
F0.045097690000148
aI58
aI98
aI0
ag563
aa(lp2936
F1.9046672579998
aI57
aI79
aI0
ag565
aa(lp2937
F0.054284009999719
aI58
aI0
aI0
ag567
aa(lp2938
F1.9845449280001
aI55
aI95
aI0
ag569
aa(lp2939
F0.14619941199999
aI57
aI0
aI0
ag571
aa(lp2940
F1.7025473780004
aI53
aI92
aI0
ag573
aa(lp2941
F0.084052751999479
aI55
aI0
aI0
ag575
aa(lp2942
F2.0887314420006
aI50
aI94
aI0
ag577
aa(lp2943
F0.063405133999368
aI53
aI0
aI0
ag579
aa(lp2944
F1.8726375000006
aI57
aI105
aI0
ag581
aa(lp2945
F0.10549162999996
aI50
aI0
aI0
ag583
aa(lp2946
F1.9022475880001
aI55
aI98
aI0
ag585
aa(lp2947
F0.1140655979998
aI57
aI0
aI0
ag587
aa(lp2948
F10.906989492
aI55
aI0
aI0
ag589
aa(lp2949
F0.0091836859992327
aI53
aI88
aI0
ag591
aa(lp2950
F0.97294694000084
aI53
aI0
aI0
ag593
aa(lp2951
F0.00019982199955848
aI55
aI98
aI0
ag595
aa(lp2952
F7.3306846160003
aI55
aI0
aI0
ag597
aa(lp2953
F0.71202312399964
aI0
aI0
aI0
ag599
aaaI0
aI0
aI0
aI0
aI0
aI0
aI0
aI0
aI0
aI0
aI0
aI0
aI0
aI0
aI0
aI0
aI0
aI0
aI0
aI0
aI0
aI0
aI0
aI0
aI0
aI0
aI0
aI0
aI0
aI0
aI0
aI0
aI0
aI0
aI0
aI0
aI0
aI0
aI0
aI0
aI0
aI0
aI0
aI0
aI0
aI0
aI0
aI0
aI0
aI0
aI0
aa(lp2954
(dp2955
a(dp2956
g603
I31
sg604
I1
sa(dp2957
a(dp2958
g603
I33
sg604
I0
sa(dp2959
g603
I34
sg604
I0
sa(dp2960
a(dp2961
g603
I36
sg604
I0
sa(dp2962
g603
I37
sg604
I0
sa(dp2963
g603
I38
sg604
I0
sa(dp2964
a(dp2965
a(dp2966
g603
I43
sg604
I1
sa(dp2967
g603
I44
sg604
I1
sa(dp2968
a(dp2969
a(dp2970
a(dp2971
a(dp2972
a(dp2973
a(dp2974
a(dp2975
a(dp2976
a(dp2977
g603
I56
sg604
I0
sa(dp2978
g603
I57
sg604
I0
sa(dp2979
a(dp2980
g603
I61
sg604
I1
sa(dp2981
g603
I62
sg604
I0
sa(dp2982
a(dp2983
a(dp2984
a(dp2985
g634
I66
sg635
I0
sa(dp2986
a(dp2987
g634
I68
sg635
I1
sa(dp2988
g603
I71
sg604
I0
sa(dp2989
g603
I72
sg604
I0
sa(dp2990
a(dp2991
a(dp2992
g603
I75
sg604
I0
sa(dp2993
a(dp2994
a(dp2995
a(dp2996
a(dp2997
a(dp2998
a(dp2999
S'button'
p3000
I84
sS'playing'
p3001
I1
sa(dp3002
g3000
I85
sg3001
I1
sa(dp3003
g3000
I86
sg3001
I1
sa(dp3004
g634
I87
sg635
I0
sa(dp3005
g634
I88
sg635
I0
sa(dp3006
a(dp3007
a(dp3008
a(dp3009
a(dp3010
a(dp3011
a(dp3012
a(dp3013
a(dp3014
a(dp3015
a(dp3016
a(dp3017
a(dp3018
a(dp3019
a(dp3020
a(dp3021
a(dp3022
a(dp3023
a(dp3024
a(dp3025
a(dp3026
a(dp3027
a(dp3028
a(dp3029
a(dp3030
a(dp3031
a(dp3032
a(dp3033
a(dp3034
a(dp3035
a(dp3036
a(dp3037
a(dp3038
a(dp3039
a(dp3040
a(dp3041
a(dp3042
a(dp3043
a(dp3044
a(dp3045
a(dp3046
a(dp3047
a(dp3048
a(dp3049
a(dp3050
a(dp3051
a(dp3052
a(dp3053
a(dp3054
a(dp3055
a(dp3056
aa(lp3057
I60
aI60
aI36
aI36
aa(lp3058
(lp3059
I0
aI2
aI3
aI5
aI7
aI8
aI10
aa(lp3060
I0
aI2
aI3
aI5
aI7
aI8
aI10
aa(lp3061
I0
aI2
aI3
aI5
aI7
aI8
aI10
aa(lp3062
I0
aI2
aI3
aI5
aI7
aI8
aI10
aa(lp3063
I0
aI2
aI3
aI5
aI7
aI8
aI10
aa(lp3064
I0
aI1
aI2
aI3
aI4
aI5
aI6
aI7
aI8
aI9
aI10
aI11
aaa(lp3065
(lp3066
(lp3067
I0
aI0
aI0
aI0
aI0
aI0
aI0
aI0
aI0
aI0
aI0
aI0
aa(lp3068
I0
aI0
aI0
aI0
aI0
aI0
aI0
aI0
aI0
aI0
aI0
aI0
aa(lp3069
I0
aI0
aI0
aI0
aI0
aI0
aI0
aI0
aI0
aI0
aI0
aI0
aa(lp3070
I0
aI0
aI0
aI0
aI0
aI0
aI0
aI0
aI0
aI0
aI0
aI0
aaa(lp3071
(lp3072
I0
aI0
aI0
aI0
aI0
aI0
aI0
aI0
aI0
aI0
aI0
aI0
aa(lp3073
I0
aI0
aI0
aI0
aI0
aI0
aI0
aI0
aI0
aI0
aI0
aI0
aa(lp3074
I0
aI0
aI0
aI0
aI0
aI0
aI0
aI0
aI0
aI0
aI0
aI0
aa(lp3075
I0
aI0
aI0
aI0
aI0
aI0
aI0
aI0
aI0
aI0
aI0
aI0
aaa(lp3076
(lp3077
I0
aI0
aI0
aI0
aI0
aI0
aI0
aI0
aI0
aI0
aI0
aI0
aa(lp3078
I0
aI0
aI0
aI0
aI0
aI0
aI0
aI0
aI0
aI0
aI0
aI0
aa(lp3079
I0
aI0
aI0
aI0
aI0
aI0
aI0
aI0
aI0
aI0
aI0
aI0
aa(lp3080
I0
aI0
aI0
aI0
aI0
aI0
aI0
aI0
aI0
aI0
aI0
aI0
aaa(lp3081
(lp3082
I0
aI0
aI0
aI0
aI0
aI0
aI0
aI0
aI0
aI0
aI0
aI0
aa(lp3083
I0
aI0
aI0
aI0
aI0
aI0
aI0
aI0
aI0
aI0
aI0
aI0
aa(lp3084
I0
aI0
aI0
aI0
aI0
aI0
aI0
aI0
aI0
aI0
aI0
aI0
aa(lp3085
I0
aI0
aI0
aI0
aI0
aI0
aI0
aI0
aI0
aI0
aI0
aI0
aaaa(lp3086
(lp3087
I0
aI0
aI0
aI0
aI0
aI0
aI0
aI0
aI0
aI0
aI0
aI0
aa(lp3088
I0
aI0
aI0
aI0
aI0
aI0
aI0
aI0
aI0
aI0
aI0
aI0
aa(lp3089
I0
aI0
aI0
aI0
aI0
aI0
aI0
aI0
aI0
aI0
aI0
aI0
aa(lp3090
I0
aI0
aI0
aI0
aI0
aI0
aI0
aI0
aI0
aI0
aI0
aI0
aaaa(lp3091
(lp3092
I0
a(lp3093
(lp3094
F0.0
aI31
aI99
aI3
ag5
aa(lp3095
F0.65891966590061
aI31
aI0
aI3
ag7
aa(lp3096
F0.34108033409939
aI31
aI103
aI3
ag9
aa(lp3097
F0.69522106402292
aI31
aI0
aI3
ag11
aa(lp3098
F0.30477893597708
aI31
aI99
aI3
ag13
aa(lp3099
F0.69438935178641
aI31
aI0
aI3
ag15
aa(lp3100
F0.30561064821359
aI31
aI110
aI3
ag17
aa(lp3101
F0.65623286085247
aI31
aI0
aI3
ag19
aa(lp3102
F0.34376713914753
aI0
aI0
aI0
ag21
aaaI0
a(lp3103
(lp3104
F0.5
aI35
aI108
aI3
ag24
aa(lp3105
F0.30620387969975
aI35
aI0
aI3
ag26
aa(lp3106
F0.52712945363358
aI34
aI112
aI3
ag28
aa(lp3107
F0.24786790991675
aI34
aI0
aI3
ag30
aa(lp3108
F0.25213209008325
aI33
aI112
aI3
ag32
aa(lp3109
F1.5793990982747
aI33
aI0
aI3
ag34
aa(lp3110
F0.58726756839193
aI0
aI0
aI0
ag36
aaa(lp3111
(lp3112
F2.5
aI32
aI116
aI3
ag39
aa(lp3113
F0.46043987666417
aI32
aI0
aI3
ag41
aa(lp3114
F3.5395601233358
aI32
aI116
aI3
ag43
aa(lp3115
F0.18851552586784
aI32
aI0
aI3
ag45
aa(lp3116
F0.31148447413216
aI32
aI121
aI3
ag47
aa(lp3117
F0.48404598876914
aI32
aI0
aI3
ag49
aa(lp3118
F0.51595401123086
aI0
aI0
aI0
ag51
aaaI0
a(lp3119
(lp3120
F0.022280124010649
aI67
aI114
aI1
ag54
aa(lp3121
F31.804039500968
aI67
aI0
aI1
ag56
aa(lp3122
F0.17368037502092
aI0
aI0
aI0
ag58
aaa(lp3123
(lp3124
F0.038942152919844
aI74
aI90
aI1
ag61
aa(lp3125
F8.0116228372208
aI72
aI79
aI1
ag63
aa(lp3126
F0.094126738064006
aI74
aI0
aI1
ag65
aa(lp3127
F7.8880592366149
aI70
aI89
aI1
ag67
aa(lp3128
F0.093149186541268
aI72
aI0
aI1
ag69
aa(lp3129
F7.7568202098737
aI77
aI91
aI1
ag71
aa(lp3130
F0.059425325498523
aI70
aI0
aI1
ag73
aa(lp3131
F4.0362970412316
aI76
aI93
aI1
ag75
aa(lp3132
F0.070295431150953
aI77
aI0
aI1
ag77
aa(lp3133
F1.7330733408453
aI72
aI110
aI1
ag79
aa(lp3134
F0.058033331162733
aI76
aI0
aI1
ag81
aa(lp3135
F1.9785055260199
aI72
aI0
aI1
ag83
aa(lp3136
F0.18164964285643
aI0
aI0
aI0
ag85
aaa(lp3137
(lp3138
F0.1456310114736
aI81
aI118
aI1
ag88
aa(lp3139
F15.787790768061
aI81
aI0
aI1
ag90
aa(lp3140
F0.11686472997644
aI79
aI114
aI1
ag92
aa(lp3141
F15.734362672298
aI79
aI0
aI1
ag94
aa(lp3142
F0.082417115072531
aI82
aI108
aI1
ag96
aa(lp3143
F16.107255950279
aI84
aI100
aI1
ag98
aa(lp3144
F0.10505749042022
aI82
aI0
aI1
ag100
aa(lp3145
F15.910620262419
aI84
aI0
aI1
ag102
aa(lp3146
F0.010000000000218
aI0
aI0
aI0
ag104
aaaI0
aI0
a(lp3147
(lp3148
F0.5
aI26
aI112
aI3
ag107
aa(lp3149
F0.13974191692978
aI26
aI0
aI3
ag109
aa(lp3150
F0.36025808307022
aI35
aI110
aI3
ag111
aa(lp3151
F0.17630939709125
aI35
aI0
aI3
ag113
aa(lp3152
F0.32369060290875
aI34
aI115
aI3
ag115
aa(lp3153
F0.17749105834264
aI34
aI0
aI3
ag117
aa(lp3154
F0.32250894165736
aI33
aI114
aI3
ag119
aa(lp3155
F0.25283057809429
aI33
aI0
aI3
ag121
aa(lp3156
F0.58050275523904
aI34
aI119
aI3
ag123
aa(lp3157
F0.22297643197271
aI34
aI0
aI3
ag125
aa(lp3158
F0.44369023469396
aI35
aI116
aI3
ag127
aa(lp3159
F0.27882346488877
aI35
aI0
aI3
ag129
aa(lp3160
F0.55450986844456
aI26
aI118
aI3
ag131
aa(lp3161
F0.21446112910598
aI26
aI0
aI3
ag133
aa(lp3162
F0.45220553756068
aI35
aI116
aI3
ag135
aa(lp3163
F2.0478544536672
aI35
aI0
aI3
ag137
aa(lp3164
F0.95214554633276
aI0
aI0
aI0
ag139
aaa(lp3165
(lp3166
F0.5
aI30
aI114
aI3
ag142
aa(lp3167
F0.14987270940765
aI30
aI0
aI3
ag144
aa(lp3168
F0.35012729059235
aI29
aI113
aI3
ag146
aa(lp3169
F0.15767134934322
aI29
aI0
aI3
ag148
aa(lp3170
F0.34232865065678
aI28
aI116
aI3
ag150
aa(lp3171
F0.15833204835326
aI28
aI0
aI3
ag152
aa(lp3172
F0.34166795164674
aI27
aI118
aI3
ag154
aa(lp3173
F0.25000905072557
aI27
aI0
aI3
ag156
aa(lp3174
F0.58332428260777
aI28
aI117
aI3
ag158
aa(lp3175
F0.25239797534414
aI28
aI0
aI3
ag160
aa(lp3176
F0.41426869132253
aI29
aI114
aI3
ag162
aa(lp3177
F0.28990001202874
aI29
aI0
aI3
ag164
aa(lp3178
F0.54343332130459
aI30
aI116
aI3
ag166
aa(lp3179
F0.28897668218269
aI30
aI0
aI3
ag168
aa(lp3180
F0.37768998448397
aI29
aI116
aI3
ag170
aa(lp3181
F2.406297322781
aI29
aI0
aI3
ag172
aa(lp3182
F0.59370267721897
aI0
aI0
aI0
ag174
aaaI0
aI0
aI0
aI0
aI0
aI0
aI0
aI0
aI0
a(lp3183
(lp3184
F0.56421944935209
aI31
aI121
aI2
ag177
aa(lp3185
F0.613302803642
aI31
aI0
aI2
ag179
aa(lp3186
F0.33082235890106
aI31
aI119
aI2
ag181
aa(lp3187
F0.65821710743876
aI31
aI0
aI2
ag183
aa(lp3188
F0.38889901010589
aI31
aI118
aI2
ag185
aa(lp3189
F0.67216875888516
aI31
aI0
aI2
ag187
aa(lp3190
F0.33263003994944
aI31
aI116
aI2
ag189
aa(lp3191
F0.53831089549749
aI31
aI0
aI2
ag191
aa(lp3192
F0.48315048032055
aI34
aI114
aI2
ag193
aa(lp3193
F0.61179574664311
aI34
aI0
aI2
ag195
aa(lp3194
F0.3422095874048
aI34
aI111
aI2
ag197
aa(lp3195
F0.58831229353018
aI34
aI0
aI2
ag199
aa(lp3196
F0.39061991361268
aI38
aI110
aI2
ag201
aa(lp3197
F0.69349057484578
aI38
aI0
aI2
ag203
aa(lp3198
F0.3548961760207
aI38
aI119
aI2
ag205
aa(lp3199
F0.42695480385009
aI38
aI0
aI2
ag207
aa(lp3200
F0.010000000000218
aI0
aI0
aI0
ag209
aaa(lp3201
(lp3202
F0.49227794327635
aI31
aI114
aI2
ag212
aa(lp3203
F0.65913780027586
aI31
aI0
aI2
ag214
aa(lp3204
F0.2713360914986
aI31
aI117
aI2
ag216
aa(lp3205
F0.63601774967174
aI31
aI0
aI2
ag218
aa(lp3206
F0.36534356198717
aI31
aI121
aI2
ag220
aa(lp3207
F0.67017547363503
aI31
aI0
aI2
ag222
aa(lp3208
F0.36410229318244
aI31
aI120
aI2
ag224
aa(lp3209
F0.67049590087481
aI31
aI0
aI2
ag226
aa(lp3210
F0.38801378859171
aI34
aI117
aI2
ag228
aa(lp3211
F0.60116991338327
aI34
aI0
aI2
ag230
aa(lp3212
F0.37638399355092
aI34
aI118
aI2
ag232
aa(lp3213
F0.60135992305004
aI34
aI0
aI2
ag234
aa(lp3214
F0.43568852815588
aI38
aI118
aI2
ag236
aa(lp3215
F0.62536045169327
aI38
aI0
aI2
ag238
aa(lp3216
F0.3523185479462
aI38
aI119
aI2
ag240
aa(lp3217
F0.66080311603946
aI38
aI0
aI2
ag242
aa(lp3218
F0.42338002542601
aI31
aI120
aI2
ag244
aa(lp3219
F0.50707978463106
aI31
aI0
aI2
ag246
aa(lp3220
F0.41300469305497
aI31
aI120
aI2
ag248
aa(lp3221
F0.66051729255196
aI31
aI0
aI2
ag250
aa(lp3222
F0.35301780470763
aI31
aI121
aI2
ag252
aa(lp3223
F0.63722350658827
aI31
aI0
aI2
ag254
aa(lp3224
F0.38958028670822
aI31
aI120
aI2
ag256
aa(lp3225
F0.61320317926584
aI31
aI0
aI2
ag258
aa(lp3226
F0.38829588038789
aI34
aI118
aI2
ag260
aa(lp3227
F0.6128501042549
aI34
aI0
aI2
ag262
aa(lp3228
F0.30746015413388
aI34
aI120
aI2
ag264
aa(lp3229
F0.63522598938471
aI34
aI0
aI2
ag266
aa(lp3230
F0.39085507987329
aI38
aI121
aI2
ag268
aa(lp3231
F0.59858158148927
aI38
aI0
aI2
ag270
aa(lp3232
F0.38746703306606
aI38
aI120
aI2
ag272
aa(lp3233
F0.66093472567809
aI38
aI0
aI2
ag274
aa(lp3234
F0.41287520840524
aI31
aI122
aI2
ag276
aa(lp3235
F0.62245907256147
aI31
aI0
aI2
ag278
aa(lp3236
F0.40160050970371
aI31
aI120
aI2
ag280
aa(lp3237
F0.60125549435361
aI31
aI0
aI2
ag282
aa(lp3238
F0.41237103379535
aI31
aI120
aI2
ag284
aa(lp3239
F0.61476985990885
aI31
aI0
aI2
ag286
aa(lp3240
F0.37499460869003
aI31
aI119
aI2
ag288
aa(lp3241
F0.55470893043639
aI31
aI0
aI2
ag290
aa(lp3242
F0.41298512422145
aI34
aI119
aI2
ag292
aa(lp3243
F0.58854320305181
aI34
aI0
aI2
ag294
aa(lp3244
F0.36533777066143
aI34
aI119
aI2
ag296
aa(lp3245
F0.65962734783716
aI34
aI0
aI2
ag298
aa(lp3246
F0.35414563783161
aI38
aI118
aI2
ag300
aa(lp3247
F0.61388542033637
aI38
aI0
aI2
ag302
aa(lp3248
F0.41371023690226
aI38
aI114
aI2
ag304
aa(lp3249
F0.52998468849728
aI38
aI0
aI2
ag306
aa(lp3250
F0.4588926589422
aI41
aI116
aI2
ag308
aa(lp3251
F0.57787481817286
aI41
aI0
aI2
ag310
aa(lp3252
F0.39913224985867
aI41
aI118
aI2
ag312
aa(lp3253
F0.62391759732236
aI41
aI0
aI2
ag314
aa(lp3254
F0.42530713404085
aI41
aI118
aI2
ag316
aa(lp3255
F0.57624981636582
aI41
aI0
aI2
ag318
aa(lp3256
F0.37719409679812
aI41
aI114
aI2
ag320
aa(lp3257
F0.60124674426152
aI41
aI0
aI2
ag322
aa(lp3258
F0.42412904480079
aI40
aI120
aI2
ag324
aa(lp3259
F0.61248502294075
aI40
aI0
aI2
ag326
aa(lp3260
F0.38835218247186
aI40
aI123
aI2
ag328
aa(lp3261
F0.64846973313433
aI40
aI0
aI2
ag330
aa(lp3262
F0.40124431819277
aI40
aI123
aI2
ag332
aa(lp3263
F0.59952362788317
aI40
aI0
aI2
ag334
aa(lp3264
F0.39015781965281
aI40
aI123
aI2
ag336
aa(lp3265
F0.29395246550484
aI40
aI0
aI2
ag338
aa(lp3266
F0.11995432444746
aI0
aI0
aI0
ag340
aaaI0
a(lp3267
(lp3268
F0.5
aI38
aI120
aI3
ag343
aa(lp3269
F0.95324115163658
aI38
aI0
aI3
ag345
aa(lp3270
F1.0467588483634
aI38
aI115
aI3
ag347
aa(lp3271
F1.1735155769238
aI38
aI0
aI3
ag349
aa(lp3272
F0.82648442307618
aI38
aI120
aI3
ag351
aa(lp3273
F1.2662785580997
aI38
aI0
aI3
ag353
aa(lp3274
F0.73372144190034
aI38
aI120
aI3
ag355
aa(lp3275
F1.1735331852788
aI38
aI0
aI3
ag357
aa(lp3276
F0.32646681472124
aI0
aI0
aI0
ag359
aaa(lp3277
(lp3278
F0.75710982805776
aI38
aI108
aI3
ag362
aa(lp3279
F2.3654799207807
aI38
aI0
aI3
ag364
aa(lp3280
F1.1181690560325
aI38
aI107
aI3
ag366
aa(lp3281
F3.2891501871936
aI38
aI0
aI3
ag368
aa(lp3282
F0.47009100793548
aI0
aI0
aI0
ag370
aaaI0
aI0
aI0
a(lp3283
(lp3284
F0.5
aI31
aI120
aI2
ag373
aa(lp3285
F0.4579300940004
aI31
aI0
aI2
ag375
aa(lp3286
F0.5420699059996
aI31
aI120
aI2
ag377
aa(lp3287
F0.54177763200005
aI31
aI0
aI2
ag379
aa(lp3288
F0.45822236799995
aI31
aI121
aI2
ag381
aa(lp3289
F0.59366601999955
aI31
aI0
aI2
ag383
aa(lp3290
F0.40633398000045
aI31
aI118
aI2
ag385
aa(lp3291
F0.55593204599973
aI31
aI0
aI2
ag387
aa(lp3292
F0.44406795400027
aI34
aI120
aI2
ag389
aa(lp3293
F0.60656612799994
aI34
aI0
aI2
ag391
aa(lp3294
F0.39343387200006
aI34
aI117
aI2
ag393
aa(lp3295
F0.55493520999971
aI34
aI0
aI2
ag395
aa(lp3296
F0.44506479000029
aI37
aI123
aI2
ag397
aa(lp3297
F0.58670086599977
aI37
aI0
aI2
ag399
aa(lp3298
F0.41329913400023
aI37
aI123
aI2
ag401
aa(lp3299
F0.41736095200031
aI37
aI0
aI2
ag403
aa(lp3300
F0.082639047999692
aI0
aI0
aI0
ag405
aaaI0
a(lp3301
(lp3302
F0.012034010000207
aI31
aI95
aI2
ag408
aa(lp3303
F14.722928938
aI31
aI0
aI2
ag410
aa(lp3304
F0.1785338640002
aI29
aI71
aI2
ag412
aa(lp3305
F0.84932248999985
aI29
aI0
aI2
ag414
aa(lp3306
F0.23718069799997
aI0
aI0
aI0
ag416
aaa(lp3307
(lp3308
F0.0
aI36
aI110
aI3
ag419
aa(lp3309
F0.09875165837957
aI36
aI0
aI3
ag421
aa(lp3310
F0.90124834162043
aI36
aI110
aI3
ag423
aa(lp3311
F0.189526997332
aI36
aI0
aI3
ag425
aa(lp3312
F0.310473002668
aI37
aI113
aI3
ag427
aa(lp3313
F0.18934270846466
aI37
aI0
aI3
ag429
aa(lp3314
F0.31065729153534
aI36
aI103
aI3
ag431
aa(lp3315
F0.19110574135993
aI36
aI0
aI3
ag433
aa(lp3316
F0.80889425864007
aI36
aI111
aI3
ag435
aa(lp3317
F0.0631531828476
aI36
aI0
aI3
ag437
aa(lp3318
F0.9368468171524
aI36
aI114
aI3
ag439
aa(lp3319
F0.06266905209759
aI36
aI0
aI3
ag441
aa(lp3320
F0.77066428123574
aI37
aI106
aI3
ag443
aa(lp3321
F0.11366263007494
aI37
aI0
aI3
ag445
aa(lp3322
F0.053004036591726
aI36
aI112
aI3
ag447
aa(lp3323
F0.20214247313697
aI36
aI0
aI3
ag449
aa(lp3324
F0.29785752686303
aI37
aI103
aI3
ag451
aa(lp3325
F0.19057670350958
aI37
aI0
aI3
ag453
aa(lp3326
F0.30942329649042
aI36
aI105
aI3
ag455
aa(lp3327
F0.17599373070789
aI36
aI0
aI3
ag457
aa(lp3328
F0.82400626929211
aI36
aI113
aI3
ag459
aa(lp3329
F0.16377330553769
aI36
aI0
aI3
ag461
aa(lp3330
F0.83622669446231
aI0
aI0
aI0
ag463
aaa(lp3331
(lp3332
F0.5
aI39
aI120
aI3
ag466
aa(lp3333
F1.2130195609689
aI39
aI0
aI3
ag468
aa(lp3334
F2.7869804390311
aI39
aI120
aI3
ag470
aa(lp3335
F2.8641439850353
aI39
aI0
aI3
ag472
aa(lp3336
F0.6358560149647
aI0
aI0
aI0
ag474
aaaI0
aI0
a(lp3337
(lp3338
F0.0
aI40
aI112
aI3
ag477
aa(lp3339
F0.31419171476773
aI40
aI0
aI3
ag479
aa(lp3340
F0.68580828523227
aI40
aI113
aI3
ag481
aa(lp3341
F0.27811283583014
aI40
aI0
aI3
ag483
aa(lp3342
F0.22188716416986
aI41
aI118
aI3
ag485
aa(lp3343
F0.30320181223397
aI41
aI0
aI3
ag487
aa(lp3344
F0.19679818776603
aI40
aI115
aI3
ag489
aa(lp3345
F0.34153087566847
aI40
aI0
aI3
ag491
aa(lp3346
F0.65846912433153
aI40
aI107
aI3
ag493
aa(lp3347
F0.42871611829742
aI40
aI0
aI3
ag495
aa(lp3348
F0.57128388170258
aI40
aI112
aI3
ag497
aa(lp3349
F0.29094403329873
aI40
aI0
aI3
ag499
aa(lp3350
F0.5423893000346
aI41
aI116
aI3
ag501
aa(lp3351
F0.16444267898169
aI41
aI0
aI3
ag503
aa(lp3352
F0.0022239876849808
aI40
aI114
aI3
ag505
aa(lp3353
F0.2149932856164
aI40
aI0
aI3
ag507
aa(lp3354
F0.2850067143836
aI41
aI116
aI3
ag509
aa(lp3355
F0.21404902431277
aI41
aI0
aI3
ag511
aa(lp3356
F0.28595097568723
aI40
aI115
aI3
ag513
aa(lp3357
F0.30434995568339
aI40
aI0
aI3
ag515
aa(lp3358
F0.69565004431661
aI40
aI111
aI3
ag517
aa(lp3359
F0.22751237910143
aI40
aI0
aI3
ag519
aa(lp3360
F0.77248762089857
aI0
aI0
aI0
ag521
aaaI0
aI0
aI0
aI0
aI0
aI0
a(lp3361
(lp3362
F0.030619083999682
aI60
aI104
aI0
ag2791
aa(lp3363
F3.975159606
aI62
aI99
aI0
ag2793
aa(lp3364
F0.05260366199991
aI60
aI0
aI0
ag2795
aa(lp3365
F3.8811571780002
aI65
aI105
aI0
ag2797
aa(lp3366
F0.06505818200003
aI62
aI0
aI0
ag2799
aa(lp3367
F3.7518385479998
aI58
aI97
aI0
ag2801
aa(lp3368
F0.12564040000007
aI65
aI0
aI0
ag2803
aa(lp3369
F3.9823086740003
aI60
aI72
aI0
ag2805
aa(lp3370
F0.10475469599987
aI58
aI0
aI0
ag2807
aa(lp3371
F4.0264988479998
aI53
aI103
aI0
ag2809
aa(lp3372
F0.103033762
aI60
aI0
aI0
ag2811
aa(lp3373
F3.8165490420001
aI57
aI89
aI0
ag2813
aa(lp3374
F0.11462447800022
aI53
aI0
aI0
ag2815
aa(lp3375
F3.8806841279998
aI58
aI95
aI0
ag2817
aa(lp3376
F0.08343713000022
aI57
aI0
aI0
ag2819
aa(lp3377
F3.9960325819998
aI58
aI0
aI0
ag2821
aa(lp3378
F0.010000000000218
aI0
aI0
aI0
ag2823
aaa(lp3379
(lp3380
F11.96841492
aI82
aI13
aI0
ag2826
aa(lp3381
F1.9950034060003
aI81
aI39
aI0
ag2828
aa(lp3382
F0.021344883999973
aI82
aI0
aI0
ag2830
aa(lp3383
F1.8392177339997
aI81
aI0
aI0
ag2832
aa(lp3384
F0.08402713400028
aI79
aI19
aI0
ag2834
aa(lp3385
F11.687800206
aI79
aI0
aI0
ag2836
aa(lp3386
F0.36701427200023
aI81
aI31
aI0
ag2838
aa(lp3387
F0.93090261199995
aI81
aI0
aI0
ag2840
aa(lp3388
F0.11401683399981
aI82
aI50
aI0
ag2842
aa(lp3389
F0.82638914400013
aI82
aI0
aI0
ag2844
aa(lp3390
F0.021363144000134
aI81
aI37
aI0
ag2846
aa(lp3391
F0.96368011599998
aI81
aI0
aI0
ag2848
aa(lp3392
F0.074720229999912
aI77
aI28
aI0
ag2850
aa(lp3393
F1.0961053639999
aI77
aI0
aI0
ag2852
aa(lp3394
F0.010000000000218
aI0
aI0
aI0
ag2854
aaa(lp3395
(lp3396
F0.049824467999997
aI74
aI60
aI0
ag2857
aa(lp3397
F0.010546650000151
aI67
aI10
aI0
ag2859
aa(lp3398
F1.9158684239999
aI79
aI5
aI0
ag2861
aa(lp3399
F12.593553868
aI79
aI0
aI0
ag2863
aa(lp3400
F0.041414589999931
aI79
aI5
aI0
ag2865
aa(lp3401
F0.11464113800002
aI79
aI0
aI0
ag2867
aa(lp3402
F0.51145261000011
aI79
aI9
aI0
ag2869
aa(lp3403
F0.21869828799981
aI79
aI0
aI0
ag2871
aa(lp3404
F0.13634986400007
aI74
aI0
aI0
ag2873
aa(lp3405
F0.073127494000119
aI67
aI0
aI0
ag2875
aa(lp3406
F0.26188165399981
aI77
aI49
aI0
ag2877
aa(lp3407
F0.093851214000097
aI72
aI3
aI0
ag2879
aa(lp3408
F0.00014504999990095
aI69
aI2
aI0
ag2881
aa(lp3409
F0.0097607960001369
aI77
aI0
aI0
ag2883
aa(lp3410
F0.041662253999903
aI69
aI0
aI0
ag2885
aa(lp3411
F0.10492423400001
aI69
aI14
aI0
ag2887
aa(lp3412
F0.22832380800014
aI69
aI0
aI0
ag2889
aa(lp3413
F0.063016011999935
aI69
aI2
aI0
ag2891
aa(lp3414
F0.093522961999952
aI69
aI0
aI0
ag2893
aa(lp3415
F0.12576087999992
aI69
aI2
aI0
ag2895
aa(lp3416
F0.15564163800013
aI69
aI0
aI0
ag2897
aa(lp3417
F0.23026547599989
aI77
aI2
aI0
ag2899
aa(lp3418
F0.094095924000158
aI69
aI5
aI0
ag2901
aa(lp3419
F0.3353645159998
aI74
aI3
aI0
ag2903
aa(lp3420
F13.829916944
aI74
aI0
aI0
ag2905
aa(lp3421
F0.010148403999892
aI69
aI0
aI0
ag2907
aa(lp3422
F0.052289502000122
aI77
aI0
aI0
ag2909
aa(lp3423
F0.031530664000002
aI72
aI0
aI0
ag2911
aa(lp3424
F0.57242067399989
aI0
aI0
aI0
ag2913
aaa(lp3425
(lp3426
F0.015020120144072
aI61
aI90
aI0
ag524
aa(lp3427
F1.7885518858557
aI61
aI0
aI0
ag526
aa(lp3428
F0.094635222000761
aI60
aI105
aI0
ag528
aa(lp3429
F1.8938977119997
aI60
aI0
aI0
ag530
aa(lp3430
F0.10426414599988
aI58
aI101
aI0
ag532
aa(lp3431
F1.8214214380005
aI58
aI0
aI0
ag534
aa(lp3432
F0.083368375999271
aI57
aI89
aI0
ag536
aa(lp3433
F2.1111848440005
aI58
aI115
aI0
ag538
aa(lp3434
F0.064233097999931
aI57
aI0
aI0
ag540
aa(lp3435
F1.8592501359999
aI58
aI0
aI0
ag542
aa(lp3436
F0.022156504000122
aI60
aI79
aI0
ag544
aa(lp3437
F1.9033657479995
aI60
aI0
aI0
ag546
aa(lp3438
F0.14754592200006
aI61
aI97
aI0
ag548
aa(lp3439
F10.825497972
aI61
aI0
aI0
ag550
aa(lp3440
F0.10328673799995
aI60
aI100
aI0
ag552
aa(lp3441
F1.0228053399996
aI60
aI0
aI0
ag554
aa(lp3442
F0.052667068000119
aI61
aI91
aI0
ag556
aa(lp3443
F7.5706585360003
aI61
aI0
aI0
ag558
aa(lp3444
F0.51618919399971
aI0
aI0
aI0
ag560
aaa(lp3445
(lp3446
F0.045097690000148
aI58
aI98
aI0
ag563
aa(lp3447
F1.9046672579998
aI57
aI79
aI0
ag565
aa(lp3448
F0.054284009999719
aI58
aI0
aI0
ag567
aa(lp3449
F1.9845449280001
aI55
aI95
aI0
ag569
aa(lp3450
F0.14619941199999
aI57
aI0
aI0
ag571
aa(lp3451
F1.7025473780004
aI53
aI92
aI0
ag573
aa(lp3452
F0.084052751999479
aI55
aI0
aI0
ag575
aa(lp3453
F2.0887314420006
aI50
aI94
aI0
ag577
aa(lp3454
F0.063405133999368
aI53
aI0
aI0
ag579
aa(lp3455
F1.8726375000006
aI57
aI105
aI0
ag581
aa(lp3456
F0.10549162999996
aI50
aI0
aI0
ag583
aa(lp3457
F1.9022475880001
aI55
aI98
aI0
ag585
aa(lp3458
F0.1140655979998
aI57
aI0
aI0
ag587
aa(lp3459
F10.906989492
aI55
aI0
aI0
ag589
aa(lp3460
F0.0091836859992327
aI53
aI88
aI0
ag591
aa(lp3461
F0.97294694000084
aI53
aI0
aI0
ag593
aa(lp3462
F0.00019982199955848
aI55
aI98
aI0
ag595
aa(lp3463
F7.3306846160003
aI55
aI0
aI0
ag597
aa(lp3464
F0.71202312399964
aI0
aI0
aI0
ag599
aaaI0
aI0
aI0
aI0
aI0
aI0
aI0
aI0
aI0
aI0
aI0
aI0
aI0
aI0
aI0
aI0
aI0
aI0
aI0
aI0
aI0
aI0
aI0
aI0
aI0
aI0
aI0
aI0
aI0
aI0
aI0
aI0
aI0
aI0
aI0
aI0
aI0
aI0
aI0
aI0
aI0
aI0
aI0
aI0
aI0
aI0
aI0
aI0
aI0
aI0
aI0
aa(lp3465
(dp3466
a(dp3467
g603
I31
sg604
I1
sa(dp3468
a(dp3469
g603
I33
sg604
I0
sa(dp3470
g603
I34
sg604
I0
sa(dp3471
a(dp3472
g603
I36
sg604
I0
sa(dp3473
g603
I37
sg604
I0
sa(dp3474
g603
I38
sg604
I0
sa(dp3475
a(dp3476
a(dp3477
g603
I43
sg604
I0
sa(dp3478
g603
I44
sg604
I0
sa(dp3479
a(dp3480
a(dp3481
a(dp3482
a(dp3483
a(dp3484
a(dp3485
a(dp3486
a(dp3487
a(dp3488
g603
I56
sg604
I0
sa(dp3489
g603
I57
sg604
I0
sa(dp3490
a(dp3491
g603
I61
sg604
I1
sa(dp3492
g603
I62
sg604
I0
sa(dp3493
a(dp3494
a(dp3495
a(dp3496
g634
I66
sg635
I1
sa(dp3497
a(dp3498
g634
I68
sg635
I0
sa(dp3499
g603
I71
sg604
I0
sa(dp3500
g603
I72
sg604
I0
sa(dp3501
a(dp3502
a(dp3503
g603
I75
sg604
I1
sa(dp3504
a(dp3505
a(dp3506
a(dp3507
a(dp3508
a(dp3509
a(dp3510
g3000
I84
sg3001
I0
sa(dp3511
g3000
I85
sg3001
I0
sa(dp3512
g3000
I86
sg3001
I0
sa(dp3513
g634
I87
sg635
I1
sa(dp3514
g634
I88
sg635
I1
sa(dp3515
a(dp3516
a(dp3517
a(dp3518
a(dp3519
a(dp3520
a(dp3521
a(dp3522
a(dp3523
a(dp3524
a(dp3525
a(dp3526
a(dp3527
a(dp3528
a(dp3529
a(dp3530
a(dp3531
a(dp3532
a(dp3533
a(dp3534
a(dp3535
a(dp3536
a(dp3537
a(dp3538
a(dp3539
a(dp3540
a(dp3541
a(dp3542
a(dp3543
a(dp3544
a(dp3545
a(dp3546
a(dp3547
a(dp3548
a(dp3549
a(dp3550
a(dp3551
a(dp3552
a(dp3553
a(dp3554
a(dp3555
a(dp3556
a(dp3557
a(dp3558
a(dp3559
a(dp3560
a(dp3561
a(dp3562
a(dp3563
a(dp3564
a(dp3565
aa(lp3566
I60
aI60
aI36
aI36
aa(lp3567
(lp3568
I0
aI2
aI3
aI5
aI7
aI8
aI10
aa(lp3569
I0
aI2
aI3
aI5
aI7
aI8
aI10
aa(lp3570
I0
aI2
aI3
aI5
aI7
aI8
aI10
aa(lp3571
I0
aI2
aI3
aI5
aI7
aI8
aI10
aa(lp3572
I0
aI2
aI3
aI5
aI7
aI8
aI10
aa(lp3573
I0
aI1
aI2
aI3
aI4
aI5
aI6
aI7
aI8
aI9
aI10
aI11
aaa(lp3574
(lp3575
(lp3576
I0
aI0
aI0
aI0
aI0
aI0
aI0
aI0
aI0
aI0
aI0
aI0
aa(lp3577
I0
aI0
aI0
aI0
aI0
aI0
aI0
aI0
aI0
aI0
aI0
aI0
aa(lp3578
I0
aI0
aI0
aI0
aI0
aI0
aI0
aI0
aI0
aI0
aI0
aI0
aa(lp3579
I0
aI0
aI0
aI0
aI0
aI0
aI0
aI0
aI0
aI0
aI0
aI0
aaa(lp3580
(lp3581
I0
aI0
aI0
aI0
aI0
aI0
aI0
aI0
aI0
aI0
aI0
aI0
aa(lp3582
I0
aI0
aI0
aI0
aI0
aI0
aI0
aI0
aI0
aI0
aI0
aI0
aa(lp3583
I0
aI0
aI0
aI0
aI0
aI0
aI0
aI0
aI0
aI0
aI0
aI0
aa(lp3584
I0
aI0
aI0
aI0
aI0
aI0
aI0
aI0
aI0
aI0
aI0
aI0
aaa(lp3585
(lp3586
I0
aI0
aI0
aI0
aI0
aI0
aI0
aI0
aI0
aI0
aI0
aI0
aa(lp3587
I0
aI0
aI0
aI0
aI0
aI0
aI0
aI0
aI0
aI0
aI0
aI0
aa(lp3588
I0
aI0
aI0
aI0
aI0
aI0
aI0
aI0
aI0
aI0
aI0
aI0
aa(lp3589
I0
aI0
aI0
aI0
aI0
aI0
aI0
aI0
aI0
aI0
aI0
aI0
aaa(lp3590
(lp3591
I0
aI0
aI0
aI0
aI0
aI0
aI0
aI0
aI0
aI0
aI0
aI0
aa(lp3592
I0
aI0
aI0
aI0
aI0
aI0
aI0
aI0
aI0
aI0
aI0
aI0
aa(lp3593
I0
aI0
aI0
aI0
aI0
aI0
aI0
aI0
aI0
aI0
aI0
aI0
aa(lp3594
I0
aI0
aI0
aI0
aI0
aI0
aI0
aI0
aI0
aI0
aI0
aI0
aaaa(lp3595
(lp3596
I0
aI0
aI0
aI0
aI0
aI0
aI0
aI0
aI0
aI0
aI0
aI0
aa(lp3597
I0
aI0
aI0
aI0
aI0
aI0
aI0
aI0
aI0
aI0
aI0
aI0
aa(lp3598
I0
aI0
aI0
aI0
aI0
aI0
aI0
aI0
aI0
aI0
aI0
aI0
aa(lp3599
I0
aI0
aI0
aI0
aI0
aI0
aI0
aI0
aI0
aI0
aI0
aI0
aaaaI0
aI0
aI0
aI0
aI0
aI0
aI0
aI0
aI0
aI0
aI0
aI0
aI0
aI0
aI0
aI0
aI0
aI0
aI0
aI0
aI0
aI0
aI0
aI0
a.