(lp0
I0
a(lp1
(lp2
I0
aI0
aI0
aI0
aI0
aI0
aI0
aI0
aI0
aI0
aI0
aI0
aI0
aI0
aI0
aI0
aI0
aI0
aI0
aI0
aI0
aI0
aI0
aI0
aI0
a(lp3
(lp4
F0.0
aI41
aI99
aI2
aS'on'
p5
aa(lp6
F0.16926372043372
aI41
aI0
aI2
aS'off'
p7
aa(lp8
F0.83073627956628
aI46
aI101
aI2
aS'on'
p9
aa(lp10
F0.19443419513982
aI46
aI0
aI2
aS'off'
p11
aa(lp12
F0.30556580486018
aI43
aI105
aI2
aS'on'
p13
aa(lp14
F0.13081288626154
aI43
aI0
aI2
aS'off'
p15
aa(lp16
F0.86918711373846
aI48
aI98
aI2
aS'on'
p17
aa(lp18
F0.11807910610059
aI48
aI0
aI2
aS'off'
p19
aa(lp20
F0.38192089389941
aI46
aI57
aI2
aS'on'
p21
aa(lp22
F0.11630624362124
aI46
aI0
aI2
aS'off'
p23
aa(lp24
F0.88369375637876
aI50
aI101
aI2
aS'on'
p25
aa(lp26
F0.19402850143842
aI50
aI0
aI2
aS'off'
p27
aa(lp28
F0.30597149856158
aI48
aI99
aI2
aS'on'
p29
aa(lp30
F0.064500023382152
aI48
aI0
aI2
aS'off'
p31
aa(lp32
F0.93549997661785
aI48
aI92
aI2
aS'on'
p33
aa(lp34
F0.061951712081282
aI48
aI0
aI2
aS'off'
p35
aa(lp36
F0.43804828791872
aI46
aI79
aI2
aS'on'
p37
aa(lp38
F0.11597825375566
aI46
aI0
aI2
aS'off'
p39
aa(lp40
F1.3840217462443
aI43
aI113
aI2
aS'on'
p41
aa(lp42
F0.11585799734485
aI43
aI0
aI2
aS'off'
p43
aa(lp44
F0.38414200265515
aI0
aI0
aI0
aS'timeAfterLastHit'
p45
aaa(lp46
(lp47
F0.0
aI46
aI96
aI2
aS'on'
p48
aa(lp49
F0.018742636679235
aI46
aI0
aI2
aS'off'
p50
aa(lp51
F1.4812573633208
aI43
aI90
aI2
aS'on'
p52
aa(lp53
F0.065370837357477
aI43
aI0
aI2
aS'off'
p54
aa(lp55
F0.93462916264252
aI50
aI88
aI2
aS'on'
p56
aa(lp57
F0.06432839988247
aI50
aI0
aI2
aS'off'
p58
aa(lp59
F0.43567160011753
aI53
aI93
aI2
aS'on'
p60
aa(lp61
F0.064526772417594
aI53
aI0
aI2
aS'off'
p62
aa(lp63
F0.43547322758241
aI55
aI91
aI2
aS'on'
p64
aa(lp65
F0.065125431723573
aI55
aI0
aI2
aS'off'
p66
aa(lp67
F2.4348745682764
aI46
aI93
aI2
aS'on'
p68
aa(lp69
F0.064432919813498
aI46
aI0
aI2
aS'off'
p70
aa(lp71
F0.4355670801865
aI43
aI95
aI2
aS'on'
p72
aa(lp73
F0.065531920196918
aI43
aI0
aI2
aS'off'
p74
aa(lp75
F0.43446807980308
aI41
aI93
aI2
aS'on'
p76
aa(lp77
F0.065151790824984
aI41
aI0
aI2
aS'off'
p78
aa(lp79
F0.43484820917502
aI39
aI97
aI2
aS'on'
p80
aa(lp81
F0.11705051752278
aI39
aI0
aI2
aS'off'
p82
aa(lp83
F0.38294948247722
aI46
aI97
aI2
aS'on'
p84
aa(lp85
F0.06578328165233
aI46
aI0
aI2
aS'off'
p86
aa(lp87
F1.4342167183477
aI43
aI98
aI2
aS'on'
p88
aa(lp89
F0.14302050768129
aI43
aI0
aI2
aS'off'
p90
aa(lp91
F1.3569794923187
aI41
aI86
aI2
aS'on'
p92
aa(lp93
F0.06459663533451
aI41
aI0
aI2
aS'off'
p94
aa(lp95
F1.4354033646655
aI39
aI98
aI2
aS'on'
p96
aa(lp97
F0.064306715034036
aI39
aI0
aI2
aS'off'
p98
aa(lp99
F1.435693284966
aI46
aI85
aI2
aS'on'
p100
aa(lp101
F0.063961515876599
aI46
aI0
aI2
aS'off'
p102
aa(lp103
F0.4360384841234
aI43
aI98
aI2
aS'on'
p104
aa(lp105
F0.12975217648818
aI43
aI0
aI2
aS'off'
p106
aa(lp107
F0.37024782351182
aI41
aI83
aI2
aS'on'
p108
aa(lp109
F0.064011313290848
aI41
aI0
aI2
aS'off'
p110
aa(lp111
F0.43598868670915
aI39
aI103
aI2
aS'on'
p112
aa(lp113
F0.15434899485945
aI39
aI0
aI2
aS'off'
p114
aa(lp115
F0.34565100514055
aI0
aI0
aI0
aS'timeAfterLastHit'
p116
aaaI0
aI0
aI0
aI0
aI0
aI0
a(lp117
(lp118
F0.0
aI37
aI99
aI3
aS'on'
p119
aa(lp120
F0.14308399255509
aI37
aI0
aI3
aS'off'
p121
aa(lp122
F0.35691600744491
aI38
aI98
aI3
aS'on'
p123
aa(lp124
F0.065848303913072
aI38
aI0
aI3
aS'off'
p125
aa(lp126
F0.43415169608693
aI39
aI90
aI3
aS'on'
p127
aa(lp128
F0.15627228775389
aI39
aI0
aI3
aS'off'
p129
aa(lp130
F0.34372771224611
aI37
aI95
aI3
aS'on'
p131
aa(lp132
F0.064583772451101
aI37
aI0
aI3
aS'off'
p133
aa(lp134
F0.4354162275489
aI38
aI99
aI3
aS'on'
p135
aa(lp136
F0.15634413760006
aI38
aI0
aI3
aS'off'
p137
aa(lp138
F0.34365586239994
aI39
aI95
aI3
aS'on'
p139
aa(lp140
F0.9476294982781
aI39
aI0
aI3
aS'off'
p141
aa(lp142
F0.5523705017219
aI0
aI0
aI0
aS'timeAfterLastHit'
p143
aaa(lp144
(lp145
F0.0
aI31
aI101
aI3
aS'on'
p146
aa(lp147
F0.1429958325034
aI31
aI0
aI3
aS'off'
p148
aa(lp149
F1.3570041674966
aI32
aI106
aI3
aS'on'
p150
aa(lp151
F0.20714322809681
aI32
aI0
aI3
aS'off'
p152
aa(lp153
F1.2928567719032
aI33
aI98
aI3
aS'on'
p154
aa(lp155
F0.17011625222676
aI33
aI0
aI3
aS'off'
p156
aa(lp157
F1.3298837477732
aI34
aI98
aI3
aS'on'
p158
aa(lp159
F0.16897722018507
aI34
aI0
aI3
aS'off'
p160
aa(lp161
F1.3310227798149
aI32
aI108
aI3
aS'on'
p162
aa(lp163
F1.3159368985714
aI32
aI0
aI3
aS'off'
p164
aa(lp165
F0.68406310142859
aI0
aI0
aI0
aS'timeAfterLastHit'
p166
aaaI0
aI0
aI0
aI0
aI0
aI0
aI0
aI0
aI0
aI0
aI0
aI0
aI0
aI0
aI0
aI0
aI0
aI0
aI0
aI0
aI0
aI0
aI0
aI0
aI0
aI0
aI0
aI0
aI0
aI0
aI0
aI0
aI0
aI0
aI0
aI0
aI0
aI0
aI0
aI0
aI0
aI0
aI0
aI0
aI0
aI0
aI0
aI0
aI0
aI0
aI0
aI0
aI0
aI0
aI0
aI0
aI0
aI0
aI0
aI0
aI0
aI0
aI0
aI0
aI0
aa(lp167
(dp168
a(dp169
a(dp170
a(dp171
a(dp172
a(dp173
a(dp174
a(dp175
a(dp176
a(dp177
a(dp178
a(dp179
a(dp180
a(dp181
a(dp182
a(dp183
a(dp184
a(dp185
a(dp186
a(dp187
a(dp188
a(dp189
a(dp190
a(dp191
a(dp192
a(dp193
S'button'
p194
I61
sS'playing'
p195
I0
sa(dp196
g194
I62
sg195
I0
sa(dp197
a(dp198
a(dp199
a(dp200
a(dp201
a(dp202
a(dp203
g194
I71
sg195
I0
sa(dp204
g194
I72
sg195
I0
sa(dp205
a(dp206
a(dp207
a(dp208
a(dp209
a(dp210
a(dp211
a(dp212
a(dp213
a(dp214
a(dp215
a(dp216
a(dp217
a(dp218
a(dp219
a(dp220
a(dp221
a(dp222
a(dp223
a(dp224
a(dp225
a(dp226
a(dp227
a(dp228
a(dp229
a(dp230
a(dp231
a(dp232
a(dp233
a(dp234
a(dp235
a(dp236
a(dp237
a(dp238
a(dp239
a(dp240
a(dp241
a(dp242
a(dp243
a(dp244
a(dp245
a(dp246
a(dp247
a(dp248
a(dp249
a(dp250
a(dp251
a(dp252
a(dp253
a(dp254
a(dp255
a(dp256
a(dp257
a(dp258
a(dp259
a(dp260
a(dp261
a(dp262
a(dp263
a(dp264
a(dp265
a(dp266
a(dp267
a(dp268
a(dp269
aa(lp270
I60
aI60
aI36
aI36
aa(lp271
(lp272
I0
aI2
aI3
aI5
aI7
aI8
aI10
aa(lp273
I0
aI2
aI3
aI5
aI7
aI8
aI10
aa(lp274
I0
aI2
aI3
aI5
aI7
aI8
aI10
aa(lp275
I0
aI2
aI3
aI5
aI7
aI8
aI10
aa(lp276
I0
aI2
aI3
aI5
aI7
aI8
aI10
aa(lp277
I0
aI1
aI2
aI3
aI4
aI5
aI6
aI7
aI8
aI9
aI10
aI11
aaa(lp278
(lp279
(lp280
I0
aI0
aI0
aI0
aI0
aI0
aI0
aI0
aI0
aI0
aI0
aI0
aa(lp281
I0
aI0
aI0
aI0
aI0
aI0
aI0
aI0
aI0
aI0
aI0
aI0
aa(lp282
I0
aI0
aI0
aI0
aI0
aI0
aI0
aI0
aI0
aI0
aI0
aI0
aa(lp283
I0
aI0
aI0
aI0
aI0
aI0
aI0
aI0
aI0
aI0
aI0
aI0
aaa(lp284
(lp285
I0
aI0
aI0
aI0
aI0
aI0
aI0
aI0
aI0
aI0
aI0
aI0
aa(lp286
I0
aI0
aI0
aI0
aI0
aI0
aI0
aI0
aI0
aI0
aI0
aI0
aa(lp287
I0
aI0
aI0
aI0
aI0
aI0
aI0
aI0
aI0
aI0
aI0
aI0
aa(lp288
I0
aI0
aI0
aI0
aI0
aI0
aI0
aI0
aI0
aI0
aI0
aI0
aaa(lp289
(lp290
I0
aI0
aI0
aI0
aI0
aI0
aI0
aI0
aI0
aI0
aI0
aI0
aa(lp291
I0
aI0
aI0
aI0
aI0
aI0
aI0
aI0
aI0
aI0
aI0
aI0
aa(lp292
I0
aI0
aI0
aI0
aI0
aI0
aI0
aI0
aI0
aI0
aI0
aI0
aa(lp293
I0
aI0
aI0
aI0
aI0
aI0
aI0
aI0
aI0
aI0
aI0
aI0
aaa(lp294
(lp295
I0
aI0
aI0
aI0
aI0
aI0
aI0
aI0
aI0
aI0
aI0
aI0
aa(lp296
I0
aI0
aI0
aI0
aI0
aI0
aI0
aI0
aI0
aI0
aI0
aI0
aa(lp297
I0
aI0
aI0
aI0
aI0
aI0
aI0
aI0
aI0
aI0
aI0
aI0
aa(lp298
I0
aI0
aI0
aI0
aI0
aI0
aI0
aI0
aI0
aI0
aI0
aI0
aaaa(lp299
(lp300
I0
aI0
aI0
aI0
aI0
aI0
aI0
aI0
aI0
aI0
aI0
aI0
aa(lp301
I0
aI0
aI0
aI0
aI0
aI0
aI0
aI0
aI0
aI0
aI0
aI0
aa(lp302
I0
aI0
aI0
aI0
aI0
aI0
aI0
aI0
aI0
aI0
aI0
aI0
aa(lp303
I0
aI0
aI0
aI0
aI0
aI0
aI0
aI0
aI0
aI0
aI0
aI0
aaaaI0
aI0
aI0
aI0
aI0
aI0
aI0
aI0
aI0
aI0
aI0
aI0
aI0
aI0
aI0
aI0
aI0
aI0
aI0
aI0
aI0
aI0
aI0
aI0
aI0
aI0
aI0
aI0
aI0
aI0
a.