(lp0
I0
a(lp1
(lp2
I0
aI0
aI0
aI0
aI0
aI0
aI0
aI0
aI0
aI0
aI0
aI0
aI0
aI0
aI0
aI0
aI0
aI0
aI0
aI0
aI0
aI0
aI0
aI0
aI0
aI0
aI0
aI0
aI0
aI0
aI0
aI0
aI0
aI0
aI0
aI0
aI0
aI0
aI0
aI0
aI0
a(lp3
(lp4
F0.058194671724209
aI60
aI54
aI1
aS'on'
p5
aa(lp6
F0.00020332048677574
aI57
aI71
aI1
aS'on'
p7
aa(lp8
F0.066646321641883
aI60
aI0
aI1
aS'off'
p9
aa(lp10
F0.00012564537973958
aI57
aI0
aI1
aS'off'
p11
aa(lp12
F1.4185599664921
aI60
aI88
aI1
aS'on'
p13
aa(lp14
F0.01258963197904
aI57
aI72
aI1
aS'on'
p15
aa(lp16
F0.067308744792399
aI57
aI0
aI1
aS'off'
p17
aa(lp18
F0.039498020644601
aI60
aI0
aI1
aS'off'
p19
aa(lp20
F6.3368736768592
aI0
aI0
aI0
aS'timeAfterLastHit'
p21
aaa(lp22
(lp23
F0.0
aI48
aI52
aI1
aS'on'
p24
aa(lp25
F0.11475325079846
aI48
aI0
aI1
aS'off'
p26
aa(lp27
F0.38524674920154
aI50
aI70
aI1
aS'on'
p28
aa(lp29
F0.057617311074864
aI50
aI0
aI1
aS'off'
p30
aa(lp31
F0.94238268892514
aI50
aI87
aI1
aS'on'
p32
aa(lp33
F0.2284324443483
aI50
aI0
aI1
aS'off'
p34
aa(lp35
F6.2715675556517
aI48
aI88
aI1
aS'on'
p36
aa(lp37
F0.17293180156116
aI48
aI0
aI1
aS'off'
p38
aa(lp39
F0.32706819843884
aI50
aI74
aI1
aS'on'
p40
aa(lp41
F0.16101132413996
aI50
aI0
aI1
aS'off'
p42
aa(lp43
F0.83898867586004
aI50
aI58
aI1
aS'on'
p44
aa(lp45
F0.17229237945003
aI50
aI0
aI1
aS'off'
p46
aa(lp47
F6.32770762055
aI48
aI88
aI1
aS'on'
p48
aa(lp49
F0.17141273164248
aI48
aI0
aI1
aS'off'
p50
aa(lp51
F0.32858726835752
aI50
aI53
aI1
aS'on'
p52
aa(lp53
F0.12567113808859
aI50
aI0
aI1
aS'off'
p54
aa(lp55
F0.87432886191141
aI50
aI84
aI1
aS'on'
p56
aa(lp57
F0.18370918694063
aI50
aI0
aI1
aS'off'
p58
aa(lp59
F0.81629081305937
aI48
aI89
aI1
aS'on'
p60
aa(lp61
F0.16046914079857
aI48
aI0
aI1
aS'off'
p62
aa(lp63
F0.33953085920143
aI50
aI84
aI1
aS'on'
p64
aa(lp65
F0.18393310309443
aI50
aI0
aI1
aS'off'
p66
aa(lp67
F0.81606689690557
aI52
aI93
aI1
aS'on'
p68
aa(lp69
F0.17110176523056
aI52
aI0
aI1
aS'off'
p70
aa(lp71
F0.32889823476944
aI50
aI34
aI1
aS'on'
p72
aa(lp73
F0.13849671148637
aI50
aI0
aI1
aS'off'
p74
aa(lp75
F0.86150328851363
aI48
aI89
aI1
aS'on'
p76
aa(lp77
F0.14908380346174
aI48
aI0
aI1
aS'off'
p78
aa(lp79
F0.35091619653826
aI50
aI89
aI1
aS'on'
p80
aa(lp81
F0.18466892758852
aI50
aI0
aI1
aS'off'
p82
aa(lp83
F0.81533107241148
aI48
aI86
aI1
aS'on'
p84
aa(lp85
F0.18393353449392
aI48
aI0
aI1
aS'off'
p86
aa(lp87
F0.31606646550608
aI47
aI87
aI1
aS'on'
p88
aa(lp89
F0.14888684537482
aI47
aI0
aI1
aS'off'
p90
aa(lp91
F0.85111315462518
aI48
aI89
aI1
aS'on'
p92
aa(lp93
F0.17349059598519
aI48
aI0
aI1
aS'off'
p94
aa(lp95
F0.32650940401481
aI47
aI86
aI1
aS'on'
p96
aa(lp97
F0.16359965295533
aI47
aI0
aI1
aS'off'
p98
aa(lp99
F0.83640034704467
aI45
aI60
aI1
aS'on'
p100
aa(lp101
F0.1604175577429
aI45
aI0
aI1
aS'off'
p102
aa(lp103
F0.3395824422571
aI45
aI86
aI1
aS'on'
p104
aa(lp105
F4.9192571825456
aI45
aI0
aI1
aS'off'
p106
aa(lp107
F0.58074281745439
aI0
aI0
aI0
aS'timeAfterLastHit'
p108
aaaI0
aI0
aI0
aI0
aI0
aI0
aI0
aI0
aI0
aI0
aI0
aI0
aI0
aI0
aI0
aI0
aI0
aI0
aI0
aI0
aI0
aI0
aI0
aI0
aI0
aI0
aI0
aI0
aI0
aI0
aI0
aI0
aI0
aI0
aI0
aI0
aI0
aI0
aI0
aI0
aI0
aI0
aI0
aI0
aI0
aI0
aI0
aI0
aI0
aI0
aI0
aI0
aI0
aI0
aI0
aI0
aI0
aa(lp109
(dp110
a(dp111
a(dp112
a(dp113
a(dp114
a(dp115
a(dp116
a(dp117
a(dp118
a(dp119
a(dp120
a(dp121
a(dp122
a(dp123
a(dp124
a(dp125
a(dp126
a(dp127
a(dp128
a(dp129
a(dp130
a(dp131
a(dp132
a(dp133
a(dp134
a(dp135
a(dp136
a(dp137
a(dp138
a(dp139
a(dp140
a(dp141
a(dp142
a(dp143
a(dp144
a(dp145
a(dp146
a(dp147
a(dp148
a(dp149
a(dp150
a(dp151
S'button'
p152
I81
sS'playing'
p153
I1
sa(dp154
g152
I82
sg153
I01
sa(dp155
a(dp156
a(dp157
a(dp158
a(dp159
a(dp160
a(dp161
a(dp162
a(dp163
a(dp164
a(dp165
a(dp166
a(dp167
a(dp168
a(dp169
a(dp170
a(dp171
a(dp172
a(dp173
a(dp174
a(dp175
a(dp176
a(dp177
a(dp178
a(dp179
a(dp180
a(dp181
a(dp182
a(dp183
a(dp184
a(dp185
a(dp186
a(dp187
a(dp188
a(dp189
a(dp190
a(dp191
a(dp192
a(dp193
a(dp194
a(dp195
a(dp196
a(dp197
a(dp198
a(dp199
a(dp200
a(dp201
a(dp202
a(dp203
a(dp204
a(dp205
a(dp206
a(dp207
a(dp208
a(dp209
a(dp210
a(dp211
aa(lp212
I60
aI60
aI36
aI36
aa(lp213
(lp214
I0
aI2
aI3
aI5
aI7
aI8
aI10
aa(lp215
I0
aI2
aI3
aI5
aI7
aI8
aI10
aa(lp216
I0
aI2
aI3
aI5
aI7
aI8
aI10
aa(lp217
I0
aI2
aI3
aI5
aI7
aI8
aI10
aa(lp218
I0
aI2
aI3
aI5
aI7
aI8
aI10
aa(lp219
I0
aI1
aI2
aI3
aI4
aI5
aI6
aI7
aI8
aI9
aI10
aI11
aaa(lp220
(lp221
(lp222
I0
aI0
aI0
aI0
aI0
aI0
aI0
aI0
aI0
aI0
aI0
aI0
aa(lp223
I0
aI0
aI0
aI0
aI0
aI0
aI0
aI0
aI0
aI0
aI0
aI0
aa(lp224
I0
aI0
aI0
aI0
aI0
aI0
aI0
aI0
aI0
aI0
aI0
aI0
aa(lp225
I0
aI0
aI0
aI0
aI0
aI0
aI0
aI0
aI0
aI0
aI0
aI0
aaa(lp226
(lp227
I0
aI0
aI0
aI0
aI0
aI0
aI0
aI0
aI0
aI0
aI0
aI0
aa(lp228
I0
aI0
aI0
aI0
aI0
aI0
aI0
aI0
aI0
aI0
aI0
aI0
aa(lp229
I0
aI0
aI0
aI0
aI0
aI0
aI0
aI0
aI0
aI0
aI0
aI0
aa(lp230
I0
aI0
aI0
aI0
aI0
aI0
aI0
aI0
aI0
aI0
aI0
aI0
aaa(lp231
(lp232
I0
aI0
aI0
aI0
aI0
aI0
aI0
aI0
aI0
aI0
aI0
aI0
aa(lp233
I0
aI0
aI0
aI0
aI0
aI0
aI0
aI0
aI0
aI0
aI0
aI0
aa(lp234
I0
aI0
aI0
aI0
aI0
aI0
aI0
aI0
aI0
aI0
aI0
aI0
aa(lp235
I0
aI0
aI0
aI0
aI0
aI0
aI0
aI0
aI0
aI0
aI0
aI0
aaa(lp236
(lp237
I0
aI0
aI0
aI0
aI0
aI0
aI0
aI0
aI0
aI0
aI0
aI0
aa(lp238
I0
aI0
aI0
aI0
aI0
aI0
aI0
aI0
aI0
aI0
aI0
aI0
aa(lp239
I0
aI0
aI0
aI0
aI0
aI0
aI0
aI0
aI0
aI0
aI0
aI0
aa(lp240
I0
aI0
aI0
aI0
aI0
aI0
aI0
aI0
aI0
aI0
aI0
aI0
aaaa(lp241
(lp242
I0
aI0
aI0
aI0
aI0
aI0
aI0
aI0
aI0
aI0
aI0
aI0
aa(lp243
I0
aI0
aI0
aI0
aI0
aI0
aI0
aI0
aI0
aI0
aI0
aI0
aa(lp244
I0
aI0
aI0
aI0
aI0
aI0
aI0
aI0
aI0
aI0
aI0
aI0
aa(lp245
I0
aI0
aI0
aI0
aI0
aI0
aI0
aI0
aI0
aI0
aI0
aI0
aaaaI0
aI0
aI0
aI0
aI0
aI0
aI0
aI0
aI0
aI0
aI0
aI0
aI0
aI0
aI0
aI0
aI0
aI0
aI0
aI0
aI0
aI0
aI0
aI0
aI0
aI0
aI0
aI0
aI0
aI0
a.