(lp0
I0
a(lp1
(lp2
I0
a(lp3
(lp4
F0.0
aI31
aI99
aI3
aS'on'
p5
aa(lp6
F0.65891966590061
aI31
aI0
aI3
aS'off'
p7
aa(lp8
F0.34108033409939
aI31
aI103
aI3
aS'on'
p9
aa(lp10
F0.69522106402292
aI31
aI0
aI3
aS'off'
p11
aa(lp12
F0.30477893597708
aI31
aI99
aI3
aS'on'
p13
aa(lp14
F0.69438935178641
aI31
aI0
aI3
aS'off'
p15
aa(lp16
F0.30561064821359
aI31
aI110
aI3
aS'on'
p17
aa(lp18
F0.65623286085247
aI31
aI0
aI3
aS'off'
p19
aa(lp20
F0.34376713914753
aI0
aI0
aI0
aS'timeAfterLastHit'
p21
aaaI0
aI0
aI0
aI0
aI0
aI0
aI0
aI0
aI0
aI0
aI0
aI0
aI0
aI0
aI0
aI0
aI0
aI0
aI0
aI0
aI0
aI0
aI0
a(lp22
(lp23
F0.5
aI38
aI120
aI3
aS'on'
p24
aa(lp25
F0.95324115163658
aI38
aI0
aI3
aS'off'
p26
aa(lp27
F1.0467588483634
aI38
aI115
aI3
aS'on'
p28
aa(lp29
F1.1735155769238
aI38
aI0
aI3
aS'off'
p30
aa(lp31
F0.82648442307618
aI38
aI120
aI3
aS'on'
p32
aa(lp33
F1.2662785580997
aI38
aI0
aI3
aS'off'
p34
aa(lp35
F0.73372144190034
aI38
aI120
aI3
aS'on'
p36
aa(lp37
F1.1735331852788
aI38
aI0
aI3
aS'off'
p38
aa(lp39
F0.32646681472124
aI0
aI0
aI0
aS'timeAfterLastHit'
p40
aaa(lp41
(lp42
F0.75710982805776
aI38
aI108
aI3
aS'on'
p43
aa(lp44
F2.3654799207807
aI38
aI0
aI3
aS'off'
p45
aa(lp46
F1.1181690560325
aI38
aI107
aI3
aS'on'
p47
aa(lp48
F3.2891501871936
aI38
aI0
aI3
aS'off'
p49
aa(lp50
F0.47009100793548
aI0
aI0
aI0
aS'timeAfterLastHit'
p51
aaaI0
aI0
aI0
aI0
aI0
aI0
a(lp52
(lp53
F0.0
aI36
aI110
aI3
aS'on'
p54
aa(lp55
F0.09875165837957
aI36
aI0
aI3
aS'off'
p56
aa(lp57
F0.90124834162043
aI36
aI110
aI3
aS'on'
p58
aa(lp59
F0.189526997332
aI36
aI0
aI3
aS'off'
p60
aa(lp61
F0.310473002668
aI37
aI113
aI3
aS'on'
p62
aa(lp63
F0.18934270846466
aI37
aI0
aI3
aS'off'
p64
aa(lp65
F0.31065729153534
aI36
aI103
aI3
aS'on'
p66
aa(lp67
F0.19110574135993
aI36
aI0
aI3
aS'off'
p68
aa(lp69
F0.80889425864007
aI36
aI111
aI3
aS'on'
p70
aa(lp71
F0.0631531828476
aI36
aI0
aI3
aS'off'
p72
aa(lp73
F0.9368468171524
aI36
aI114
aI3
aS'on'
p74
aa(lp75
F0.06266905209759
aI36
aI0
aI3
aS'off'
p76
aa(lp77
F0.77066428123574
aI37
aI106
aI3
aS'on'
p78
aa(lp79
F0.11366263007494
aI37
aI0
aI3
aS'off'
p80
aa(lp81
F0.053004036591726
aI36
aI112
aI3
aS'on'
p82
aa(lp83
F0.20214247313697
aI36
aI0
aI3
aS'off'
p84
aa(lp85
F0.29785752686303
aI37
aI103
aI3
aS'on'
p86
aa(lp87
F0.19057670350958
aI37
aI0
aI3
aS'off'
p88
aa(lp89
F0.30942329649042
aI36
aI105
aI3
aS'on'
p90
aa(lp91
F0.17599373070789
aI36
aI0
aI3
aS'off'
p92
aa(lp93
F0.82400626929211
aI36
aI113
aI3
aS'on'
p94
aa(lp95
F0.16377330553769
aI36
aI0
aI3
aS'off'
p96
aa(lp97
F0.83622669446231
aI0
aI0
aI0
aS'timeAfterLastHit'
p98
aaa(lp99
(lp100
F0.5
aI39
aI120
aI3
aS'on'
p101
aa(lp102
F1.2130195609689
aI39
aI0
aI3
aS'off'
p103
aa(lp104
F2.7869804390311
aI39
aI120
aI3
aS'on'
p105
aa(lp106
F2.8641439850353
aI39
aI0
aI3
aS'off'
p107
aa(lp108
F0.6358560149647
aI0
aI0
aI0
aS'timeAfterLastHit'
p109
aaaI0
aI0
a(lp110
(lp111
F0.0
aI40
aI112
aI3
aS'on'
p112
aa(lp113
F0.31419171476773
aI40
aI0
aI3
aS'off'
p114
aa(lp115
F0.68580828523227
aI40
aI113
aI3
aS'on'
p116
aa(lp117
F0.27811283583014
aI40
aI0
aI3
aS'off'
p118
aa(lp119
F0.22188716416986
aI41
aI118
aI3
aS'on'
p120
aa(lp121
F0.30320181223397
aI41
aI0
aI3
aS'off'
p122
aa(lp123
F0.19679818776603
aI40
aI115
aI3
aS'on'
p124
aa(lp125
F0.34153087566847
aI40
aI0
aI3
aS'off'
p126
aa(lp127
F0.65846912433153
aI40
aI107
aI3
aS'on'
p128
aa(lp129
F0.42871611829742
aI40
aI0
aI3
aS'off'
p130
aa(lp131
F0.57128388170258
aI40
aI112
aI3
aS'on'
p132
aa(lp133
F0.29094403329873
aI40
aI0
aI3
aS'off'
p134
aa(lp135
F0.5423893000346
aI41
aI116
aI3
aS'on'
p136
aa(lp137
F0.16444267898169
aI41
aI0
aI3
aS'off'
p138
aa(lp139
F0.0022239876849808
aI40
aI114
aI3
aS'on'
p140
aa(lp141
F0.2149932856164
aI40
aI0
aI3
aS'off'
p142
aa(lp143
F0.2850067143836
aI41
aI116
aI3
aS'on'
p144
aa(lp145
F0.21404902431277
aI41
aI0
aI3
aS'off'
p146
aa(lp147
F0.28595097568723
aI40
aI115
aI3
aS'on'
p148
aa(lp149
F0.30434995568339
aI40
aI0
aI3
aS'off'
p150
aa(lp151
F0.69565004431661
aI40
aI111
aI3
aS'on'
p152
aa(lp153
F0.22751237910143
aI40
aI0
aI3
aS'off'
p154
aa(lp155
F0.77248762089857
aI0
aI0
aI0
aS'timeAfterLastHit'
p156
aaaI0
aI0
aI0
aI0
aI0
aI0
aI0
aI0
aI0
aI0
aI0
aI0
aI0
aI0
aI0
aI0
aI0
aI0
aI0
aI0
aI0
aI0
aI0
aI0
aI0
aI0
aI0
aI0
aI0
aI0
aI0
aI0
aI0
aI0
aI0
aI0
aI0
aI0
aI0
aI0
aI0
aI0
aI0
aI0
aI0
aI0
aI0
aI0
aI0
aI0
aI0
aI0
aI0
aI0
aI0
aI0
aI0
aI0
aI0
aI0
aI0
aI0
aa(lp157
(dp158
a(dp159
S'button'
p160
I31
sS'playing'
p161
I1
sa(dp162
a(dp163
a(dp164
a(dp165
a(dp166
a(dp167
a(dp168
a(dp169
a(dp170
a(dp171
a(dp172
a(dp173
a(dp174
a(dp175
a(dp176
a(dp177
a(dp178
a(dp179
a(dp180
a(dp181
a(dp182
a(dp183
a(dp184
a(dp185
g160
I61
sg161
I1
sa(dp186
g160
I62
sg161
I0
sa(dp187
a(dp188
a(dp189
a(dp190
a(dp191
a(dp192
a(dp193
g160
I71
sg161
I0
sa(dp194
g160
I72
sg161
I0
sa(dp195
a(dp196
a(dp197
g160
I75
sg161
I1
sa(dp198
a(dp199
a(dp200
a(dp201
a(dp202
a(dp203
a(dp204
a(dp205
a(dp206
a(dp207
a(dp208
a(dp209
a(dp210
a(dp211
a(dp212
a(dp213
a(dp214
a(dp215
a(dp216
a(dp217
a(dp218
a(dp219
a(dp220
a(dp221
a(dp222
a(dp223
a(dp224
a(dp225
a(dp226
a(dp227
a(dp228
a(dp229
a(dp230
a(dp231
a(dp232
a(dp233
a(dp234
a(dp235
a(dp236
a(dp237
a(dp238
a(dp239
a(dp240
a(dp241
a(dp242
a(dp243
a(dp244
a(dp245
a(dp246
a(dp247
a(dp248
a(dp249
a(dp250
a(dp251
a(dp252
a(dp253
a(dp254
a(dp255
a(dp256
a(dp257
a(dp258
a(dp259
aa(lp260
I60
aI60
aI36
aI36
aa(lp261
(lp262
I0
aI2
aI3
aI5
aI7
aI8
aI10
aa(lp263
I0
aI2
aI3
aI5
aI7
aI8
aI10
aa(lp264
I0
aI2
aI3
aI5
aI7
aI8
aI10
aa(lp265
I0
aI2
aI3
aI5
aI7
aI8
aI10
aa(lp266
I0
aI2
aI3
aI5
aI7
aI8
aI10
aa(lp267
I0
aI1
aI2
aI3
aI4
aI5
aI6
aI7
aI8
aI9
aI10
aI11
aaa(lp268
(lp269
(lp270
I0
aI0
aI0
aI0
aI0
aI0
aI0
aI0
aI0
aI0
aI0
aI0
aa(lp271
I0
aI0
aI0
aI0
aI0
aI0
aI0
aI0
aI0
aI0
aI0
aI0
aa(lp272
I0
aI0
aI0
aI0
aI0
aI0
aI0
aI0
aI0
aI0
aI0
aI0
aa(lp273
I0
aI0
aI0
aI0
aI0
aI0
aI0
aI0
aI0
aI0
aI0
aI0
aaa(lp274
(lp275
I0
aI0
aI0
aI0
aI0
aI0
aI0
aI0
aI0
aI0
aI0
aI0
aa(lp276
I0
aI0
aI0
aI0
aI0
aI0
aI0
aI0
aI0
aI0
aI0
aI0
aa(lp277
I0
aI0
aI0
aI0
aI0
aI0
aI0
aI0
aI0
aI0
aI0
aI0
aa(lp278
I0
aI0
aI0
aI0
aI0
aI0
aI0
aI0
aI0
aI0
aI0
aI0
aaa(lp279
(lp280
I0
aI0
aI0
aI0
aI0
aI0
aI0
aI0
aI0
aI0
aI0
aI0
aa(lp281
I0
aI0
aI0
aI0
aI0
aI0
aI0
aI0
aI0
aI0
aI0
aI0
aa(lp282
I0
aI0
aI0
aI0
aI0
aI0
aI0
aI0
aI0
aI0
aI0
aI0
aa(lp283
I0
aI0
aI0
aI0
aI0
aI0
aI0
aI0
aI0
aI0
aI0
aI0
aaa(lp284
(lp285
I0
aI0
aI0
aI0
aI0
aI0
aI0
aI0
aI0
aI0
aI0
aI0
aa(lp286
I0
aI0
aI0
aI0
aI0
aI0
aI0
aI0
aI0
aI0
aI0
aI0
aa(lp287
I0
aI0
aI0
aI0
aI0
aI0
aI0
aI0
aI0
aI0
aI0
aI0
aa(lp288
I0
aI0
aI0
aI0
aI0
aI0
aI0
aI0
aI0
aI0
aI0
aI0
aaaa(lp289
(lp290
I0
aI0
aI0
aI0
aI0
aI0
aI0
aI0
aI0
aI0
aI0
aI0
aa(lp291
I0
aI0
aI0
aI0
aI0
aI0
aI0
aI0
aI0
aI0
aI0
aI0
aa(lp292
I0
aI0
aI0
aI0
aI0
aI0
aI0
aI0
aI0
aI0
aI0
aI0
aa(lp293
I0
aI0
aI0
aI0
aI0
aI0
aI0
aI0
aI0
aI0
aI0
aI0
aaaa(lp294
(lp295
I0
a(lp296
(lp297
F0.0
aI31
aI99
aI3
ag5
aa(lp298
F0.65891966590061
aI31
aI0
aI3
ag7
aa(lp299
F0.34108033409939
aI31
aI103
aI3
ag9
aa(lp300
F0.69522106402292
aI31
aI0
aI3
ag11
aa(lp301
F0.30477893597708
aI31
aI99
aI3
ag13
aa(lp302
F0.69438935178641
aI31
aI0
aI3
ag15
aa(lp303
F0.30561064821359
aI31
aI110
aI3
ag17
aa(lp304
F0.65623286085247
aI31
aI0
aI3
ag19
aa(lp305
F0.34376713914753
aI0
aI0
aI0
ag21
aaaI0
aI0
aI0
aI0
aI0
aI0
aI0
aI0
aI0
aI0
aI0
aI0
aI0
aI0
aI0
aI0
aI0
aI0
aI0
aI0
a(lp306
(lp307
F0.56421944935209
aI31
aI121
aI2
aS'on'
p308
aa(lp309
F0.613302803642
aI31
aI0
aI2
aS'off'
p310
aa(lp311
F0.33082235890106
aI31
aI119
aI2
aS'on'
p312
aa(lp313
F0.65821710743876
aI31
aI0
aI2
aS'off'
p314
aa(lp315
F0.38889901010589
aI31
aI118
aI2
aS'on'
p316
aa(lp317
F0.67216875888516
aI31
aI0
aI2
aS'off'
p318
aa(lp319
F0.33263003994944
aI31
aI116
aI2
aS'on'
p320
aa(lp321
F0.53831089549749
aI31
aI0
aI2
aS'off'
p322
aa(lp323
F0.48315048032055
aI34
aI114
aI2
aS'on'
p324
aa(lp325
F0.61179574664311
aI34
aI0
aI2
aS'off'
p326
aa(lp327
F0.3422095874048
aI34
aI111
aI2
aS'on'
p328
aa(lp329
F0.58831229353018
aI34
aI0
aI2
aS'off'
p330
aa(lp331
F0.39061991361268
aI38
aI110
aI2
aS'on'
p332
aa(lp333
F0.69349057484578
aI38
aI0
aI2
aS'off'
p334
aa(lp335
F0.3548961760207
aI38
aI119
aI2
aS'on'
p336
aa(lp337
F0.42695480385009
aI38
aI0
aI2
aS'off'
p338
aa(lp339
F0.010000000000218
aI0
aI0
aI0
aS'timeAfterLastHit'
p340
aaa(lp341
(lp342
F0.49227794327635
aI31
aI114
aI2
aS'on'
p343
aa(lp344
F0.65913780027586
aI31
aI0
aI2
aS'off'
p345
aa(lp346
F0.2713360914986
aI31
aI117
aI2
aS'on'
p347
aa(lp348
F0.63601774967174
aI31
aI0
aI2
aS'off'
p349
aa(lp350
F0.36534356198717
aI31
aI121
aI2
aS'on'
p351
aa(lp352
F0.67017547363503
aI31
aI0
aI2
aS'off'
p353
aa(lp354
F0.36410229318244
aI31
aI120
aI2
aS'on'
p355
aa(lp356
F0.67049590087481
aI31
aI0
aI2
aS'off'
p357
aa(lp358
F0.38801378859171
aI34
aI117
aI2
aS'on'
p359
aa(lp360
F0.60116991338327
aI34
aI0
aI2
aS'off'
p361
aa(lp362
F0.37638399355092
aI34
aI118
aI2
aS'on'
p363
aa(lp364
F0.60135992305004
aI34
aI0
aI2
aS'off'
p365
aa(lp366
F0.43568852815588
aI38
aI118
aI2
aS'on'
p367
aa(lp368
F0.62536045169327
aI38
aI0
aI2
aS'off'
p369
aa(lp370
F0.3523185479462
aI38
aI119
aI2
aS'on'
p371
aa(lp372
F0.66080311603946
aI38
aI0
aI2
aS'off'
p373
aa(lp374
F0.42338002542601
aI31
aI120
aI2
aS'on'
p375
aa(lp376
F0.50707978463106
aI31
aI0
aI2
aS'off'
p377
aa(lp378
F0.41300469305497
aI31
aI120
aI2
aS'on'
p379
aa(lp380
F0.66051729255196
aI31
aI0
aI2
aS'off'
p381
aa(lp382
F0.35301780470763
aI31
aI121
aI2
aS'on'
p383
aa(lp384
F0.63722350658827
aI31
aI0
aI2
aS'off'
p385
aa(lp386
F0.38958028670822
aI31
aI120
aI2
aS'on'
p387
aa(lp388
F0.61320317926584
aI31
aI0
aI2
aS'off'
p389
aa(lp390
F0.38829588038789
aI34
aI118
aI2
aS'on'
p391
aa(lp392
F0.6128501042549
aI34
aI0
aI2
aS'off'
p393
aa(lp394
F0.30746015413388
aI34
aI120
aI2
aS'on'
p395
aa(lp396
F0.63522598938471
aI34
aI0
aI2
aS'off'
p397
aa(lp398
F0.39085507987329
aI38
aI121
aI2
aS'on'
p399
aa(lp400
F0.59858158148927
aI38
aI0
aI2
aS'off'
p401
aa(lp402
F0.38746703306606
aI38
aI120
aI2
aS'on'
p403
aa(lp404
F0.66093472567809
aI38
aI0
aI2
aS'off'
p405
aa(lp406
F0.41287520840524
aI31
aI122
aI2
aS'on'
p407
aa(lp408
F0.62245907256147
aI31
aI0
aI2
aS'off'
p409
aa(lp410
F0.40160050970371
aI31
aI120
aI2
aS'on'
p411
aa(lp412
F0.60125549435361
aI31
aI0
aI2
aS'off'
p413
aa(lp414
F0.41237103379535
aI31
aI120
aI2
aS'on'
p415
aa(lp416
F0.61476985990885
aI31
aI0
aI2
aS'off'
p417
aa(lp418
F0.37499460869003
aI31
aI119
aI2
aS'on'
p419
aa(lp420
F0.55470893043639
aI31
aI0
aI2
aS'off'
p421
aa(lp422
F0.41298512422145
aI34
aI119
aI2
aS'on'
p423
aa(lp424
F0.58854320305181
aI34
aI0
aI2
aS'off'
p425
aa(lp426
F0.36533777066143
aI34
aI119
aI2
aS'on'
p427
aa(lp428
F0.65962734783716
aI34
aI0
aI2
aS'off'
p429
aa(lp430
F0.35414563783161
aI38
aI118
aI2
aS'on'
p431
aa(lp432
F0.61388542033637
aI38
aI0
aI2
aS'off'
p433
aa(lp434
F0.41371023690226
aI38
aI114
aI2
aS'on'
p435
aa(lp436
F0.52998468849728
aI38
aI0
aI2
aS'off'
p437
aa(lp438
F0.4588926589422
aI41
aI116
aI2
aS'on'
p439
aa(lp440
F0.57787481817286
aI41
aI0
aI2
aS'off'
p441
aa(lp442
F0.39913224985867
aI41
aI118
aI2
aS'on'
p443
aa(lp444
F0.62391759732236
aI41
aI0
aI2
aS'off'
p445
aa(lp446
F0.42530713404085
aI41
aI118
aI2
aS'on'
p447
aa(lp448
F0.57624981636582
aI41
aI0
aI2
aS'off'
p449
aa(lp450
F0.37719409679812
aI41
aI114
aI2
aS'on'
p451
aa(lp452
F0.60124674426152
aI41
aI0
aI2
aS'off'
p453
aa(lp454
F0.42412904480079
aI40
aI120
aI2
aS'on'
p455
aa(lp456
F0.61248502294075
aI40
aI0
aI2
aS'off'
p457
aa(lp458
F0.38835218247186
aI40
aI123
aI2
aS'on'
p459
aa(lp460
F0.64846973313433
aI40
aI0
aI2
aS'off'
p461
aa(lp462
F0.40124431819277
aI40
aI123
aI2
aS'on'
p463
aa(lp464
F0.59952362788317
aI40
aI0
aI2
aS'off'
p465
aa(lp466
F0.39015781965281
aI40
aI123
aI2
aS'on'
p467
aa(lp468
F0.29395246550484
aI40
aI0
aI2
aS'off'
p469
aa(lp470
F0.11995432444746
aI0
aI0
aI0
aS'timeAfterLastHit'
p471
aaaI0
a(lp472
(lp473
F0.5
aI38
aI120
aI3
ag24
aa(lp474
F0.95324115163658
aI38
aI0
aI3
ag26
aa(lp475
F1.0467588483634
aI38
aI115
aI3
ag28
aa(lp476
F1.1735155769238
aI38
aI0
aI3
ag30
aa(lp477
F0.82648442307618
aI38
aI120
aI3
ag32
aa(lp478
F1.2662785580997
aI38
aI0
aI3
ag34
aa(lp479
F0.73372144190034
aI38
aI120
aI3
ag36
aa(lp480
F1.1735331852788
aI38
aI0
aI3
ag38
aa(lp481
F0.32646681472124
aI0
aI0
aI0
ag40
aaa(lp482
(lp483
F0.75710982805776
aI38
aI108
aI3
ag43
aa(lp484
F2.3654799207807
aI38
aI0
aI3
ag45
aa(lp485
F1.1181690560325
aI38
aI107
aI3
ag47
aa(lp486
F3.2891501871936
aI38
aI0
aI3
ag49
aa(lp487
F0.47009100793548
aI0
aI0
aI0
ag51
aaaI0
aI0
aI0
aI0
aI0
aI0
a(lp488
(lp489
F0.0
aI36
aI110
aI3
ag54
aa(lp490
F0.09875165837957
aI36
aI0
aI3
ag56
aa(lp491
F0.90124834162043
aI36
aI110
aI3
ag58
aa(lp492
F0.189526997332
aI36
aI0
aI3
ag60
aa(lp493
F0.310473002668
aI37
aI113
aI3
ag62
aa(lp494
F0.18934270846466
aI37
aI0
aI3
ag64
aa(lp495
F0.31065729153534
aI36
aI103
aI3
ag66
aa(lp496
F0.19110574135993
aI36
aI0
aI3
ag68
aa(lp497
F0.80889425864007
aI36
aI111
aI3
ag70
aa(lp498
F0.0631531828476
aI36
aI0
aI3
ag72
aa(lp499
F0.9368468171524
aI36
aI114
aI3
ag74
aa(lp500
F0.06266905209759
aI36
aI0
aI3
ag76
aa(lp501
F0.77066428123574
aI37
aI106
aI3
ag78
aa(lp502
F0.11366263007494
aI37
aI0
aI3
ag80
aa(lp503
F0.053004036591726
aI36
aI112
aI3
ag82
aa(lp504
F0.20214247313697
aI36
aI0
aI3
ag84
aa(lp505
F0.29785752686303
aI37
aI103
aI3
ag86
aa(lp506
F0.19057670350958
aI37
aI0
aI3
ag88
aa(lp507
F0.30942329649042
aI36
aI105
aI3
ag90
aa(lp508
F0.17599373070789
aI36
aI0
aI3
ag92
aa(lp509
F0.82400626929211
aI36
aI113
aI3
ag94
aa(lp510
F0.16377330553769
aI36
aI0
aI3
ag96
aa(lp511
F0.83622669446231
aI0
aI0
aI0
ag98
aaa(lp512
(lp513
F0.5
aI39
aI120
aI3
ag101
aa(lp514
F1.2130195609689
aI39
aI0
aI3
ag103
aa(lp515
F2.7869804390311
aI39
aI120
aI3
ag105
aa(lp516
F2.8641439850353
aI39
aI0
aI3
ag107
aa(lp517
F0.6358560149647
aI0
aI0
aI0
ag109
aaaI0
aI0
a(lp518
(lp519
F0.0
aI40
aI112
aI3
ag112
aa(lp520
F0.31419171476773
aI40
aI0
aI3
ag114
aa(lp521
F0.68580828523227
aI40
aI113
aI3
ag116
aa(lp522
F0.27811283583014
aI40
aI0
aI3
ag118
aa(lp523
F0.22188716416986
aI41
aI118
aI3
ag120
aa(lp524
F0.30320181223397
aI41
aI0
aI3
ag122
aa(lp525
F0.19679818776603
aI40
aI115
aI3
ag124
aa(lp526
F0.34153087566847
aI40
aI0
aI3
ag126
aa(lp527
F0.65846912433153
aI40
aI107
aI3
ag128
aa(lp528
F0.42871611829742
aI40
aI0
aI3
ag130
aa(lp529
F0.57128388170258
aI40
aI112
aI3
ag132
aa(lp530
F0.29094403329873
aI40
aI0
aI3
ag134
aa(lp531
F0.5423893000346
aI41
aI116
aI3
ag136
aa(lp532
F0.16444267898169
aI41
aI0
aI3
ag138
aa(lp533
F0.0022239876849808
aI40
aI114
aI3
ag140
aa(lp534
F0.2149932856164
aI40
aI0
aI3
ag142
aa(lp535
F0.2850067143836
aI41
aI116
aI3
ag144
aa(lp536
F0.21404902431277
aI41
aI0
aI3
ag146
aa(lp537
F0.28595097568723
aI40
aI115
aI3
ag148
aa(lp538
F0.30434995568339
aI40
aI0
aI3
ag150
aa(lp539
F0.69565004431661
aI40
aI111
aI3
ag152
aa(lp540
F0.22751237910143
aI40
aI0
aI3
ag154
aa(lp541
F0.77248762089857
aI0
aI0
aI0
ag156
aaaI0
aI0
aI0
aI0
aI0
aI0
aI0
aI0
aI0
aI0
aI0
aI0
aI0
aI0
aI0
aI0
aI0
aI0
aI0
aI0
aI0
aI0
aI0
aI0
aI0
aI0
aI0
aI0
aI0
aI0
aI0
aI0
aI0
aI0
aI0
aI0
aI0
aI0
aI0
aI0
aI0
aI0
aI0
aI0
aI0
aI0
aI0
aI0
aI0
aI0
aI0
aI0
aI0
aI0
aI0
aI0
aI0
aI0
aI0
aI0
aI0
aI0
aa(lp542
(dp543
a(dp544
g160
I31
sg161
I1
sa(dp545
a(dp546
a(dp547
a(dp548
a(dp549
a(dp550
a(dp551
a(dp552
a(dp553
a(dp554
a(dp555
a(dp556
a(dp557
a(dp558
a(dp559
a(dp560
a(dp561
a(dp562
a(dp563
a(dp564
a(dp565
g160
I56
sg161
I0
sa(dp566
g160
I57
sg161
I01
sa(dp567
a(dp568
g160
I61
sg161
I1
sa(dp569
g160
I62
sg161
I0
sa(dp570
a(dp571
a(dp572
a(dp573
a(dp574
a(dp575
a(dp576
g160
I71
sg161
I1
sa(dp577
g160
I72
sg161
I1
sa(dp578
a(dp579
a(dp580
g160
I75
sg161
I0
sa(dp581
a(dp582
a(dp583
a(dp584
a(dp585
a(dp586
a(dp587
a(dp588
a(dp589
a(dp590
a(dp591
a(dp592
a(dp593
a(dp594
a(dp595
a(dp596
a(dp597
a(dp598
a(dp599
a(dp600
a(dp601
a(dp602
a(dp603
a(dp604
a(dp605
a(dp606
a(dp607
a(dp608
a(dp609
a(dp610
a(dp611
a(dp612
a(dp613
a(dp614
a(dp615
a(dp616
a(dp617
a(dp618
a(dp619
a(dp620
a(dp621
a(dp622
a(dp623
a(dp624
a(dp625
a(dp626
a(dp627
a(dp628
a(dp629
a(dp630
a(dp631
a(dp632
a(dp633
a(dp634
a(dp635
a(dp636
a(dp637
a(dp638
a(dp639
a(dp640
a(dp641
a(dp642
aa(lp643
I60
aI60
aI36
aI36
aa(lp644
(lp645
I0
aI2
aI3
aI5
aI7
aI8
aI10
aa(lp646
I0
aI2
aI3
aI5
aI7
aI8
aI10
aa(lp647
I0
aI2
aI3
aI5
aI7
aI8
aI10
aa(lp648
I0
aI2
aI3
aI5
aI7
aI8
aI10
aa(lp649
I0
aI2
aI3
aI5
aI7
aI8
aI10
aa(lp650
I0
aI1
aI2
aI3
aI4
aI5
aI6
aI7
aI8
aI9
aI10
aI11
aaa(lp651
(lp652
(lp653
I0
aI0
aI0
aI0
aI0
aI0
aI0
aI0
aI0
aI0
aI0
aI0
aa(lp654
I0
aI0
aI0
aI0
aI0
aI0
aI0
aI0
aI0
aI0
aI0
aI0
aa(lp655
I0
aI0
aI0
aI0
aI0
aI0
aI0
aI0
aI0
aI0
aI0
aI0
aa(lp656
I0
aI0
aI0
aI0
aI0
aI0
aI0
aI0
aI0
aI0
aI0
aI0
aaa(lp657
(lp658
I0
aI0
aI0
aI0
aI0
aI0
aI0
aI0
aI0
aI0
aI0
aI0
aa(lp659
I0
aI0
aI0
aI0
aI0
aI0
aI0
aI0
aI0
aI0
aI0
aI0
aa(lp660
I0
aI0
aI0
aI0
aI0
aI0
aI0
aI0
aI0
aI0
aI0
aI0
aa(lp661
I0
aI0
aI0
aI0
aI0
aI0
aI0
aI0
aI0
aI0
aI0
aI0
aaa(lp662
(lp663
I0
aI0
aI0
aI0
aI0
aI0
aI0
aI0
aI0
aI0
aI0
aI0
aa(lp664
I0
aI0
aI0
aI0
aI0
aI0
aI0
aI0
aI0
aI0
aI0
aI0
aa(lp665
I0
aI0
aI0
aI0
aI0
aI0
aI0
aI0
aI0
aI0
aI0
aI0
aa(lp666
I0
aI0
aI0
aI0
aI0
aI0
aI0
aI0
aI0
aI0
aI0
aI0
aaa(lp667
(lp668
I0
aI0
aI0
aI0
aI0
aI0
aI0
aI0
aI0
aI0
aI0
aI0
aa(lp669
I0
aI0
aI0
aI0
aI0
aI0
aI0
aI0
aI0
aI0
aI0
aI0
aa(lp670
I0
aI0
aI0
aI0
aI0
aI0
aI0
aI0
aI0
aI0
aI0
aI0
aa(lp671
I0
aI0
aI0
aI0
aI0
aI0
aI0
aI0
aI0
aI0
aI0
aI0
aaaa(lp672
(lp673
I0
aI0
aI0
aI0
aI0
aI0
aI0
aI0
aI0
aI0
aI0
aI0
aa(lp674
I0
aI0
aI0
aI0
aI0
aI0
aI0
aI0
aI0
aI0
aI0
aI0
aa(lp675
I0
aI0
aI0
aI0
aI0
aI0
aI0
aI0
aI0
aI0
aI0
aI0
aa(lp676
I0
aI0
aI0
aI0
aI0
aI0
aI0
aI0
aI0
aI0
aI0
aI0
aaaa(lp677
(lp678
I0
a(lp679
(lp680
F0.0
aI31
aI99
aI3
ag5
aa(lp681
F0.65891966590061
aI31
aI0
aI3
ag7
aa(lp682
F0.34108033409939
aI31
aI103
aI3
ag9
aa(lp683
F0.69522106402292
aI31
aI0
aI3
ag11
aa(lp684
F0.30477893597708
aI31
aI99
aI3
ag13
aa(lp685
F0.69438935178641
aI31
aI0
aI3
ag15
aa(lp686
F0.30561064821359
aI31
aI110
aI3
ag17
aa(lp687
F0.65623286085247
aI31
aI0
aI3
ag19
aa(lp688
F0.34376713914753
aI0
aI0
aI0
ag21
aaaI0
aI0
aI0
aI0
a(lp689
(lp690
F0.022280124010649
aI67
aI114
aI1
aS'on'
p691
aa(lp692
F31.804039500968
aI67
aI0
aI1
aS'off'
p693
aa(lp694
F0.17368037502092
aI0
aI0
aI0
aS'timeAfterLastHit'
p695
aaa(lp696
(lp697
F0.038942152919844
aI74
aI90
aI1
aS'on'
p698
aa(lp699
F8.0116228372208
aI72
aI79
aI1
aS'on'
p700
aa(lp701
F0.094126738064006
aI74
aI0
aI1
aS'off'
p702
aa(lp703
F7.8880592366149
aI70
aI89
aI1
aS'on'
p704
aa(lp705
F0.093149186541268
aI72
aI0
aI1
aS'off'
p706
aa(lp707
F7.7568202098737
aI77
aI91
aI1
aS'on'
p708
aa(lp709
F0.059425325498523
aI70
aI0
aI1
aS'off'
p710
aa(lp711
F4.0362970412316
aI76
aI93
aI1
aS'on'
p712
aa(lp713
F0.070295431150953
aI77
aI0
aI1
aS'off'
p714
aa(lp715
F1.7330733408453
aI72
aI110
aI1
aS'on'
p716
aa(lp717
F0.058033331162733
aI76
aI0
aI1
aS'off'
p718
aa(lp719
F1.9785055260199
aI72
aI0
aI1
aS'off'
p720
aa(lp721
F0.18164964285643
aI0
aI0
aI0
aS'timeAfterLastHit'
p722
aaa(lp723
(lp724
F0.1456310114736
aI81
aI118
aI1
aS'on'
p725
aa(lp726
F15.787790768061
aI81
aI0
aI1
aS'off'
p727
aa(lp728
F0.11686472997644
aI79
aI114
aI1
aS'on'
p729
aa(lp730
F15.734362672298
aI79
aI0
aI1
aS'off'
p731
aa(lp732
F0.082417115072531
aI82
aI108
aI1
aS'on'
p733
aa(lp734
F16.107255950279
aI84
aI100
aI1
aS'on'
p735
aa(lp736
F0.10505749042022
aI82
aI0
aI1
aS'off'
p737
aa(lp738
F15.910620262419
aI84
aI0
aI1
aS'off'
p739
aa(lp740
F0.010000000000218
aI0
aI0
aI0
aS'timeAfterLastHit'
p741
aaaI0
aI0
aI0
aI0
aI0
aI0
aI0
aI0
aI0
aI0
aI0
aI0
aI0
a(lp742
(lp743
F0.56421944935209
aI31
aI121
aI2
ag308
aa(lp744
F0.613302803642
aI31
aI0
aI2
ag310
aa(lp745
F0.33082235890106
aI31
aI119
aI2
ag312
aa(lp746
F0.65821710743876
aI31
aI0
aI2
ag314
aa(lp747
F0.38889901010589
aI31
aI118
aI2
ag316
aa(lp748
F0.67216875888516
aI31
aI0
aI2
ag318
aa(lp749
F0.33263003994944
aI31
aI116
aI2
ag320
aa(lp750
F0.53831089549749
aI31
aI0
aI2
ag322
aa(lp751
F0.48315048032055
aI34
aI114
aI2
ag324
aa(lp752
F0.61179574664311
aI34
aI0
aI2
ag326
aa(lp753
F0.3422095874048
aI34
aI111
aI2
ag328
aa(lp754
F0.58831229353018
aI34
aI0
aI2
ag330
aa(lp755
F0.39061991361268
aI38
aI110
aI2
ag332
aa(lp756
F0.69349057484578
aI38
aI0
aI2
ag334
aa(lp757
F0.3548961760207
aI38
aI119
aI2
ag336
aa(lp758
F0.42695480385009
aI38
aI0
aI2
ag338
aa(lp759
F0.010000000000218
aI0
aI0
aI0
ag340
aaa(lp760
(lp761
F0.49227794327635
aI31
aI114
aI2
ag343
aa(lp762
F0.65913780027586
aI31
aI0
aI2
ag345
aa(lp763
F0.2713360914986
aI31
aI117
aI2
ag347
aa(lp764
F0.63601774967174
aI31
aI0
aI2
ag349
aa(lp765
F0.36534356198717
aI31
aI121
aI2
ag351
aa(lp766
F0.67017547363503
aI31
aI0
aI2
ag353
aa(lp767
F0.36410229318244
aI31
aI120
aI2
ag355
aa(lp768
F0.67049590087481
aI31
aI0
aI2
ag357
aa(lp769
F0.38801378859171
aI34
aI117
aI2
ag359
aa(lp770
F0.60116991338327
aI34
aI0
aI2
ag361
aa(lp771
F0.37638399355092
aI34
aI118
aI2
ag363
aa(lp772
F0.60135992305004
aI34
aI0
aI2
ag365
aa(lp773
F0.43568852815588
aI38
aI118
aI2
ag367
aa(lp774
F0.62536045169327
aI38
aI0
aI2
ag369
aa(lp775
F0.3523185479462
aI38
aI119
aI2
ag371
aa(lp776
F0.66080311603946
aI38
aI0
aI2
ag373
aa(lp777
F0.42338002542601
aI31
aI120
aI2
ag375
aa(lp778
F0.50707978463106
aI31
aI0
aI2
ag377
aa(lp779
F0.41300469305497
aI31
aI120
aI2
ag379
aa(lp780
F0.66051729255196
aI31
aI0
aI2
ag381
aa(lp781
F0.35301780470763
aI31
aI121
aI2
ag383
aa(lp782
F0.63722350658827
aI31
aI0
aI2
ag385
aa(lp783
F0.38958028670822
aI31
aI120
aI2
ag387
aa(lp784
F0.61320317926584
aI31
aI0
aI2
ag389
aa(lp785
F0.38829588038789
aI34
aI118
aI2
ag391
aa(lp786
F0.6128501042549
aI34
aI0
aI2
ag393
aa(lp787
F0.30746015413388
aI34
aI120
aI2
ag395
aa(lp788
F0.63522598938471
aI34
aI0
aI2
ag397
aa(lp789
F0.39085507987329
aI38
aI121
aI2
ag399
aa(lp790
F0.59858158148927
aI38
aI0
aI2
ag401
aa(lp791
F0.38746703306606
aI38
aI120
aI2
ag403
aa(lp792
F0.66093472567809
aI38
aI0
aI2
ag405
aa(lp793
F0.41287520840524
aI31
aI122
aI2
ag407
aa(lp794
F0.62245907256147
aI31
aI0
aI2
ag409
aa(lp795
F0.40160050970371
aI31
aI120
aI2
ag411
aa(lp796
F0.60125549435361
aI31
aI0
aI2
ag413
aa(lp797
F0.41237103379535
aI31
aI120
aI2
ag415
aa(lp798
F0.61476985990885
aI31
aI0
aI2
ag417
aa(lp799
F0.37499460869003
aI31
aI119
aI2
ag419
aa(lp800
F0.55470893043639
aI31
aI0
aI2
ag421
aa(lp801
F0.41298512422145
aI34
aI119
aI2
ag423
aa(lp802
F0.58854320305181
aI34
aI0
aI2
ag425
aa(lp803
F0.36533777066143
aI34
aI119
aI2
ag427
aa(lp804
F0.65962734783716
aI34
aI0
aI2
ag429
aa(lp805
F0.35414563783161
aI38
aI118
aI2
ag431
aa(lp806
F0.61388542033637
aI38
aI0
aI2
ag433
aa(lp807
F0.41371023690226
aI38
aI114
aI2
ag435
aa(lp808
F0.52998468849728
aI38
aI0
aI2
ag437
aa(lp809
F0.4588926589422
aI41
aI116
aI2
ag439
aa(lp810
F0.57787481817286
aI41
aI0
aI2
ag441
aa(lp811
F0.39913224985867
aI41
aI118
aI2
ag443
aa(lp812
F0.62391759732236
aI41
aI0
aI2
ag445
aa(lp813
F0.42530713404085
aI41
aI118
aI2
ag447
aa(lp814
F0.57624981636582
aI41
aI0
aI2
ag449
aa(lp815
F0.37719409679812
aI41
aI114
aI2
ag451
aa(lp816
F0.60124674426152
aI41
aI0
aI2
ag453
aa(lp817
F0.42412904480079
aI40
aI120
aI2
ag455
aa(lp818
F0.61248502294075
aI40
aI0
aI2
ag457
aa(lp819
F0.38835218247186
aI40
aI123
aI2
ag459
aa(lp820
F0.64846973313433
aI40
aI0
aI2
ag461
aa(lp821
F0.40124431819277
aI40
aI123
aI2
ag463
aa(lp822
F0.59952362788317
aI40
aI0
aI2
ag465
aa(lp823
F0.39015781965281
aI40
aI123
aI2
ag467
aa(lp824
F0.29395246550484
aI40
aI0
aI2
ag469
aa(lp825
F0.11995432444746
aI0
aI0
aI0
ag471
aaaI0
a(lp826
(lp827
F0.5
aI38
aI120
aI3
ag24
aa(lp828
F0.95324115163658
aI38
aI0
aI3
ag26
aa(lp829
F1.0467588483634
aI38
aI115
aI3
ag28
aa(lp830
F1.1735155769238
aI38
aI0
aI3
ag30
aa(lp831
F0.82648442307618
aI38
aI120
aI3
ag32
aa(lp832
F1.2662785580997
aI38
aI0
aI3
ag34
aa(lp833
F0.73372144190034
aI38
aI120
aI3
ag36
aa(lp834
F1.1735331852788
aI38
aI0
aI3
ag38
aa(lp835
F0.32646681472124
aI0
aI0
aI0
ag40
aaa(lp836
(lp837
F0.75710982805776
aI38
aI108
aI3
ag43
aa(lp838
F2.3654799207807
aI38
aI0
aI3
ag45
aa(lp839
F1.1181690560325
aI38
aI107
aI3
ag47
aa(lp840
F3.2891501871936
aI38
aI0
aI3
ag49
aa(lp841
F0.47009100793548
aI0
aI0
aI0
ag51
aaaI0
aI0
aI0
aI0
aI0
aI0
a(lp842
(lp843
F0.0
aI36
aI110
aI3
ag54
aa(lp844
F0.09875165837957
aI36
aI0
aI3
ag56
aa(lp845
F0.90124834162043
aI36
aI110
aI3
ag58
aa(lp846
F0.189526997332
aI36
aI0
aI3
ag60
aa(lp847
F0.310473002668
aI37
aI113
aI3
ag62
aa(lp848
F0.18934270846466
aI37
aI0
aI3
ag64
aa(lp849
F0.31065729153534
aI36
aI103
aI3
ag66
aa(lp850
F0.19110574135993
aI36
aI0
aI3
ag68
aa(lp851
F0.80889425864007
aI36
aI111
aI3
ag70
aa(lp852
F0.0631531828476
aI36
aI0
aI3
ag72
aa(lp853
F0.9368468171524
aI36
aI114
aI3
ag74
aa(lp854
F0.06266905209759
aI36
aI0
aI3
ag76
aa(lp855
F0.77066428123574
aI37
aI106
aI3
ag78
aa(lp856
F0.11366263007494
aI37
aI0
aI3
ag80
aa(lp857
F0.053004036591726
aI36
aI112
aI3
ag82
aa(lp858
F0.20214247313697
aI36
aI0
aI3
ag84
aa(lp859
F0.29785752686303
aI37
aI103
aI3
ag86
aa(lp860
F0.19057670350958
aI37
aI0
aI3
ag88
aa(lp861
F0.30942329649042
aI36
aI105
aI3
ag90
aa(lp862
F0.17599373070789
aI36
aI0
aI3
ag92
aa(lp863
F0.82400626929211
aI36
aI113
aI3
ag94
aa(lp864
F0.16377330553769
aI36
aI0
aI3
ag96
aa(lp865
F0.83622669446231
aI0
aI0
aI0
ag98
aaa(lp866
(lp867
F0.5
aI39
aI120
aI3
ag101
aa(lp868
F1.2130195609689
aI39
aI0
aI3
ag103
aa(lp869
F2.7869804390311
aI39
aI120
aI3
ag105
aa(lp870
F2.8641439850353
aI39
aI0
aI3
ag107
aa(lp871
F0.6358560149647
aI0
aI0
aI0
ag109
aaaI0
aI0
a(lp872
(lp873
F0.0
aI40
aI112
aI3
ag112
aa(lp874
F0.31419171476773
aI40
aI0
aI3
ag114
aa(lp875
F0.68580828523227
aI40
aI113
aI3
ag116
aa(lp876
F0.27811283583014
aI40
aI0
aI3
ag118
aa(lp877
F0.22188716416986
aI41
aI118
aI3
ag120
aa(lp878
F0.30320181223397
aI41
aI0
aI3
ag122
aa(lp879
F0.19679818776603
aI40
aI115
aI3
ag124
aa(lp880
F0.34153087566847
aI40
aI0
aI3
ag126
aa(lp881
F0.65846912433153
aI40
aI107
aI3
ag128
aa(lp882
F0.42871611829742
aI40
aI0
aI3
ag130
aa(lp883
F0.57128388170258
aI40
aI112
aI3
ag132
aa(lp884
F0.29094403329873
aI40
aI0
aI3
ag134
aa(lp885
F0.5423893000346
aI41
aI116
aI3
ag136
aa(lp886
F0.16444267898169
aI41
aI0
aI3
ag138
aa(lp887
F0.0022239876849808
aI40
aI114
aI3
ag140
aa(lp888
F0.2149932856164
aI40
aI0
aI3
ag142
aa(lp889
F0.2850067143836
aI41
aI116
aI3
ag144
aa(lp890
F0.21404902431277
aI41
aI0
aI3
ag146
aa(lp891
F0.28595097568723
aI40
aI115
aI3
ag148
aa(lp892
F0.30434995568339
aI40
aI0
aI3
ag150
aa(lp893
F0.69565004431661
aI40
aI111
aI3
ag152
aa(lp894
F0.22751237910143
aI40
aI0
aI3
ag154
aa(lp895
F0.77248762089857
aI0
aI0
aI0
ag156
aaaI0
aI0
aI0
aI0
aI0
aI0
aI0
aI0
aI0
aI0
aI0
aI0
aI0
aI0
aI0
aI0
aI0
aI0
aI0
aI0
aI0
aI0
aI0
aI0
aI0
aI0
aI0
aI0
aI0
aI0
aI0
aI0
aI0
aI0
aI0
aI0
aI0
aI0
aI0
aI0
aI0
aI0
aI0
aI0
aI0
aI0
aI0
aI0
aI0
aI0
aI0
aI0
aI0
aI0
aI0
aI0
aI0
aI0
aI0
aI0
aI0
aI0
aa(lp896
(dp897
a(dp898
g160
I31
sg161
I0
sa(dp899
a(dp900
a(dp901
a(dp902
a(dp903
g160
I36
sg161
I01
sa(dp904
g160
I37
sg161
I01
sa(dp905
g160
I38
sg161
I01
sa(dp906
a(dp907
a(dp908
a(dp909
a(dp910
a(dp911
a(dp912
a(dp913
a(dp914
a(dp915
a(dp916
a(dp917
a(dp918
a(dp919
g160
I56
sg161
I0
sa(dp920
g160
I57
sg161
I0
sa(dp921
a(dp922
g160
I61
sg161
I1
sa(dp923
g160
I62
sg161
I0
sa(dp924
a(dp925
a(dp926
a(dp927
a(dp928
a(dp929
a(dp930
g160
I71
sg161
I0
sa(dp931
g160
I72
sg161
I0
sa(dp932
a(dp933
a(dp934
g160
I75
sg161
I1
sa(dp935
a(dp936
a(dp937
a(dp938
a(dp939
a(dp940
a(dp941
a(dp942
a(dp943
a(dp944
a(dp945
a(dp946
a(dp947
a(dp948
a(dp949
a(dp950
a(dp951
a(dp952
a(dp953
a(dp954
a(dp955
a(dp956
a(dp957
a(dp958
a(dp959
a(dp960
a(dp961
a(dp962
a(dp963
a(dp964
a(dp965
a(dp966
a(dp967
a(dp968
a(dp969
a(dp970
a(dp971
a(dp972
a(dp973
a(dp974
a(dp975
a(dp976
a(dp977
a(dp978
a(dp979
a(dp980
a(dp981
a(dp982
a(dp983
a(dp984
a(dp985
a(dp986
a(dp987
a(dp988
a(dp989
a(dp990
a(dp991
a(dp992
a(dp993
a(dp994
a(dp995
a(dp996
aa(lp997
I60
aI60
aI36
aI36
aa(lp998
(lp999
I0
aI2
aI3
aI5
aI7
aI8
aI10
aa(lp1000
I0
aI2
aI3
aI5
aI7
aI8
aI10
aa(lp1001
I0
aI2
aI3
aI5
aI7
aI8
aI10
aa(lp1002
I0
aI2
aI3
aI5
aI7
aI8
aI10
aa(lp1003
I0
aI2
aI3
aI5
aI7
aI8
aI10
aa(lp1004
I0
aI1
aI2
aI3
aI4
aI5
aI6
aI7
aI8
aI9
aI10
aI11
aaa(lp1005
(lp1006
(lp1007
I0
aI0
aI0
aI0
aI0
aI0
aI0
aI0
aI0
aI0
aI0
aI0
aa(lp1008
I0
aI0
aI0
aI0
aI0
aI0
aI0
aI0
aI0
aI0
aI0
aI0
aa(lp1009
I0
aI0
aI0
aI0
aI0
aI0
aI0
aI0
aI0
aI0
aI0
aI0
aa(lp1010
I0
aI0
aI0
aI0
aI0
aI0
aI0
aI0
aI0
aI0
aI0
aI0
aaa(lp1011
(lp1012
I0
aI0
aI0
aI0
aI0
aI0
aI0
aI0
aI0
aI0
aI0
aI0
aa(lp1013
I0
aI0
aI0
aI0
aI0
aI0
aI0
aI0
aI0
aI0
aI0
aI0
aa(lp1014
I0
aI0
aI0
aI0
aI0
aI0
aI0
aI0
aI0
aI0
aI0
aI0
aa(lp1015
I0
aI0
aI0
aI0
aI0
aI0
aI0
aI0
aI0
aI0
aI0
aI0
aaa(lp1016
(lp1017
I0
aI0
aI0
aI0
aI0
aI0
aI0
aI0
aI0
aI0
aI0
aI0
aa(lp1018
I0
aI0
aI0
aI0
aI0
aI0
aI0
aI0
aI0
aI0
aI0
aI0
aa(lp1019
I0
aI0
aI0
aI0
aI0
aI0
aI0
aI0
aI0
aI0
aI0
aI0
aa(lp1020
I0
aI0
aI0
aI0
aI0
aI0
aI0
aI0
aI0
aI0
aI0
aI0
aaa(lp1021
(lp1022
I0
aI0
aI0
aI0
aI0
aI0
aI0
aI0
aI0
aI0
aI0
aI0
aa(lp1023
I0
aI0
aI0
aI0
aI0
aI0
aI0
aI0
aI0
aI0
aI0
aI0
aa(lp1024
I0
aI0
aI0
aI0
aI0
aI0
aI0
aI0
aI0
aI0
aI0
aI0
aa(lp1025
I0
aI0
aI0
aI0
aI0
aI0
aI0
aI0
aI0
aI0
aI0
aI0
aaaa(lp1026
(lp1027
I0
aI0
aI0
aI0
aI0
aI0
aI0
aI0
aI0
aI0
aI0
aI0
aa(lp1028
I0
aI0
aI0
aI0
aI0
aI0
aI0
aI0
aI0
aI0
aI0
aI0
aa(lp1029
I0
aI0
aI0
aI0
aI0
aI0
aI0
aI0
aI0
aI0
aI0
aI0
aa(lp1030
I0
aI0
aI0
aI0
aI0
aI0
aI0
aI0
aI0
aI0
aI0
aI0
aaaa(lp1031
(lp1032
I0
a(lp1033
(lp1034
F0.0
aI31
aI99
aI3
ag5
aa(lp1035
F0.65891966590061
aI31
aI0
aI3
ag7
aa(lp1036
F0.34108033409939
aI31
aI103
aI3
ag9
aa(lp1037
F0.69522106402292
aI31
aI0
aI3
ag11
aa(lp1038
F0.30477893597708
aI31
aI99
aI3
ag13
aa(lp1039
F0.69438935178641
aI31
aI0
aI3
ag15
aa(lp1040
F0.30561064821359
aI31
aI110
aI3
ag17
aa(lp1041
F0.65623286085247
aI31
aI0
aI3
ag19
aa(lp1042
F0.34376713914753
aI0
aI0
aI0
ag21
aaaI0
aI0
aI0
aI0
a(lp1043
(lp1044
F0.022280124010649
aI67
aI114
aI1
ag691
aa(lp1045
F31.804039500968
aI67
aI0
aI1
ag693
aa(lp1046
F0.17368037502092
aI0
aI0
aI0
ag695
aaa(lp1047
(lp1048
F0.038942152919844
aI74
aI90
aI1
ag698
aa(lp1049
F8.0116228372208
aI72
aI79
aI1
ag700
aa(lp1050
F0.094126738064006
aI74
aI0
aI1
ag702
aa(lp1051
F7.8880592366149
aI70
aI89
aI1
ag704
aa(lp1052
F0.093149186541268
aI72
aI0
aI1
ag706
aa(lp1053
F7.7568202098737
aI77
aI91
aI1
ag708
aa(lp1054
F0.059425325498523
aI70
aI0
aI1
ag710
aa(lp1055
F4.0362970412316
aI76
aI93
aI1
ag712
aa(lp1056
F0.070295431150953
aI77
aI0
aI1
ag714
aa(lp1057
F1.7330733408453
aI72
aI110
aI1
ag716
aa(lp1058
F0.058033331162733
aI76
aI0
aI1
ag718
aa(lp1059
F1.9785055260199
aI72
aI0
aI1
ag720
aa(lp1060
F0.18164964285643
aI0
aI0
aI0
ag722
aaa(lp1061
(lp1062
F0.1456310114736
aI81
aI118
aI1
ag725
aa(lp1063
F15.787790768061
aI81
aI0
aI1
ag727
aa(lp1064
F0.11686472997644
aI79
aI114
aI1
ag729
aa(lp1065
F15.734362672298
aI79
aI0
aI1
ag731
aa(lp1066
F0.082417115072531
aI82
aI108
aI1
ag733
aa(lp1067
F16.107255950279
aI84
aI100
aI1
ag735
aa(lp1068
F0.10505749042022
aI82
aI0
aI1
ag737
aa(lp1069
F15.910620262419
aI84
aI0
aI1
ag739
aa(lp1070
F0.010000000000218
aI0
aI0
aI0
ag741
aaaI0
aI0
aI0
aI0
aI0
aI0
aI0
aI0
aI0
aI0
aI0
aI0
aI0
a(lp1071
(lp1072
F0.56421944935209
aI31
aI121
aI2
ag308
aa(lp1073
F0.613302803642
aI31
aI0
aI2
ag310
aa(lp1074
F0.33082235890106
aI31
aI119
aI2
ag312
aa(lp1075
F0.65821710743876
aI31
aI0
aI2
ag314
aa(lp1076
F0.38889901010589
aI31
aI118
aI2
ag316
aa(lp1077
F0.67216875888516
aI31
aI0
aI2
ag318
aa(lp1078
F0.33263003994944
aI31
aI116
aI2
ag320
aa(lp1079
F0.53831089549749
aI31
aI0
aI2
ag322
aa(lp1080
F0.48315048032055
aI34
aI114
aI2
ag324
aa(lp1081
F0.61179574664311
aI34
aI0
aI2
ag326
aa(lp1082
F0.3422095874048
aI34
aI111
aI2
ag328
aa(lp1083
F0.58831229353018
aI34
aI0
aI2
ag330
aa(lp1084
F0.39061991361268
aI38
aI110
aI2
ag332
aa(lp1085
F0.69349057484578
aI38
aI0
aI2
ag334
aa(lp1086
F0.3548961760207
aI38
aI119
aI2
ag336
aa(lp1087
F0.42695480385009
aI38
aI0
aI2
ag338
aa(lp1088
F0.010000000000218
aI0
aI0
aI0
ag340
aaa(lp1089
(lp1090
F0.49227794327635
aI31
aI114
aI2
ag343
aa(lp1091
F0.65913780027586
aI31
aI0
aI2
ag345
aa(lp1092
F0.2713360914986
aI31
aI117
aI2
ag347
aa(lp1093
F0.63601774967174
aI31
aI0
aI2
ag349
aa(lp1094
F0.36534356198717
aI31
aI121
aI2
ag351
aa(lp1095
F0.67017547363503
aI31
aI0
aI2
ag353
aa(lp1096
F0.36410229318244
aI31
aI120
aI2
ag355
aa(lp1097
F0.67049590087481
aI31
aI0
aI2
ag357
aa(lp1098
F0.38801378859171
aI34
aI117
aI2
ag359
aa(lp1099
F0.60116991338327
aI34
aI0
aI2
ag361
aa(lp1100
F0.37638399355092
aI34
aI118
aI2
ag363
aa(lp1101
F0.60135992305004
aI34
aI0
aI2
ag365
aa(lp1102
F0.43568852815588
aI38
aI118
aI2
ag367
aa(lp1103
F0.62536045169327
aI38
aI0
aI2
ag369
aa(lp1104
F0.3523185479462
aI38
aI119
aI2
ag371
aa(lp1105
F0.66080311603946
aI38
aI0
aI2
ag373
aa(lp1106
F0.42338002542601
aI31
aI120
aI2
ag375
aa(lp1107
F0.50707978463106
aI31
aI0
aI2
ag377
aa(lp1108
F0.41300469305497
aI31
aI120
aI2
ag379
aa(lp1109
F0.66051729255196
aI31
aI0
aI2
ag381
aa(lp1110
F0.35301780470763
aI31
aI121
aI2
ag383
aa(lp1111
F0.63722350658827
aI31
aI0
aI2
ag385
aa(lp1112
F0.38958028670822
aI31
aI120
aI2
ag387
aa(lp1113
F0.61320317926584
aI31
aI0
aI2
ag389
aa(lp1114
F0.38829588038789
aI34
aI118
aI2
ag391
aa(lp1115
F0.6128501042549
aI34
aI0
aI2
ag393
aa(lp1116
F0.30746015413388
aI34
aI120
aI2
ag395
aa(lp1117
F0.63522598938471
aI34
aI0
aI2
ag397
aa(lp1118
F0.39085507987329
aI38
aI121
aI2
ag399
aa(lp1119
F0.59858158148927
aI38
aI0
aI2
ag401
aa(lp1120
F0.38746703306606
aI38
aI120
aI2
ag403
aa(lp1121
F0.66093472567809
aI38
aI0
aI2
ag405
aa(lp1122
F0.41287520840524
aI31
aI122
aI2
ag407
aa(lp1123
F0.62245907256147
aI31
aI0
aI2
ag409
aa(lp1124
F0.40160050970371
aI31
aI120
aI2
ag411
aa(lp1125
F0.60125549435361
aI31
aI0
aI2
ag413
aa(lp1126
F0.41237103379535
aI31
aI120
aI2
ag415
aa(lp1127
F0.61476985990885
aI31
aI0
aI2
ag417
aa(lp1128
F0.37499460869003
aI31
aI119
aI2
ag419
aa(lp1129
F0.55470893043639
aI31
aI0
aI2
ag421
aa(lp1130
F0.41298512422145
aI34
aI119
aI2
ag423
aa(lp1131
F0.58854320305181
aI34
aI0
aI2
ag425
aa(lp1132
F0.36533777066143
aI34
aI119
aI2
ag427
aa(lp1133
F0.65962734783716
aI34
aI0
aI2
ag429
aa(lp1134
F0.35414563783161
aI38
aI118
aI2
ag431
aa(lp1135
F0.61388542033637
aI38
aI0
aI2
ag433
aa(lp1136
F0.41371023690226
aI38
aI114
aI2
ag435
aa(lp1137
F0.52998468849728
aI38
aI0
aI2
ag437
aa(lp1138
F0.4588926589422
aI41
aI116
aI2
ag439
aa(lp1139
F0.57787481817286
aI41
aI0
aI2
ag441
aa(lp1140
F0.39913224985867
aI41
aI118
aI2
ag443
aa(lp1141
F0.62391759732236
aI41
aI0
aI2
ag445
aa(lp1142
F0.42530713404085
aI41
aI118
aI2
ag447
aa(lp1143
F0.57624981636582
aI41
aI0
aI2
ag449
aa(lp1144
F0.37719409679812
aI41
aI114
aI2
ag451
aa(lp1145
F0.60124674426152
aI41
aI0
aI2
ag453
aa(lp1146
F0.42412904480079
aI40
aI120
aI2
ag455
aa(lp1147
F0.61248502294075
aI40
aI0
aI2
ag457
aa(lp1148
F0.38835218247186
aI40
aI123
aI2
ag459
aa(lp1149
F0.64846973313433
aI40
aI0
aI2
ag461
aa(lp1150
F0.40124431819277
aI40
aI123
aI2
ag463
aa(lp1151
F0.59952362788317
aI40
aI0
aI2
ag465
aa(lp1152
F0.39015781965281
aI40
aI123
aI2
ag467
aa(lp1153
F0.29395246550484
aI40
aI0
aI2
ag469
aa(lp1154
F0.11995432444746
aI0
aI0
aI0
ag471
aaaI0
a(lp1155
(lp1156
F0.5
aI38
aI120
aI3
ag24
aa(lp1157
F0.95324115163658
aI38
aI0
aI3
ag26
aa(lp1158
F1.0467588483634
aI38
aI115
aI3
ag28
aa(lp1159
F1.1735155769238
aI38
aI0
aI3
ag30
aa(lp1160
F0.82648442307618
aI38
aI120
aI3
ag32
aa(lp1161
F1.2662785580997
aI38
aI0
aI3
ag34
aa(lp1162
F0.73372144190034
aI38
aI120
aI3
ag36
aa(lp1163
F1.1735331852788
aI38
aI0
aI3
ag38
aa(lp1164
F0.32646681472124
aI0
aI0
aI0
ag40
aaa(lp1165
(lp1166
F0.75710982805776
aI38
aI108
aI3
ag43
aa(lp1167
F2.3654799207807
aI38
aI0
aI3
ag45
aa(lp1168
F1.1181690560325
aI38
aI107
aI3
ag47
aa(lp1169
F3.2891501871936
aI38
aI0
aI3
ag49
aa(lp1170
F0.47009100793548
aI0
aI0
aI0
ag51
aaaI0
aI0
aI0
aI0
aI0
aI0
a(lp1171
(lp1172
F0.0
aI36
aI110
aI3
ag54
aa(lp1173
F0.09875165837957
aI36
aI0
aI3
ag56
aa(lp1174
F0.90124834162043
aI36
aI110
aI3
ag58
aa(lp1175
F0.189526997332
aI36
aI0
aI3
ag60
aa(lp1176
F0.310473002668
aI37
aI113
aI3
ag62
aa(lp1177
F0.18934270846466
aI37
aI0
aI3
ag64
aa(lp1178
F0.31065729153534
aI36
aI103
aI3
ag66
aa(lp1179
F0.19110574135993
aI36
aI0
aI3
ag68
aa(lp1180
F0.80889425864007
aI36
aI111
aI3
ag70
aa(lp1181
F0.0631531828476
aI36
aI0
aI3
ag72
aa(lp1182
F0.9368468171524
aI36
aI114
aI3
ag74
aa(lp1183
F0.06266905209759
aI36
aI0
aI3
ag76
aa(lp1184
F0.77066428123574
aI37
aI106
aI3
ag78
aa(lp1185
F0.11366263007494
aI37
aI0
aI3
ag80
aa(lp1186
F0.053004036591726
aI36
aI112
aI3
ag82
aa(lp1187
F0.20214247313697
aI36
aI0
aI3
ag84
aa(lp1188
F0.29785752686303
aI37
aI103
aI3
ag86
aa(lp1189
F0.19057670350958
aI37
aI0
aI3
ag88
aa(lp1190
F0.30942329649042
aI36
aI105
aI3
ag90
aa(lp1191
F0.17599373070789
aI36
aI0
aI3
ag92
aa(lp1192
F0.82400626929211
aI36
aI113
aI3
ag94
aa(lp1193
F0.16377330553769
aI36
aI0
aI3
ag96
aa(lp1194
F0.83622669446231
aI0
aI0
aI0
ag98
aaa(lp1195
(lp1196
F0.5
aI39
aI120
aI3
ag101
aa(lp1197
F1.2130195609689
aI39
aI0
aI3
ag103
aa(lp1198
F2.7869804390311
aI39
aI120
aI3
ag105
aa(lp1199
F2.8641439850353
aI39
aI0
aI3
ag107
aa(lp1200
F0.6358560149647
aI0
aI0
aI0
ag109
aaaI0
aI0
a(lp1201
(lp1202
F0.0
aI40
aI112
aI3
ag112
aa(lp1203
F0.31419171476773
aI40
aI0
aI3
ag114
aa(lp1204
F0.68580828523227
aI40
aI113
aI3
ag116
aa(lp1205
F0.27811283583014
aI40
aI0
aI3
ag118
aa(lp1206
F0.22188716416986
aI41
aI118
aI3
ag120
aa(lp1207
F0.30320181223397
aI41
aI0
aI3
ag122
aa(lp1208
F0.19679818776603
aI40
aI115
aI3
ag124
aa(lp1209
F0.34153087566847
aI40
aI0
aI3
ag126
aa(lp1210
F0.65846912433153
aI40
aI107
aI3
ag128
aa(lp1211
F0.42871611829742
aI40
aI0
aI3
ag130
aa(lp1212
F0.57128388170258
aI40
aI112
aI3
ag132
aa(lp1213
F0.29094403329873
aI40
aI0
aI3
ag134
aa(lp1214
F0.5423893000346
aI41
aI116
aI3
ag136
aa(lp1215
F0.16444267898169
aI41
aI0
aI3
ag138
aa(lp1216
F0.0022239876849808
aI40
aI114
aI3
ag140
aa(lp1217
F0.2149932856164
aI40
aI0
aI3
ag142
aa(lp1218
F0.2850067143836
aI41
aI116
aI3
ag144
aa(lp1219
F0.21404902431277
aI41
aI0
aI3
ag146
aa(lp1220
F0.28595097568723
aI40
aI115
aI3
ag148
aa(lp1221
F0.30434995568339
aI40
aI0
aI3
ag150
aa(lp1222
F0.69565004431661
aI40
aI111
aI3
ag152
aa(lp1223
F0.22751237910143
aI40
aI0
aI3
ag154
aa(lp1224
F0.77248762089857
aI0
aI0
aI0
ag156
aaaI0
aI0
aI0
aI0
aI0
aI0
aI0
aI0
aI0
aI0
aI0
aI0
aI0
aI0
aI0
aI0
aI0
aI0
aI0
aI0
aI0
aI0
aI0
aI0
aI0
aI0
aI0
aI0
aI0
aI0
aI0
aI0
aI0
aI0
aI0
aI0
aI0
aI0
aI0
aI0
aI0
aI0
aI0
aI0
aI0
aI0
aI0
aI0
aI0
aI0
aI0
aI0
aI0
aI0
aI0
aI0
aI0
aI0
aI0
aI0
aI0
aI0
aa(lp1225
(dp1226
a(dp1227
g160
I31
sg161
I0
sa(dp1228
a(dp1229
a(dp1230
a(dp1231
a(dp1232
g160
I36
sg161
I0
sa(dp1233
g160
I37
sg161
I0
sa(dp1234
g160
I38
sg161
I1
sa(dp1235
a(dp1236
a(dp1237
a(dp1238
a(dp1239
a(dp1240
a(dp1241
a(dp1242
a(dp1243
a(dp1244
a(dp1245
a(dp1246
a(dp1247
a(dp1248
g160
I56
sg161
I1
sa(dp1249
g160
I57
sg161
I0
sa(dp1250
a(dp1251
g160
I61
sg161
I1
sa(dp1252
g160
I62
sg161
I0
sa(dp1253
a(dp1254
a(dp1255
a(dp1256
a(dp1257
a(dp1258
a(dp1259
g160
I71
sg161
I0
sa(dp1260
g160
I72
sg161
I0
sa(dp1261
a(dp1262
a(dp1263
g160
I75
sg161
I1
sa(dp1264
a(dp1265
a(dp1266
a(dp1267
a(dp1268
a(dp1269
a(dp1270
a(dp1271
a(dp1272
a(dp1273
a(dp1274
a(dp1275
a(dp1276
a(dp1277
a(dp1278
a(dp1279
a(dp1280
a(dp1281
a(dp1282
a(dp1283
a(dp1284
a(dp1285
a(dp1286
a(dp1287
a(dp1288
a(dp1289
a(dp1290
a(dp1291
a(dp1292
a(dp1293
a(dp1294
a(dp1295
a(dp1296
a(dp1297
a(dp1298
a(dp1299
a(dp1300
a(dp1301
a(dp1302
a(dp1303
a(dp1304
a(dp1305
a(dp1306
a(dp1307
a(dp1308
a(dp1309
a(dp1310
a(dp1311
a(dp1312
a(dp1313
a(dp1314
a(dp1315
a(dp1316
a(dp1317
a(dp1318
a(dp1319
a(dp1320
a(dp1321
a(dp1322
a(dp1323
a(dp1324
a(dp1325
aa(lp1326
I60
aI60
aI36
aI36
aa(lp1327
(lp1328
I0
aI2
aI3
aI5
aI7
aI8
aI10
aa(lp1329
I0
aI2
aI3
aI5
aI7
aI8
aI10
aa(lp1330
I0
aI2
aI3
aI5
aI7
aI8
aI10
aa(lp1331
I0
aI2
aI3
aI5
aI7
aI8
aI10
aa(lp1332
I0
aI2
aI3
aI5
aI7
aI8
aI10
aa(lp1333
I0
aI1
aI2
aI3
aI4
aI5
aI6
aI7
aI8
aI9
aI10
aI11
aaa(lp1334
(lp1335
(lp1336
I0
aI0
aI0
aI0
aI0
aI0
aI0
aI0
aI0
aI0
aI0
aI0
aa(lp1337
I0
aI0
aI0
aI0
aI0
aI0
aI0
aI0
aI0
aI0
aI0
aI0
aa(lp1338
I0
aI0
aI0
aI0
aI0
aI0
aI0
aI0
aI0
aI0
aI0
aI0
aa(lp1339
I0
aI0
aI0
aI0
aI0
aI0
aI0
aI0
aI0
aI0
aI0
aI0
aaa(lp1340
(lp1341
I0
aI0
aI0
aI0
aI0
aI0
aI0
aI0
aI0
aI0
aI0
aI0
aa(lp1342
I0
aI0
aI0
aI0
aI0
aI0
aI0
aI0
aI0
aI0
aI0
aI0
aa(lp1343
I0
aI0
aI0
aI0
aI0
aI0
aI0
aI0
aI0
aI0
aI0
aI0
aa(lp1344
I0
aI0
aI0
aI0
aI0
aI0
aI0
aI0
aI0
aI0
aI0
aI0
aaa(lp1345
(lp1346
I0
aI0
aI0
aI0
aI0
aI0
aI0
aI0
aI0
aI0
aI0
aI0
aa(lp1347
I0
aI0
aI0
aI0
aI0
aI0
aI0
aI0
aI0
aI0
aI0
aI0
aa(lp1348
I0
aI0
aI0
aI0
aI0
aI0
aI0
aI0
aI0
aI0
aI0
aI0
aa(lp1349
I0
aI0
aI0
aI0
aI0
aI0
aI0
aI0
aI0
aI0
aI0
aI0
aaa(lp1350
(lp1351
I0
aI0
aI0
aI0
aI0
aI0
aI0
aI0
aI0
aI0
aI0
aI0
aa(lp1352
I0
aI0
aI0
aI0
aI0
aI0
aI0
aI0
aI0
aI0
aI0
aI0
aa(lp1353
I0
aI0
aI0
aI0
aI0
aI0
aI0
aI0
aI0
aI0
aI0
aI0
aa(lp1354
I0
aI0
aI0
aI0
aI0
aI0
aI0
aI0
aI0
aI0
aI0
aI0
aaaa(lp1355
(lp1356
I0
aI0
aI0
aI0
aI0
aI0
aI0
aI0
aI0
aI0
aI0
aI0
aa(lp1357
I0
aI0
aI0
aI0
aI0
aI0
aI0
aI0
aI0
aI0
aI0
aI0
aa(lp1358
I0
aI0
aI0
aI0
aI0
aI0
aI0
aI0
aI0
aI0
aI0
aI0
aa(lp1359
I0
aI0
aI0
aI0
aI0
aI0
aI0
aI0
aI0
aI0
aI0
aI0
aaaaI0
aI0
aI0
aI0
aI0
aI0
aI0
aI0
aI0
aI0
aI0
aI0
aI0
aI0
aI0
aI0
aI0
aI0
aI0
aI0
aI0
aI0
aI0
aI0
aI0
aI0
aI0
a.