(lp0
I0
a(lp1
(lp2
I0
a(lp3
(lp4
F0.0
aI31
aI99
aI3
aS'on'
p5
aa(lp6
F0.65891966590061
aI31
aI0
aI3
aS'off'
p7
aa(lp8
F0.34108033409939
aI31
aI103
aI3
aS'on'
p9
aa(lp10
F0.69522106402292
aI31
aI0
aI3
aS'off'
p11
aa(lp12
F0.30477893597708
aI31
aI99
aI3
aS'on'
p13
aa(lp14
F0.69438935178641
aI31
aI0
aI3
aS'off'
p15
aa(lp16
F0.30561064821359
aI31
aI110
aI3
aS'on'
p17
aa(lp18
F0.65623286085247
aI31
aI0
aI3
aS'off'
p19
aa(lp20
F0.34376713914753
aI0
aI0
aI0
aS'timeAfterLastHit'
p21
aaaI0
aI0
aI0
aI0
aI0
aI0
aI0
aI0
aI0
aI0
aI0
aI0
aI0
aI0
aI0
aI0
aI0
aI0
aI0
aI0
aI0
aI0
aI0
a(lp22
(lp23
F0.5
aI38
aI120
aI3
aS'on'
p24
aa(lp25
F0.95324115163658
aI38
aI0
aI3
aS'off'
p26
aa(lp27
F1.0467588483634
aI38
aI115
aI3
aS'on'
p28
aa(lp29
F1.1735155769238
aI38
aI0
aI3
aS'off'
p30
aa(lp31
F0.82648442307618
aI38
aI120
aI3
aS'on'
p32
aa(lp33
F1.2662785580997
aI38
aI0
aI3
aS'off'
p34
aa(lp35
F0.73372144190034
aI38
aI120
aI3
aS'on'
p36
aa(lp37
F1.1735331852788
aI38
aI0
aI3
aS'off'
p38
aa(lp39
F0.32646681472124
aI0
aI0
aI0
aS'timeAfterLastHit'
p40
aaa(lp41
(lp42
F0.75710982805776
aI38
aI108
aI3
aS'on'
p43
aa(lp44
F2.3654799207807
aI38
aI0
aI3
aS'off'
p45
aa(lp46
F1.1181690560325
aI38
aI107
aI3
aS'on'
p47
aa(lp48
F3.2891501871936
aI38
aI0
aI3
aS'off'
p49
aa(lp50
F0.47009100793548
aI0
aI0
aI0
aS'timeAfterLastHit'
p51
aaaI0
aI0
aI0
aI0
aI0
aI0
a(lp52
(lp53
F0.0
aI36
aI110
aI3
aS'on'
p54
aa(lp55
F0.09875165837957
aI36
aI0
aI3
aS'off'
p56
aa(lp57
F0.90124834162043
aI36
aI110
aI3
aS'on'
p58
aa(lp59
F0.189526997332
aI36
aI0
aI3
aS'off'
p60
aa(lp61
F0.310473002668
aI37
aI113
aI3
aS'on'
p62
aa(lp63
F0.18934270846466
aI37
aI0
aI3
aS'off'
p64
aa(lp65
F0.31065729153534
aI36
aI103
aI3
aS'on'
p66
aa(lp67
F0.19110574135993
aI36
aI0
aI3
aS'off'
p68
aa(lp69
F0.80889425864007
aI36
aI111
aI3
aS'on'
p70
aa(lp71
F0.0631531828476
aI36
aI0
aI3
aS'off'
p72
aa(lp73
F0.9368468171524
aI36
aI114
aI3
aS'on'
p74
aa(lp75
F0.06266905209759
aI36
aI0
aI3
aS'off'
p76
aa(lp77
F0.77066428123574
aI37
aI106
aI3
aS'on'
p78
aa(lp79
F0.11366263007494
aI37
aI0
aI3
aS'off'
p80
aa(lp81
F0.053004036591726
aI36
aI112
aI3
aS'on'
p82
aa(lp83
F0.20214247313697
aI36
aI0
aI3
aS'off'
p84
aa(lp85
F0.29785752686303
aI37
aI103
aI3
aS'on'
p86
aa(lp87
F0.19057670350958
aI37
aI0
aI3
aS'off'
p88
aa(lp89
F0.30942329649042
aI36
aI105
aI3
aS'on'
p90
aa(lp91
F0.17599373070789
aI36
aI0
aI3
aS'off'
p92
aa(lp93
F0.82400626929211
aI36
aI113
aI3
aS'on'
p94
aa(lp95
F0.16377330553769
aI36
aI0
aI3
aS'off'
p96
aa(lp97
F0.83622669446231
aI0
aI0
aI0
aS'timeAfterLastHit'
p98
aaa(lp99
(lp100
F0.5
aI39
aI120
aI3
aS'on'
p101
aa(lp102
F1.2130195609689
aI39
aI0
aI3
aS'off'
p103
aa(lp104
F2.7869804390311
aI39
aI120
aI3
aS'on'
p105
aa(lp106
F2.8641439850353
aI39
aI0
aI3
aS'off'
p107
aa(lp108
F0.6358560149647
aI0
aI0
aI0
aS'timeAfterLastHit'
p109
aaaI0
aI0
a(lp110
(lp111
F0.0
aI40
aI112
aI3
aS'on'
p112
aa(lp113
F0.31419171476773
aI40
aI0
aI3
aS'off'
p114
aa(lp115
F0.68580828523227
aI40
aI113
aI3
aS'on'
p116
aa(lp117
F0.27811283583014
aI40
aI0
aI3
aS'off'
p118
aa(lp119
F0.22188716416986
aI41
aI118
aI3
aS'on'
p120
aa(lp121
F0.30320181223397
aI41
aI0
aI3
aS'off'
p122
aa(lp123
F0.19679818776603
aI40
aI115
aI3
aS'on'
p124
aa(lp125
F0.34153087566847
aI40
aI0
aI3
aS'off'
p126
aa(lp127
F0.65846912433153
aI40
aI107
aI3
aS'on'
p128
aa(lp129
F0.42871611829742
aI40
aI0
aI3
aS'off'
p130
aa(lp131
F0.57128388170258
aI40
aI112
aI3
aS'on'
p132
aa(lp133
F0.29094403329873
aI40
aI0
aI3
aS'off'
p134
aa(lp135
F0.5423893000346
aI41
aI116
aI3
aS'on'
p136
aa(lp137
F0.16444267898169
aI41
aI0
aI3
aS'off'
p138
aa(lp139
F0.0022239876849808
aI40
aI114
aI3
aS'on'
p140
aa(lp141
F0.2149932856164
aI40
aI0
aI3
aS'off'
p142
aa(lp143
F0.2850067143836
aI41
aI116
aI3
aS'on'
p144
aa(lp145
F0.21404902431277
aI41
aI0
aI3
aS'off'
p146
aa(lp147
F0.28595097568723
aI40
aI115
aI3
aS'on'
p148
aa(lp149
F0.30434995568339
aI40
aI0
aI3
aS'off'
p150
aa(lp151
F0.69565004431661
aI40
aI111
aI3
aS'on'
p152
aa(lp153
F0.22751237910143
aI40
aI0
aI3
aS'off'
p154
aa(lp155
F0.77248762089857
aI0
aI0
aI0
aS'timeAfterLastHit'
p156
aaaI0
aI0
aI0
aI0
aI0
aI0
aI0
aI0
aI0
aI0
aI0
aI0
aI0
aI0
aI0
aI0
aI0
aI0
aI0
aI0
aI0
aI0
aI0
aI0
aI0
aI0
aI0
aI0
aI0
aI0
aI0
aI0
aI0
aI0
aI0
aI0
aI0
aI0
aI0
aI0
aI0
aI0
aI0
aI0
aI0
aI0
aI0
aI0
aI0
aI0
aI0
aI0
aI0
aI0
aI0
aI0
aI0
aI0
aI0
aI0
aI0
aI0
aa(lp157
(dp158
a(dp159
S'button'
p160
I31
sS'playing'
p161
I1
sa(dp162
a(dp163
a(dp164
a(dp165
a(dp166
a(dp167
a(dp168
a(dp169
a(dp170
a(dp171
a(dp172
a(dp173
a(dp174
a(dp175
a(dp176
a(dp177
a(dp178
a(dp179
a(dp180
a(dp181
a(dp182
a(dp183
a(dp184
a(dp185
g160
I61
sg161
I1
sa(dp186
g160
I62
sg161
I0
sa(dp187
a(dp188
a(dp189
a(dp190
a(dp191
a(dp192
a(dp193
g160
I71
sg161
I0
sa(dp194
g160
I72
sg161
I0
sa(dp195
a(dp196
a(dp197
g160
I75
sg161
I1
sa(dp198
a(dp199
a(dp200
a(dp201
a(dp202
a(dp203
a(dp204
a(dp205
a(dp206
a(dp207
a(dp208
a(dp209
a(dp210
a(dp211
a(dp212
a(dp213
a(dp214
a(dp215
a(dp216
a(dp217
a(dp218
a(dp219
a(dp220
a(dp221
a(dp222
a(dp223
a(dp224
a(dp225
a(dp226
a(dp227
a(dp228
a(dp229
a(dp230
a(dp231
a(dp232
a(dp233
a(dp234
a(dp235
a(dp236
a(dp237
a(dp238
a(dp239
a(dp240
a(dp241
a(dp242
a(dp243
a(dp244
a(dp245
a(dp246
a(dp247
a(dp248
a(dp249
a(dp250
a(dp251
a(dp252
a(dp253
a(dp254
a(dp255
a(dp256
a(dp257
a(dp258
a(dp259
aa(lp260
I60
aI60
aI36
aI36
aa(lp261
(lp262
I0
aI2
aI3
aI5
aI7
aI8
aI10
aa(lp263
I0
aI2
aI3
aI5
aI7
aI8
aI10
aa(lp264
I0
aI2
aI3
aI5
aI7
aI8
aI10
aa(lp265
I0
aI2
aI3
aI5
aI7
aI8
aI10
aa(lp266
I0
aI2
aI3
aI5
aI7
aI8
aI10
aa(lp267
I0
aI1
aI2
aI3
aI4
aI5
aI6
aI7
aI8
aI9
aI10
aI11
aaa(lp268
(lp269
(lp270
I0
aI0
aI0
aI0
aI0
aI0
aI0
aI0
aI0
aI0
aI0
aI0
aa(lp271
I0
aI0
aI0
aI0
aI0
aI0
aI0
aI0
aI0
aI0
aI0
aI0
aa(lp272
I0
aI0
aI0
aI0
aI0
aI0
aI0
aI0
aI0
aI0
aI0
aI0
aa(lp273
I0
aI0
aI0
aI0
aI0
aI0
aI0
aI0
aI0
aI0
aI0
aI0
aaa(lp274
(lp275
I0
aI0
aI0
aI0
aI0
aI0
aI0
aI0
aI0
aI0
aI0
aI0
aa(lp276
I0
aI0
aI0
aI0
aI0
aI0
aI0
aI0
aI0
aI0
aI0
aI0
aa(lp277
I0
aI0
aI0
aI0
aI0
aI0
aI0
aI0
aI0
aI0
aI0
aI0
aa(lp278
I0
aI0
aI0
aI0
aI0
aI0
aI0
aI0
aI0
aI0
aI0
aI0
aaa(lp279
(lp280
I0
aI0
aI0
aI0
aI0
aI0
aI0
aI0
aI0
aI0
aI0
aI0
aa(lp281
I0
aI0
aI0
aI0
aI0
aI0
aI0
aI0
aI0
aI0
aI0
aI0
aa(lp282
I0
aI0
aI0
aI0
aI0
aI0
aI0
aI0
aI0
aI0
aI0
aI0
aa(lp283
I0
aI0
aI0
aI0
aI0
aI0
aI0
aI0
aI0
aI0
aI0
aI0
aaa(lp284
(lp285
I0
aI0
aI0
aI0
aI0
aI0
aI0
aI0
aI0
aI0
aI0
aI0
aa(lp286
I0
aI0
aI0
aI0
aI0
aI0
aI0
aI0
aI0
aI0
aI0
aI0
aa(lp287
I0
aI0
aI0
aI0
aI0
aI0
aI0
aI0
aI0
aI0
aI0
aI0
aa(lp288
I0
aI0
aI0
aI0
aI0
aI0
aI0
aI0
aI0
aI0
aI0
aI0
aaaa(lp289
(lp290
I0
aI0
aI0
aI0
aI0
aI0
aI0
aI0
aI0
aI0
aI0
aI0
aa(lp291
I0
aI0
aI0
aI0
aI0
aI0
aI0
aI0
aI0
aI0
aI0
aI0
aa(lp292
I0
aI0
aI0
aI0
aI0
aI0
aI0
aI0
aI0
aI0
aI0
aI0
aa(lp293
I0
aI0
aI0
aI0
aI0
aI0
aI0
aI0
aI0
aI0
aI0
aI0
aaaa(lp294
(lp295
I0
a(lp296
(lp297
F0.0
aI31
aI99
aI3
ag5
aa(lp298
F0.65891966590061
aI31
aI0
aI3
ag7
aa(lp299
F0.34108033409939
aI31
aI103
aI3
ag9
aa(lp300
F0.69522106402292
aI31
aI0
aI3
ag11
aa(lp301
F0.30477893597708
aI31
aI99
aI3
ag13
aa(lp302
F0.69438935178641
aI31
aI0
aI3
ag15
aa(lp303
F0.30561064821359
aI31
aI110
aI3
ag17
aa(lp304
F0.65623286085247
aI31
aI0
aI3
ag19
aa(lp305
F0.34376713914753
aI0
aI0
aI0
ag21
aaaI0
aI0
aI0
aI0
aI0
aI0
aI0
aI0
aI0
aI0
aI0
aI0
aI0
aI0
aI0
aI0
aI0
aI0
aI0
aI0
a(lp306
(lp307
F0.56421944935209
aI31
aI121
aI2
aS'on'
p308
aa(lp309
F0.613302803642
aI31
aI0
aI2
aS'off'
p310
aa(lp311
F0.33082235890106
aI31
aI119
aI2
aS'on'
p312
aa(lp313
F0.65821710743876
aI31
aI0
aI2
aS'off'
p314
aa(lp315
F0.38889901010589
aI31
aI118
aI2
aS'on'
p316
aa(lp317
F0.67216875888516
aI31
aI0
aI2
aS'off'
p318
aa(lp319
F0.33263003994944
aI31
aI116
aI2
aS'on'
p320
aa(lp321
F0.53831089549749
aI31
aI0
aI2
aS'off'
p322
aa(lp323
F0.48315048032055
aI34
aI114
aI2
aS'on'
p324
aa(lp325
F0.61179574664311
aI34
aI0
aI2
aS'off'
p326
aa(lp327
F0.3422095874048
aI34
aI111
aI2
aS'on'
p328
aa(lp329
F0.58831229353018
aI34
aI0
aI2
aS'off'
p330
aa(lp331
F0.39061991361268
aI38
aI110
aI2
aS'on'
p332
aa(lp333
F0.69349057484578
aI38
aI0
aI2
aS'off'
p334
aa(lp335
F0.3548961760207
aI38
aI119
aI2
aS'on'
p336
aa(lp337
F0.42695480385009
aI38
aI0
aI2
aS'off'
p338
aa(lp339
F0.010000000000218
aI0
aI0
aI0
aS'timeAfterLastHit'
p340
aaa(lp341
(lp342
F0.49227794327635
aI31
aI114
aI2
aS'on'
p343
aa(lp344
F0.65913780027586
aI31
aI0
aI2
aS'off'
p345
aa(lp346
F0.2713360914986
aI31
aI117
aI2
aS'on'
p347
aa(lp348
F0.63601774967174
aI31
aI0
aI2
aS'off'
p349
aa(lp350
F0.36534356198717
aI31
aI121
aI2
aS'on'
p351
aa(lp352
F0.67017547363503
aI31
aI0
aI2
aS'off'
p353
aa(lp354
F0.36410229318244
aI31
aI120
aI2
aS'on'
p355
aa(lp356
F0.67049590087481
aI31
aI0
aI2
aS'off'
p357
aa(lp358
F0.38801378859171
aI34
aI117
aI2
aS'on'
p359
aa(lp360
F0.60116991338327
aI34
aI0
aI2
aS'off'
p361
aa(lp362
F0.37638399355092
aI34
aI118
aI2
aS'on'
p363
aa(lp364
F0.60135992305004
aI34
aI0
aI2
aS'off'
p365
aa(lp366
F0.43568852815588
aI38
aI118
aI2
aS'on'
p367
aa(lp368
F0.62536045169327
aI38
aI0
aI2
aS'off'
p369
aa(lp370
F0.3523185479462
aI38
aI119
aI2
aS'on'
p371
aa(lp372
F0.66080311603946
aI38
aI0
aI2
aS'off'
p373
aa(lp374
F0.42338002542601
aI31
aI120
aI2
aS'on'
p375
aa(lp376
F0.50707978463106
aI31
aI0
aI2
aS'off'
p377
aa(lp378
F0.41300469305497
aI31
aI120
aI2
aS'on'
p379
aa(lp380
F0.66051729255196
aI31
aI0
aI2
aS'off'
p381
aa(lp382
F0.35301780470763
aI31
aI121
aI2
aS'on'
p383
aa(lp384
F0.63722350658827
aI31
aI0
aI2
aS'off'
p385
aa(lp386
F0.38958028670822
aI31
aI120
aI2
aS'on'
p387
aa(lp388
F0.61320317926584
aI31
aI0
aI2
aS'off'
p389
aa(lp390
F0.38829588038789
aI34
aI118
aI2
aS'on'
p391
aa(lp392
F0.6128501042549
aI34
aI0
aI2
aS'off'
p393
aa(lp394
F0.30746015413388
aI34
aI120
aI2
aS'on'
p395
aa(lp396
F0.63522598938471
aI34
aI0
aI2
aS'off'
p397
aa(lp398
F0.39085507987329
aI38
aI121
aI2
aS'on'
p399
aa(lp400
F0.59858158148927
aI38
aI0
aI2
aS'off'
p401
aa(lp402
F0.38746703306606
aI38
aI120
aI2
aS'on'
p403
aa(lp404
F0.66093472567809
aI38
aI0
aI2
aS'off'
p405
aa(lp406
F0.41287520840524
aI31
aI122
aI2
aS'on'
p407
aa(lp408
F0.62245907256147
aI31
aI0
aI2
aS'off'
p409
aa(lp410
F0.40160050970371
aI31
aI120
aI2
aS'on'
p411
aa(lp412
F0.60125549435361
aI31
aI0
aI2
aS'off'
p413
aa(lp414
F0.41237103379535
aI31
aI120
aI2
aS'on'
p415
aa(lp416
F0.61476985990885
aI31
aI0
aI2
aS'off'
p417
aa(lp418
F0.37499460869003
aI31
aI119
aI2
aS'on'
p419
aa(lp420
F0.55470893043639
aI31
aI0
aI2
aS'off'
p421
aa(lp422
F0.41298512422145
aI34
aI119
aI2
aS'on'
p423
aa(lp424
F0.58854320305181
aI34
aI0
aI2
aS'off'
p425
aa(lp426
F0.36533777066143
aI34
aI119
aI2
aS'on'
p427
aa(lp428
F0.65962734783716
aI34
aI0
aI2
aS'off'
p429
aa(lp430
F0.35414563783161
aI38
aI118
aI2
aS'on'
p431
aa(lp432
F0.61388542033637
aI38
aI0
aI2
aS'off'
p433
aa(lp434
F0.41371023690226
aI38
aI114
aI2
aS'on'
p435
aa(lp436
F0.52998468849728
aI38
aI0
aI2
aS'off'
p437
aa(lp438
F0.4588926589422
aI41
aI116
aI2
aS'on'
p439
aa(lp440
F0.57787481817286
aI41
aI0
aI2
aS'off'
p441
aa(lp442
F0.39913224985867
aI41
aI118
aI2
aS'on'
p443
aa(lp444
F0.62391759732236
aI41
aI0
aI2
aS'off'
p445
aa(lp446
F0.42530713404085
aI41
aI118
aI2
aS'on'
p447
aa(lp448
F0.57624981636582
aI41
aI0
aI2
aS'off'
p449
aa(lp450
F0.37719409679812
aI41
aI114
aI2
aS'on'
p451
aa(lp452
F0.60124674426152
aI41
aI0
aI2
aS'off'
p453
aa(lp454
F0.42412904480079
aI40
aI120
aI2
aS'on'
p455
aa(lp456
F0.61248502294075
aI40
aI0
aI2
aS'off'
p457
aa(lp458
F0.38835218247186
aI40
aI123
aI2
aS'on'
p459
aa(lp460
F0.64846973313433
aI40
aI0
aI2
aS'off'
p461
aa(lp462
F0.40124431819277
aI40
aI123
aI2
aS'on'
p463
aa(lp464
F0.59952362788317
aI40
aI0
aI2
aS'off'
p465
aa(lp466
F0.39015781965281
aI40
aI123
aI2
aS'on'
p467
aa(lp468
F0.29395246550484
aI40
aI0
aI2
aS'off'
p469
aa(lp470
F0.11995432444746
aI0
aI0
aI0
aS'timeAfterLastHit'
p471
aaaI0
a(lp472
(lp473
F0.5
aI38
aI120
aI3
ag24
aa(lp474
F0.95324115163658
aI38
aI0
aI3
ag26
aa(lp475
F1.0467588483634
aI38
aI115
aI3
ag28
aa(lp476
F1.1735155769238
aI38
aI0
aI3
ag30
aa(lp477
F0.82648442307618
aI38
aI120
aI3
ag32
aa(lp478
F1.2662785580997
aI38
aI0
aI3
ag34
aa(lp479
F0.73372144190034
aI38
aI120
aI3
ag36
aa(lp480
F1.1735331852788
aI38
aI0
aI3
ag38
aa(lp481
F0.32646681472124
aI0
aI0
aI0
ag40
aaa(lp482
(lp483
F0.75710982805776
aI38
aI108
aI3
ag43
aa(lp484
F2.3654799207807
aI38
aI0
aI3
ag45
aa(lp485
F1.1181690560325
aI38
aI107
aI3
ag47
aa(lp486
F3.2891501871936
aI38
aI0
aI3
ag49
aa(lp487
F0.47009100793548
aI0
aI0
aI0
ag51
aaaI0
aI0
aI0
aI0
aI0
aI0
a(lp488
(lp489
F0.0
aI36
aI110
aI3
ag54
aa(lp490
F0.09875165837957
aI36
aI0
aI3
ag56
aa(lp491
F0.90124834162043
aI36
aI110
aI3
ag58
aa(lp492
F0.189526997332
aI36
aI0
aI3
ag60
aa(lp493
F0.310473002668
aI37
aI113
aI3
ag62
aa(lp494
F0.18934270846466
aI37
aI0
aI3
ag64
aa(lp495
F0.31065729153534
aI36
aI103
aI3
ag66
aa(lp496
F0.19110574135993
aI36
aI0
aI3
ag68
aa(lp497
F0.80889425864007
aI36
aI111
aI3
ag70
aa(lp498
F0.0631531828476
aI36
aI0
aI3
ag72
aa(lp499
F0.9368468171524
aI36
aI114
aI3
ag74
aa(lp500
F0.06266905209759
aI36
aI0
aI3
ag76
aa(lp501
F0.77066428123574
aI37
aI106
aI3
ag78
aa(lp502
F0.11366263007494
aI37
aI0
aI3
ag80
aa(lp503
F0.053004036591726
aI36
aI112
aI3
ag82
aa(lp504
F0.20214247313697
aI36
aI0
aI3
ag84
aa(lp505
F0.29785752686303
aI37
aI103
aI3
ag86
aa(lp506
F0.19057670350958
aI37
aI0
aI3
ag88
aa(lp507
F0.30942329649042
aI36
aI105
aI3
ag90
aa(lp508
F0.17599373070789
aI36
aI0
aI3
ag92
aa(lp509
F0.82400626929211
aI36
aI113
aI3
ag94
aa(lp510
F0.16377330553769
aI36
aI0
aI3
ag96
aa(lp511
F0.83622669446231
aI0
aI0
aI0
ag98
aaa(lp512
(lp513
F0.5
aI39
aI120
aI3
ag101
aa(lp514
F1.2130195609689
aI39
aI0
aI3
ag103
aa(lp515
F2.7869804390311
aI39
aI120
aI3
ag105
aa(lp516
F2.8641439850353
aI39
aI0
aI3
ag107
aa(lp517
F0.6358560149647
aI0
aI0
aI0
ag109
aaaI0
aI0
a(lp518
(lp519
F0.0
aI40
aI112
aI3
ag112
aa(lp520
F0.31419171476773
aI40
aI0
aI3
ag114
aa(lp521
F0.68580828523227
aI40
aI113
aI3
ag116
aa(lp522
F0.27811283583014
aI40
aI0
aI3
ag118
aa(lp523
F0.22188716416986
aI41
aI118
aI3
ag120
aa(lp524
F0.30320181223397
aI41
aI0
aI3
ag122
aa(lp525
F0.19679818776603
aI40
aI115
aI3
ag124
aa(lp526
F0.34153087566847
aI40
aI0
aI3
ag126
aa(lp527
F0.65846912433153
aI40
aI107
aI3
ag128
aa(lp528
F0.42871611829742
aI40
aI0
aI3
ag130
aa(lp529
F0.57128388170258
aI40
aI112
aI3
ag132
aa(lp530
F0.29094403329873
aI40
aI0
aI3
ag134
aa(lp531
F0.5423893000346
aI41
aI116
aI3
ag136
aa(lp532
F0.16444267898169
aI41
aI0
aI3
ag138
aa(lp533
F0.0022239876849808
aI40
aI114
aI3
ag140
aa(lp534
F0.2149932856164
aI40
aI0
aI3
ag142
aa(lp535
F0.2850067143836
aI41
aI116
aI3
ag144
aa(lp536
F0.21404902431277
aI41
aI0
aI3
ag146
aa(lp537
F0.28595097568723
aI40
aI115
aI3
ag148
aa(lp538
F0.30434995568339
aI40
aI0
aI3
ag150
aa(lp539
F0.69565004431661
aI40
aI111
aI3
ag152
aa(lp540
F0.22751237910143
aI40
aI0
aI3
ag154
aa(lp541
F0.77248762089857
aI0
aI0
aI0
ag156
aaaI0
aI0
aI0
aI0
aI0
aI0
aI0
aI0
aI0
aI0
aI0
aI0
aI0
aI0
aI0
aI0
aI0
aI0
aI0
aI0
aI0
aI0
aI0
aI0
aI0
aI0
aI0
aI0
aI0
aI0
aI0
aI0
aI0
aI0
aI0
aI0
aI0
aI0
aI0
aI0
aI0
aI0
aI0
aI0
aI0
aI0
aI0
aI0
aI0
aI0
aI0
aI0
aI0
aI0
aI0
aI0
aI0
aI0
aI0
aI0
aI0
aI0
aa(lp542
(dp543
a(dp544
g160
I31
sg161
I1
sa(dp545
a(dp546
a(dp547
a(dp548
a(dp549
a(dp550
a(dp551
a(dp552
a(dp553
a(dp554
a(dp555
a(dp556
a(dp557
a(dp558
a(dp559
a(dp560
a(dp561
a(dp562
a(dp563
a(dp564
a(dp565
g160
I56
sg161
I0
sa(dp566
g160
I57
sg161
I01
sa(dp567
a(dp568
g160
I61
sg161
I1
sa(dp569
g160
I62
sg161
I0
sa(dp570
a(dp571
a(dp572
a(dp573
a(dp574
a(dp575
a(dp576
g160
I71
sg161
I1
sa(dp577
g160
I72
sg161
I1
sa(dp578
a(dp579
a(dp580
g160
I75
sg161
I0
sa(dp581
a(dp582
a(dp583
a(dp584
a(dp585
a(dp586
a(dp587
a(dp588
a(dp589
a(dp590
a(dp591
a(dp592
a(dp593
a(dp594
a(dp595
a(dp596
a(dp597
a(dp598
a(dp599
a(dp600
a(dp601
a(dp602
a(dp603
a(dp604
a(dp605
a(dp606
a(dp607
a(dp608
a(dp609
a(dp610
a(dp611
a(dp612
a(dp613
a(dp614
a(dp615
a(dp616
a(dp617
a(dp618
a(dp619
a(dp620
a(dp621
a(dp622
a(dp623
a(dp624
a(dp625
a(dp626
a(dp627
a(dp628
a(dp629
a(dp630
a(dp631
a(dp632
a(dp633
a(dp634
a(dp635
a(dp636
a(dp637
a(dp638
a(dp639
a(dp640
a(dp641
a(dp642
aa(lp643
I60
aI60
aI36
aI36
aa(lp644
(lp645
I0
aI2
aI3
aI5
aI7
aI8
aI10
aa(lp646
I0
aI2
aI3
aI5
aI7
aI8
aI10
aa(lp647
I0
aI2
aI3
aI5
aI7
aI8
aI10
aa(lp648
I0
aI2
aI3
aI5
aI7
aI8
aI10
aa(lp649
I0
aI2
aI3
aI5
aI7
aI8
aI10
aa(lp650
I0
aI1
aI2
aI3
aI4
aI5
aI6
aI7
aI8
aI9
aI10
aI11
aaa(lp651
(lp652
(lp653
I0
aI0
aI0
aI0
aI0
aI0
aI0
aI0
aI0
aI0
aI0
aI0
aa(lp654
I0
aI0
aI0
aI0
aI0
aI0
aI0
aI0
aI0
aI0
aI0
aI0
aa(lp655
I0
aI0
aI0
aI0
aI0
aI0
aI0
aI0
aI0
aI0
aI0
aI0
aa(lp656
I0
aI0
aI0
aI0
aI0
aI0
aI0
aI0
aI0
aI0
aI0
aI0
aaa(lp657
(lp658
I0
aI0
aI0
aI0
aI0
aI0
aI0
aI0
aI0
aI0
aI0
aI0
aa(lp659
I0
aI0
aI0
aI0
aI0
aI0
aI0
aI0
aI0
aI0
aI0
aI0
aa(lp660
I0
aI0
aI0
aI0
aI0
aI0
aI0
aI0
aI0
aI0
aI0
aI0
aa(lp661
I0
aI0
aI0
aI0
aI0
aI0
aI0
aI0
aI0
aI0
aI0
aI0
aaa(lp662
(lp663
I0
aI0
aI0
aI0
aI0
aI0
aI0
aI0
aI0
aI0
aI0
aI0
aa(lp664
I0
aI0
aI0
aI0
aI0
aI0
aI0
aI0
aI0
aI0
aI0
aI0
aa(lp665
I0
aI0
aI0
aI0
aI0
aI0
aI0
aI0
aI0
aI0
aI0
aI0
aa(lp666
I0
aI0
aI0
aI0
aI0
aI0
aI0
aI0
aI0
aI0
aI0
aI0
aaa(lp667
(lp668
I0
aI0
aI0
aI0
aI0
aI0
aI0
aI0
aI0
aI0
aI0
aI0
aa(lp669
I0
aI0
aI0
aI0
aI0
aI0
aI0
aI0
aI0
aI0
aI0
aI0
aa(lp670
I0
aI0
aI0
aI0
aI0
aI0
aI0
aI0
aI0
aI0
aI0
aI0
aa(lp671
I0
aI0
aI0
aI0
aI0
aI0
aI0
aI0
aI0
aI0
aI0
aI0
aaaa(lp672
(lp673
I0
aI0
aI0
aI0
aI0
aI0
aI0
aI0
aI0
aI0
aI0
aI0
aa(lp674
I0
aI0
aI0
aI0
aI0
aI0
aI0
aI0
aI0
aI0
aI0
aI0
aa(lp675
I0
aI0
aI0
aI0
aI0
aI0
aI0
aI0
aI0
aI0
aI0
aI0
aa(lp676
I0
aI0
aI0
aI0
aI0
aI0
aI0
aI0
aI0
aI0
aI0
aI0
aaaaI0
aI0
aI0
aI0
aI0
aI0
aI0
aI0
aI0
aI0
aI0
aI0
aI0
aI0
aI0
aI0
aI0
aI0
aI0
aI0
aI0
aI0
aI0
aI0
aI0
aI0
aI0
aI0
aI0
a.