(lp0
I0
a(lp1
(lp2
I0
aI0
aI0
aI0
aI0
aI0
aI0
aI0
aI0
aI0
aI0
aI0
aI0
aI0
aI0
aI0
aI0
aI0
aI0
aI0
aI0
aI0
aI0
aI0
aI0
aI0
aI0
aI0
aI0
aI0
aI0
aI0
aI0
aI0
aI0
aI0
aI0
aI0
aI0
aI0
aI0
aI0
aI0
aI0
aI0
aI0
aI0
aI0
aI0
aI0
aI0
aI0
aI0
aI0
aI0
aI0
aI0
aI0
aI0
aI0
aI0
aI0
aI0
aI0
aI0
aI0
aI0
aI0
aI0
aI0
aI0
aI0
aI0
aI0
aI0
aI0
aI0
aI0
aI0
aI0
aI0
aI0
aI0
aI0
aI0
aI0
aI0
aI0
aI0
aI0
aI0
aI0
aI0
aI0
aI0
aI0
aI0
aI0
aI0
aI0
aa(lp3
(dp4
a(dp5
S'playing'
p6
I1
sa(dp7
a(dp8
g6
I0
sa(dp9
g6
I1
sa(dp10
a(dp11
g6
I0
sa(dp12
g6
I0
sa(dp13
g6
I0
sa(dp14
a(dp15
a(dp16
g6
I0
sa(dp17
g6
I0
sa(dp18
a(dp19
a(dp20
a(dp21
a(dp22
a(dp23
a(dp24
a(dp25
a(dp26
a(dp27
g6
I1
sa(dp28
g6
I0
sa(dp29
a(dp30
g6
I1
sa(dp31
g6
I0
sa(dp32
a(dp33
a(dp34
a(dp35
a(dp36
a(dp37
a(dp38
g6
I0
sa(dp39
g6
I0
sa(dp40
a(dp41
a(dp42
g6
I1
sa(dp43
a(dp44
a(dp45
a(dp46
a(dp47
a(dp48
a(dp49
a(dp50
a(dp51
a(dp52
a(dp53
a(dp54
a(dp55
a(dp56
a(dp57
a(dp58
a(dp59
a(dp60
a(dp61
a(dp62
a(dp63
a(dp64
a(dp65
a(dp66
a(dp67
a(dp68
a(dp69
a(dp70
a(dp71
a(dp72
a(dp73
a(dp74
a(dp75
a(dp76
a(dp77
a(dp78
a(dp79
a(dp80
a(dp81
a(dp82
a(dp83
a(dp84
a(dp85
a(dp86
a(dp87
a(dp88
a(dp89
a(dp90
a(dp91
a(dp92
a(dp93
a(dp94
a(dp95
a(dp96
a(dp97
a(dp98
a(dp99
a(dp100
a(dp101
a(dp102
a(dp103
a(dp104
aa(lp105
I60
aI60
aI36
aI36
aa(lp106
(lp107
I0
aI2
aI3
aI5
aI7
aI8
aI10
aa(lp108
I0
aI2
aI3
aI5
aI7
aI8
aI10
aa(lp109
I0
aI2
aI3
aI5
aI7
aI8
aI10
aa(lp110
I0
aI2
aI3
aI5
aI7
aI8
aI10
aa(lp111
I0
aI2
aI3
aI5
aI7
aI8
aI10
aa(lp112
I0
aI1
aI2
aI3
aI4
aI5
aI6
aI7
aI8
aI9
aI10
aI11
aaa(lp113
(lp114
(lp115
I0
aI0
aI0
aI0
aI0
aI0
aI0
aI0
aI0
aI0
aI0
aI0
aa(lp116
I0
aI0
aI0
aI0
aI0
aI0
aI0
aI0
aI0
aI0
aI0
aI0
aa(lp117
I0
aI0
aI0
aI0
aI0
aI0
aI0
aI0
aI0
aI0
aI0
aI0
aa(lp118
I0
aI0
aI0
aI0
aI0
aI0
aI0
aI0
aI0
aI0
aI0
aI0
aaa(lp119
(lp120
I0
aI0
aI0
aI0
aI0
aI0
aI0
aI0
aI0
aI0
aI0
aI0
aa(lp121
I0
aI0
aI0
aI0
aI0
aI0
aI0
aI0
aI0
aI0
aI0
aI0
aa(lp122
I0
aI0
aI0
aI0
aI0
aI0
aI0
aI0
aI0
aI0
aI0
aI0
aa(lp123
I0
aI0
aI0
aI0
aI0
aI0
aI0
aI0
aI0
aI0
aI0
aI0
aaa(lp124
(lp125
I0
aI0
aI0
aI0
aI0
aI0
aI0
aI0
aI0
aI0
aI0
aI0
aa(lp126
I0
aI0
aI0
aI0
aI0
aI0
aI0
aI0
aI0
aI0
aI0
aI0
aa(lp127
I0
aI0
aI0
aI0
aI0
aI0
aI0
aI0
aI0
aI0
aI0
aI0
aa(lp128
I0
aI0
aI0
aI0
aI0
aI0
aI0
aI0
aI0
aI0
aI0
aI0
aaa(lp129
(lp130
I0
aI0
aI0
aI0
aI0
aI0
aI0
aI0
aI0
aI0
aI0
aI0
aa(lp131
I0
aI0
aI0
aI0
aI0
aI0
aI0
aI0
aI0
aI0
aI0
aI0
aa(lp132
I0
aI0
aI0
aI0
aI0
aI0
aI0
aI0
aI0
aI0
aI0
aI0
aa(lp133
I0
aI0
aI0
aI0
aI0
aI0
aI0
aI0
aI0
aI0
aI0
aI0
aaaa(lp134
(lp135
I0
aI0
aI0
aI0
aI0
aI0
aI0
aI0
aI0
aI0
aI0
aI0
aa(lp136
I0
aI0
aI0
aI0
aI0
aI0
aI0
aI0
aI0
aI0
aI0
aI0
aa(lp137
I0
aI0
aI0
aI0
aI0
aI0
aI0
aI0
aI0
aI0
aI0
aI0
aa(lp138
I0
aI0
aI0
aI0
aI0
aI0
aI0
aI0
aI0
aI0
aI0
aI0
aaaa(lp139
(lp140
I0
aI0
aI0
aI0
aI0
aI0
aI0
aI0
aI0
aI0
aI0
aI0
aI0
aI0
aI0
aI0
aI0
aI0
aI0
aI0
aI0
aI0
aI0
aI0
aI0
aI0
aI0
aI0
aI0
aI0
aI0
aI0
aI0
aI0
aI0
aI0
aI0
aI0
aI0
aI0
aI0
aI0
aI0
aI0
aI0
aI0
aI0
aI0
aI0
aI0
aI0
aI0
aI0
aI0
aI0
aI0
aI0
aI0
aI0
aI0
aI0
aI0
aI0
aI0
aI0
aI0
aI0
aI0
aI0
aI0
aI0
aI0
aI0
aI0
aI0
aI0
aI0
aI0
aI0
aI0
aI0
aI0
aI0
aI0
aI0
aI0
aI0
aI0
aI0
aI0
aI0
aI0
aI0
aI0
aI0
aI0
aI0
aI0
aI0
aI0
aa(lp141
(dp142
a(dp143
g6
I1
sa(dp144
a(dp145
g6
I0
sa(dp146
g6
I1
sa(dp147
a(dp148
g6
I0
sa(dp149
g6
I0
sa(dp150
g6
I0
sa(dp151
a(dp152
a(dp153
g6
I0
sa(dp154
g6
I0
sa(dp155
a(dp156
a(dp157
a(dp158
a(dp159
a(dp160
a(dp161
a(dp162
a(dp163
a(dp164
g6
I1
sa(dp165
g6
I0
sa(dp166
a(dp167
g6
I1
sa(dp168
g6
I0
sa(dp169
a(dp170
a(dp171
a(dp172
a(dp173
a(dp174
a(dp175
g6
I0
sa(dp176
g6
I0
sa(dp177
a(dp178
a(dp179
g6
I1
sa(dp180
a(dp181
a(dp182
a(dp183
a(dp184
a(dp185
a(dp186
a(dp187
a(dp188
a(dp189
a(dp190
a(dp191
a(dp192
a(dp193
a(dp194
a(dp195
a(dp196
a(dp197
a(dp198
a(dp199
a(dp200
a(dp201
a(dp202
a(dp203
a(dp204
a(dp205
a(dp206
a(dp207
a(dp208
a(dp209
a(dp210
a(dp211
a(dp212
a(dp213
a(dp214
a(dp215
a(dp216
a(dp217
a(dp218
a(dp219
a(dp220
a(dp221
a(dp222
a(dp223
a(dp224
a(dp225
a(dp226
a(dp227
a(dp228
a(dp229
a(dp230
a(dp231
a(dp232
a(dp233
a(dp234
a(dp235
a(dp236
a(dp237
a(dp238
a(dp239
a(dp240
a(dp241
aa(lp242
I60
aI60
aI36
aI36
aa(lp243
(lp244
I0
aI2
aI3
aI5
aI7
aI8
aI10
aa(lp245
I0
aI2
aI3
aI5
aI7
aI8
aI10
aa(lp246
I0
aI2
aI3
aI5
aI7
aI8
aI10
aa(lp247
I0
aI2
aI3
aI5
aI7
aI8
aI10
aa(lp248
I0
aI2
aI3
aI5
aI7
aI8
aI10
aa(lp249
I0
aI1
aI2
aI3
aI4
aI5
aI6
aI7
aI8
aI9
aI10
aI11
aaa(lp250
(lp251
(lp252
I0
aI0
aI0
aI0
aI0
aI0
aI0
aI0
aI0
aI0
aI0
aI0
aa(lp253
I0
aI0
aI0
aI0
aI0
aI0
aI0
aI0
aI0
aI0
aI0
aI0
aa(lp254
I0
aI0
aI0
aI0
aI0
aI0
aI0
aI0
aI0
aI0
aI0
aI0
aa(lp255
I0
aI0
aI0
aI0
aI0
aI0
aI0
aI0
aI0
aI0
aI0
aI0
aaa(lp256
(lp257
I0
aI0
aI0
aI0
aI0
aI0
aI0
aI0
aI0
aI0
aI0
aI0
aa(lp258
I0
aI0
aI0
aI0
aI0
aI0
aI0
aI0
aI0
aI0
aI0
aI0
aa(lp259
I0
aI0
aI0
aI0
aI0
aI0
aI0
aI0
aI0
aI0
aI0
aI0
aa(lp260
I0
aI0
aI0
aI0
aI0
aI0
aI0
aI0
aI0
aI0
aI0
aI0
aaa(lp261
(lp262
I0
aI0
aI0
aI0
aI0
aI0
aI0
aI0
aI0
aI0
aI0
aI0
aa(lp263
I0
aI0
aI0
aI0
aI0
aI0
aI0
aI0
aI0
aI0
aI0
aI0
aa(lp264
I0
aI0
aI0
aI0
aI0
aI0
aI0
aI0
aI0
aI0
aI0
aI0
aa(lp265
I0
aI0
aI0
aI0
aI0
aI0
aI0
aI0
aI0
aI0
aI0
aI0
aaa(lp266
(lp267
I0
aI0
aI0
aI0
aI0
aI0
aI0
aI0
aI0
aI0
aI0
aI0
aa(lp268
I0
aI0
aI0
aI0
aI0
aI0
aI0
aI0
aI0
aI0
aI0
aI0
aa(lp269
I0
aI0
aI0
aI0
aI0
aI0
aI0
aI0
aI0
aI0
aI0
aI0
aa(lp270
I0
aI0
aI0
aI0
aI0
aI0
aI0
aI0
aI0
aI0
aI0
aI0
aaaa(lp271
(lp272
I0
aI0
aI0
aI0
aI0
aI0
aI0
aI0
aI0
aI0
aI0
aI0
aa(lp273
I0
aI0
aI0
aI0
aI0
aI0
aI0
aI0
aI0
aI0
aI0
aI0
aa(lp274
I0
aI0
aI0
aI0
aI0
aI0
aI0
aI0
aI0
aI0
aI0
aI0
aa(lp275
I0
aI0
aI0
aI0
aI0
aI0
aI0
aI0
aI0
aI0
aI0
aI0
aaaa(lp276
(lp277
I0
aI0
aI0
aI0
aI0
aI0
aI0
aI0
aI0
aI0
aI0
aI0
aI0
aI0
aI0
aI0
aI0
aI0
aI0
aI0
aI0
aI0
aI0
aI0
aI0
aI0
aI0
aI0
aI0
aI0
aI0
aI0
aI0
aI0
aI0
aI0
aI0
aI0
aI0
aI0
aI0
aI0
aI0
aI0
aI0
aI0
aI0
aI0
aI0
aI0
aI0
aI0
aI0
aI0
aI0
aI0
aI0
aI0
aI0
aI0
aI0
aI0
aI0
aI0
aI0
aI0
aI0
aI0
aI0
aI0
aI0
aI0
aI0
aI0
aI0
aI0
aI0
aI0
aI0
aI0
aI0
aI0
aI0
aI0
aI0
aI0
aI0
aI0
aI0
aI0
aI0
aI0
aI0
aI0
aI0
aI0
aI0
aI0
aI0
aI0
aa(lp278
(dp279
a(dp280
g6
I1
sa(dp281
a(dp282
g6
I0
sa(dp283
g6
I1
sa(dp284
a(dp285
g6
I0
sa(dp286
g6
I0
sa(dp287
g6
I0
sa(dp288
a(dp289
a(dp290
g6
I0
sa(dp291
g6
I0
sa(dp292
a(dp293
a(dp294
a(dp295
a(dp296
a(dp297
a(dp298
a(dp299
a(dp300
a(dp301
g6
I1
sa(dp302
g6
I0
sa(dp303
a(dp304
g6
I1
sa(dp305
g6
I0
sa(dp306
a(dp307
a(dp308
a(dp309
a(dp310
a(dp311
a(dp312
g6
I1
sa(dp313
g6
I0
sa(dp314
a(dp315
a(dp316
g6
I0
sa(dp317
a(dp318
a(dp319
a(dp320
a(dp321
a(dp322
a(dp323
a(dp324
a(dp325
a(dp326
a(dp327
a(dp328
a(dp329
a(dp330
a(dp331
a(dp332
a(dp333
a(dp334
a(dp335
a(dp336
a(dp337
a(dp338
a(dp339
a(dp340
a(dp341
a(dp342
a(dp343
a(dp344
a(dp345
a(dp346
a(dp347
a(dp348
a(dp349
a(dp350
a(dp351
a(dp352
a(dp353
a(dp354
a(dp355
a(dp356
a(dp357
a(dp358
a(dp359
a(dp360
a(dp361
a(dp362
a(dp363
a(dp364
a(dp365
a(dp366
a(dp367
a(dp368
a(dp369
a(dp370
a(dp371
a(dp372
a(dp373
a(dp374
a(dp375
a(dp376
a(dp377
a(dp378
aa(lp379
I60
aI60
aI36
aI36
aa(lp380
(lp381
I0
aI2
aI3
aI5
aI7
aI8
aI10
aa(lp382
I0
aI2
aI3
aI5
aI7
aI8
aI10
aa(lp383
I0
aI2
aI3
aI5
aI7
aI8
aI10
aa(lp384
I0
aI2
aI3
aI5
aI7
aI8
aI10
aa(lp385
I0
aI2
aI3
aI5
aI7
aI8
aI10
aa(lp386
I0
aI1
aI2
aI3
aI4
aI5
aI6
aI7
aI8
aI9
aI10
aI11
aaa(lp387
(lp388
(lp389
I0
aI0
aI0
aI0
aI0
aI0
aI0
aI0
aI0
aI0
aI0
aI0
aa(lp390
I0
aI0
aI0
aI0
aI0
aI0
aI0
aI0
aI0
aI0
aI0
aI0
aa(lp391
I0
aI0
aI0
aI0
aI0
aI0
aI0
aI0
aI0
aI0
aI0
aI0
aa(lp392
I0
aI0
aI0
aI0
aI0
aI0
aI0
aI0
aI0
aI0
aI0
aI0
aaa(lp393
(lp394
I0
aI0
aI0
aI0
aI0
aI0
aI0
aI0
aI0
aI0
aI0
aI0
aa(lp395
I0
aI0
aI0
aI0
aI0
aI0
aI0
aI0
aI0
aI0
aI0
aI0
aa(lp396
I0
aI0
aI0
aI0
aI0
aI0
aI0
aI0
aI0
aI0
aI0
aI0
aa(lp397
I0
aI0
aI0
aI0
aI0
aI0
aI0
aI0
aI0
aI0
aI0
aI0
aaa(lp398
(lp399
I0
aI0
aI0
aI0
aI0
aI0
aI0
aI0
aI0
aI0
aI0
aI0
aa(lp400
I0
aI0
aI0
aI0
aI0
aI0
aI0
aI0
aI0
aI0
aI0
aI0
aa(lp401
I0
aI0
aI0
aI0
aI0
aI0
aI0
aI0
aI0
aI0
aI0
aI0
aa(lp402
I0
aI0
aI0
aI0
aI0
aI0
aI0
aI0
aI0
aI0
aI0
aI0
aaa(lp403
(lp404
I0
aI0
aI0
aI0
aI0
aI0
aI0
aI0
aI0
aI0
aI0
aI0
aa(lp405
I0
aI0
aI0
aI0
aI0
aI0
aI0
aI0
aI0
aI0
aI0
aI0
aa(lp406
I0
aI0
aI0
aI0
aI0
aI0
aI0
aI0
aI0
aI0
aI0
aI0
aa(lp407
I0
aI0
aI0
aI0
aI0
aI0
aI0
aI0
aI0
aI0
aI0
aI0
aaaa(lp408
(lp409
I0
aI0
aI0
aI0
aI0
aI0
aI0
aI0
aI0
aI0
aI0
aI0
aa(lp410
I0
aI0
aI0
aI0
aI0
aI0
aI0
aI0
aI0
aI0
aI0
aI0
aa(lp411
I0
aI0
aI0
aI0
aI0
aI0
aI0
aI0
aI0
aI0
aI0
aI0
aa(lp412
I0
aI0
aI0
aI0
aI0
aI0
aI0
aI0
aI0
aI0
aI0
aI0
aaaa(lp413
(lp414
I0
aI0
aI0
aI0
aI0
aI0
aI0
aI0
aI0
aI0
aI0
aI0
aI0
aI0
aI0
aI0
aI0
aI0
aI0
aI0
aI0
aI0
aI0
aI0
aI0
aI0
aI0
aI0
aI0
aI0
aI0
aI0
aI0
aI0
aI0
aI0
aI0
aI0
aI0
aI0
aI0
aI0
aI0
aI0
aI0
aI0
aI0
aI0
aI0
aI0
aI0
aI0
aI0
aI0
aI0
aI0
aI0
aI0
aI0
aI0
aI0
aI0
aI0
aI0
aI0
aI0
aI0
aI0
aI0
aI0
aI0
aI0
aI0
aI0
aI0
aI0
aI0
aI0
aI0
aI0
aI0
aI0
aI0
aI0
aI0
aI0
aI0
aI0
aI0
aI0
aI0
aI0
aI0
aI0
aI0
aI0
aI0
aI0
aI0
aI0
aa(lp415
(dp416
a(dp417
g6
I1
sa(dp418
a(dp419
g6
I0
sa(dp420
g6
I1
sa(dp421
a(dp422
g6
I0
sa(dp423
g6
I0
sa(dp424
g6
I0
sa(dp425
a(dp426
a(dp427
g6
I0
sa(dp428
g6
I0
sa(dp429
a(dp430
a(dp431
a(dp432
a(dp433
a(dp434
a(dp435
a(dp436
a(dp437
a(dp438
g6
I1
sa(dp439
g6
I0
sa(dp440
a(dp441
g6
I1
sa(dp442
g6
I0
sa(dp443
a(dp444
a(dp445
a(dp446
a(dp447
a(dp448
a(dp449
g6
I1
sa(dp450
g6
I0
sa(dp451
a(dp452
a(dp453
g6
I0
sa(dp454
a(dp455
a(dp456
a(dp457
a(dp458
a(dp459
a(dp460
a(dp461
a(dp462
a(dp463
a(dp464
a(dp465
a(dp466
a(dp467
a(dp468
a(dp469
a(dp470
a(dp471
a(dp472
a(dp473
a(dp474
a(dp475
a(dp476
a(dp477
a(dp478
a(dp479
a(dp480
a(dp481
a(dp482
a(dp483
a(dp484
a(dp485
a(dp486
a(dp487
a(dp488
a(dp489
a(dp490
a(dp491
a(dp492
a(dp493
a(dp494
a(dp495
a(dp496
a(dp497
a(dp498
a(dp499
a(dp500
a(dp501
a(dp502
a(dp503
a(dp504
a(dp505
a(dp506
a(dp507
a(dp508
a(dp509
a(dp510
a(dp511
a(dp512
a(dp513
a(dp514
a(dp515
aa(lp516
I60
aI60
aI36
aI36
aa(lp517
(lp518
I0
aI2
aI3
aI5
aI7
aI8
aI10
aa(lp519
I0
aI2
aI3
aI5
aI7
aI8
aI10
aa(lp520
I0
aI2
aI3
aI5
aI7
aI8
aI10
aa(lp521
I0
aI2
aI3
aI5
aI7
aI8
aI10
aa(lp522
I0
aI2
aI3
aI5
aI7
aI8
aI10
aa(lp523
I0
aI1
aI2
aI3
aI4
aI5
aI6
aI7
aI8
aI9
aI10
aI11
aaa(lp524
(lp525
(lp526
I0
aI0
aI0
aI0
aI0
aI0
aI0
aI0
aI0
aI0
aI0
aI0
aa(lp527
I0
aI0
aI0
aI0
aI0
aI0
aI0
aI0
aI0
aI0
aI0
aI0
aa(lp528
I0
aI0
aI0
aI0
aI0
aI0
aI0
aI0
aI0
aI0
aI0
aI0
aa(lp529
I0
aI0
aI0
aI0
aI0
aI0
aI0
aI0
aI0
aI0
aI0
aI0
aaa(lp530
(lp531
I0
aI0
aI0
aI0
aI0
aI0
aI0
aI0
aI0
aI0
aI0
aI0
aa(lp532
I0
aI0
aI0
aI0
aI0
aI0
aI0
aI0
aI0
aI0
aI0
aI0
aa(lp533
I0
aI0
aI0
aI0
aI0
aI0
aI0
aI0
aI0
aI0
aI0
aI0
aa(lp534
I0
aI0
aI0
aI0
aI0
aI0
aI0
aI0
aI0
aI0
aI0
aI0
aaa(lp535
(lp536
I0
aI0
aI0
aI0
aI0
aI0
aI0
aI0
aI0
aI0
aI0
aI0
aa(lp537
I0
aI0
aI0
aI0
aI0
aI0
aI0
aI0
aI0
aI0
aI0
aI0
aa(lp538
I0
aI0
aI0
aI0
aI0
aI0
aI0
aI0
aI0
aI0
aI0
aI0
aa(lp539
I0
aI0
aI0
aI0
aI0
aI0
aI0
aI0
aI0
aI0
aI0
aI0
aaa(lp540
(lp541
I0
aI0
aI0
aI0
aI0
aI0
aI0
aI0
aI0
aI0
aI0
aI0
aa(lp542
I0
aI0
aI0
aI0
aI0
aI0
aI0
aI0
aI0
aI0
aI0
aI0
aa(lp543
I0
aI0
aI0
aI0
aI0
aI0
aI0
aI0
aI0
aI0
aI0
aI0
aa(lp544
I0
aI0
aI0
aI0
aI0
aI0
aI0
aI0
aI0
aI0
aI0
aI0
aaaa(lp545
(lp546
I0
aI0
aI0
aI0
aI0
aI0
aI0
aI0
aI0
aI0
aI0
aI0
aa(lp547
I0
aI0
aI0
aI0
aI0
aI0
aI0
aI0
aI0
aI0
aI0
aI0
aa(lp548
I0
aI0
aI0
aI0
aI0
aI0
aI0
aI0
aI0
aI0
aI0
aI0
aa(lp549
I0
aI0
aI0
aI0
aI0
aI0
aI0
aI0
aI0
aI0
aI0
aI0
aaaa(lp550
(lp551
I0
aI0
aI0
aI0
aI0
aI0
aI0
aI0
aI0
aI0
aI0
aI0
aI0
aI0
aI0
aI0
aI0
aI0
aI0
aI0
aI0
aI0
aI0
aI0
aI0
aI0
aI0
aI0
aI0
aI0
a(lp552
(lp553
F0.5
aI31
aI120
aI2
aS'on'
p554
aa(lp555
F0.4579300940004
aI31
aI0
aI2
aS'off'
p556
aa(lp557
F0.5420699059996
aI31
aI120
aI2
aS'on'
p558
aa(lp559
F0.54177763200005
aI31
aI0
aI2
aS'off'
p560
aa(lp561
F0.45822236799995
aI31
aI121
aI2
aS'on'
p562
aa(lp563
F0.59366601999955
aI31
aI0
aI2
aS'off'
p564
aa(lp565
F0.40633398000045
aI31
aI118
aI2
aS'on'
p566
aa(lp567
F0.55593204599973
aI31
aI0
aI2
aS'off'
p568
aa(lp569
F0.44406795400027
aI34
aI120
aI2
aS'on'
p570
aa(lp571
F0.60656612799994
aI34
aI0
aI2
aS'off'
p572
aa(lp573
F0.39343387200006
aI34
aI117
aI2
aS'on'
p574
aa(lp575
F0.55493520999971
aI34
aI0
aI2
aS'off'
p576
aa(lp577
F0.44506479000029
aI37
aI123
aI2
aS'on'
p578
aa(lp579
F0.58670086599977
aI37
aI0
aI2
aS'off'
p580
aa(lp581
F0.41329913400023
aI37
aI123
aI2
aS'on'
p582
aa(lp583
F0.41736095200031
aI37
aI0
aI2
aS'off'
p584
aa(lp585
F0.082639047999692
aI0
aI0
aI0
aS'timeAfterLastHit'
p586
aaaI0
a(lp587
(lp588
F0.012034010000207
aI31
aI95
aI2
aS'on'
p589
aa(lp590
F14.722928938
aI31
aI0
aI2
aS'off'
p591
aa(lp592
F0.1785338640002
aI29
aI71
aI2
aS'on'
p593
aa(lp594
F0.84932248999985
aI29
aI0
aI2
aS'off'
p595
aa(lp596
F0.23718069799997
aI0
aI0
aI0
aS'timeAfterLastHit'
p597
aaaI0
aI0
aI0
aI0
aI0
aI0
aI0
aI0
aI0
aI0
aI0
aI0
aI0
aI0
a(lp598
(lp599
F0.015020120144072
aI61
aI90
aI0
aS'on'
p600
aa(lp601
F1.7885518858557
aI61
aI0
aI0
aS'off'
p602
aa(lp603
F0.094635222000761
aI60
aI105
aI0
aS'on'
p604
aa(lp605
F1.8938977119997
aI60
aI0
aI0
aS'off'
p606
aa(lp607
F0.10426414599988
aI58
aI101
aI0
aS'on'
p608
aa(lp609
F1.8214214380005
aI58
aI0
aI0
aS'off'
p610
aa(lp611
F0.083368375999271
aI57
aI89
aI0
aS'on'
p612
aa(lp613
F2.1111848440005
aI58
aI115
aI0
aS'on'
p614
aa(lp615
F0.064233097999931
aI57
aI0
aI0
aS'off'
p616
aa(lp617
F1.8592501359999
aI58
aI0
aI0
aS'off'
p618
aa(lp619
F0.022156504000122
aI60
aI79
aI0
aS'on'
p620
aa(lp621
F1.9033657479995
aI60
aI0
aI0
aS'off'
p622
aa(lp623
F0.14754592200006
aI61
aI97
aI0
aS'on'
p624
aa(lp625
F10.825497972
aI61
aI0
aI0
aS'off'
p626
aa(lp627
F0.10328673799995
aI60
aI100
aI0
aS'on'
p628
aa(lp629
F1.0228053399996
aI60
aI0
aI0
aS'off'
p630
aa(lp631
F0.052667068000119
aI61
aI91
aI0
aS'on'
p632
aa(lp633
F7.5706585360003
aI61
aI0
aI0
aS'off'
p634
aa(lp635
F0.51618919399971
aI0
aI0
aI0
aS'timeAfterLastHit'
p636
aaa(lp637
(lp638
F0.045097690000148
aI58
aI98
aI0
aS'on'
p639
aa(lp640
F1.9046672579998
aI57
aI79
aI0
aS'on'
p641
aa(lp642
F0.054284009999719
aI58
aI0
aI0
aS'off'
p643
aa(lp644
F1.9845449280001
aI55
aI95
aI0
aS'on'
p645
aa(lp646
F0.14619941199999
aI57
aI0
aI0
aS'off'
p647
aa(lp648
F1.7025473780004
aI53
aI92
aI0
aS'on'
p649
aa(lp650
F0.084052751999479
aI55
aI0
aI0
aS'off'
p651
aa(lp652
F2.0887314420006
aI50
aI94
aI0
aS'on'
p653
aa(lp654
F0.063405133999368
aI53
aI0
aI0
aS'off'
p655
aa(lp656
F1.8726375000006
aI57
aI105
aI0
aS'on'
p657
aa(lp658
F0.10549162999996
aI50
aI0
aI0
aS'off'
p659
aa(lp660
F1.9022475880001
aI55
aI98
aI0
aS'on'
p661
aa(lp662
F0.1140655979998
aI57
aI0
aI0
aS'off'
p663
aa(lp664
F10.906989492
aI55
aI0
aI0
aS'off'
p665
aa(lp666
F0.0091836859992327
aI53
aI88
aI0
aS'on'
p667
aa(lp668
F0.97294694000084
aI53
aI0
aI0
aS'off'
p669
aa(lp670
F0.00019982199955848
aI55
aI98
aI0
aS'on'
p671
aa(lp672
F7.3306846160003
aI55
aI0
aI0
aS'off'
p673
aa(lp674
F0.71202312399964
aI0
aI0
aI0
aS'timeAfterLastHit'
p675
aaaI0
aI0
aI0
aI0
aI0
aI0
aI0
aI0
aI0
aI0
aI0
aI0
aI0
aI0
aI0
aI0
aI0
aI0
aI0
aI0
aI0
aI0
aI0
aI0
aI0
aI0
aI0
aI0
aI0
aI0
aI0
aI0
aI0
aI0
aI0
aI0
aI0
aI0
aI0
aI0
aI0
aI0
aI0
aI0
aI0
aI0
aI0
aI0
aI0
aI0
aI0
aa(lp676
(dp677
a(dp678
g6
I1
sa(dp679
a(dp680
g6
I0
sa(dp681
g6
I1
sa(dp682
a(dp683
g6
I0
sa(dp684
g6
I0
sa(dp685
g6
I0
sa(dp686
a(dp687
a(dp688
g6
I1
sa(dp689
g6
I1
sa(dp690
a(dp691
a(dp692
a(dp693
a(dp694
a(dp695
a(dp696
a(dp697
a(dp698
a(dp699
g6
I0
sa(dp700
g6
I0
sa(dp701
a(dp702
g6
I0
sa(dp703
g6
I0
sa(dp704
a(dp705
a(dp706
a(dp707
S'button'
p708
I66
sg6
I0
sa(dp709
a(dp710
g708
I68
sg6
I1
sa(dp711
g6
I1
sa(dp712
g6
I1
sa(dp713
a(dp714
a(dp715
g6
I0
sa(dp716
a(dp717
a(dp718
a(dp719
a(dp720
a(dp721
a(dp722
a(dp723
a(dp724
a(dp725
g708
I87
sg6
I0
sa(dp726
g708
I88
sg6
I0
sa(dp727
a(dp728
a(dp729
a(dp730
a(dp731
a(dp732
a(dp733
a(dp734
a(dp735
a(dp736
a(dp737
a(dp738
a(dp739
a(dp740
a(dp741
a(dp742
a(dp743
a(dp744
a(dp745
a(dp746
a(dp747
a(dp748
a(dp749
a(dp750
a(dp751
a(dp752
a(dp753
a(dp754
a(dp755
a(dp756
a(dp757
a(dp758
a(dp759
a(dp760
a(dp761
a(dp762
a(dp763
a(dp764
a(dp765
a(dp766
a(dp767
a(dp768
a(dp769
a(dp770
a(dp771
a(dp772
a(dp773
a(dp774
a(dp775
a(dp776
a(dp777
aa(lp778
I60
aI60
aI36
aI36
aa(lp779
(lp780
I0
aI2
aI3
aI5
aI7
aI8
aI10
aa(lp781
I0
aI2
aI3
aI5
aI7
aI8
aI10
aa(lp782
I0
aI2
aI3
aI5
aI7
aI8
aI10
aa(lp783
I0
aI2
aI3
aI5
aI7
aI8
aI10
aa(lp784
I0
aI2
aI3
aI5
aI7
aI8
aI10
aa(lp785
I0
aI1
aI2
aI3
aI4
aI5
aI6
aI7
aI8
aI9
aI10
aI11
aaa(lp786
(lp787
(lp788
I0
aI0
aI0
aI0
aI0
aI0
aI0
aI0
aI0
aI0
aI0
aI0
aa(lp789
I0
aI0
aI0
aI0
aI0
aI0
aI0
aI0
aI0
aI0
aI0
aI0
aa(lp790
I0
aI0
aI0
aI0
aI0
aI0
aI0
aI0
aI0
aI0
aI0
aI0
aa(lp791
I0
aI0
aI0
aI0
aI0
aI0
aI0
aI0
aI0
aI0
aI0
aI0
aaa(lp792
(lp793
I0
aI0
aI0
aI0
aI0
aI0
aI0
aI0
aI0
aI0
aI0
aI0
aa(lp794
I0
aI0
aI0
aI0
aI0
aI0
aI0
aI0
aI0
aI0
aI0
aI0
aa(lp795
I0
aI0
aI0
aI0
aI0
aI0
aI0
aI0
aI0
aI0
aI0
aI0
aa(lp796
I0
aI0
aI0
aI0
aI0
aI0
aI0
aI0
aI0
aI0
aI0
aI0
aaa(lp797
(lp798
I0
aI0
aI0
aI0
aI0
aI0
aI0
aI0
aI0
aI0
aI0
aI0
aa(lp799
I0
aI0
aI0
aI0
aI0
aI0
aI0
aI0
aI0
aI0
aI0
aI0
aa(lp800
I0
aI0
aI0
aI0
aI0
aI0
aI0
aI0
aI0
aI0
aI0
aI0
aa(lp801
I0
aI0
aI0
aI0
aI0
aI0
aI0
aI0
aI0
aI0
aI0
aI0
aaa(lp802
(lp803
I0
aI0
aI0
aI0
aI0
aI0
aI0
aI0
aI0
aI0
aI0
aI0
aa(lp804
I0
aI0
aI0
aI0
aI0
aI0
aI0
aI0
aI0
aI0
aI0
aI0
aa(lp805
I0
aI0
aI0
aI0
aI0
aI0
aI0
aI0
aI0
aI0
aI0
aI0
aa(lp806
I0
aI0
aI0
aI0
aI0
aI0
aI0
aI0
aI0
aI0
aI0
aI0
aaaa(lp807
(lp808
I0
aI0
aI0
aI0
aI0
aI0
aI0
aI0
aI0
aI0
aI0
aI0
aa(lp809
I0
aI0
aI0
aI0
aI0
aI0
aI0
aI0
aI0
aI0
aI0
aI0
aa(lp810
I0
aI0
aI0
aI0
aI0
aI0
aI0
aI0
aI0
aI0
aI0
aI0
aa(lp811
I0
aI0
aI0
aI0
aI0
aI0
aI0
aI0
aI0
aI0
aI0
aI0
aaaaI0
aI0
aI0
aI0
aI0
aI0
aI0
aI0
aI0
aI0
aI0
aI0
aI0
aI0
aI0
aI0
aI0
aI0
aI0
aI0
aI0
aI0
aI0
aI0
aI0
aI0
a.