(lp0
I0
a(lp1
(lp2
I0
aI0
aI0
aI0
aI0
aI0
aI0
aI0
aI0
aI0
aI0
aI0
aI0
aI0
aI0
aI0
aI0
aI0
aI0
aI0
a(lp3
(lp4
F1.0
aI81
aI94
aI1
aS'on'
p5
aa(lp6
F0.42758498630064
aI81
aI0
aI1
aS'off'
p7
aa(lp8
F1.239081680366
aI79
aI87
aI1
aS'on'
p9
aa(lp10
F0.48275338907933
aI79
aI0
aI1
aS'off'
p11
aa(lp12
F0.850579944254
aI76
aI89
aI1
aS'on'
p13
aa(lp14
F0.38527638194228
aI76
aI0
aI1
aS'off'
p15
aa(lp16
F1.1147236180577
aI79
aI93
aI1
aS'on'
p17
aa(lp18
F0.3724981486057
aI79
aI0
aI1
aS'off'
p19
aa(lp20
F0.6275018513943
aI76
aI68
aI1
aS'on'
p21
aa(lp22
F0.20567129150004
aI76
aI0
aI1
aS'off'
p23
aa(lp24
F0.29432870849996
aI74
aI75
aI1
aS'on'
p25
aa(lp26
F0.38558987404031
aI74
aI0
aI1
aS'off'
p27
aa(lp28
F1.6144101259597
aI76
aI84
aI1
aS'on'
p29
aa(lp30
F0.35877821718623
aI76
aI0
aI1
aS'off'
p31
aa(lp32
F1.1412217828138
aI74
aI64
aI1
aS'on'
p33
aa(lp34
F0.39926164740791
aI74
aI0
aI1
aS'off'
p35
aa(lp36
F1.1007383525921
aI72
aI58
aI1
aS'on'
p37
aa(lp38
F0.44066761149861
aI72
aI0
aI1
aS'off'
p39
aa(lp40
F1.0593323885014
aI74
aI80
aI1
aS'on'
p41
aa(lp42
F0.42535846697047
aI74
aI0
aI1
aS'off'
p43
aa(lp44
F1.0746415330295
aI76
aI76
aI1
aS'on'
p45
aa(lp46
F0.48160486336474
aI76
aI0
aI1
aS'off'
p47
aa(lp48
F0.51839513663526
aI0
aI0
aI0
aS'timeAfterLastHit'
p49
aaaI0
aI0
aI0
aI0
a(lp50
(lp51
F0.0
aI72
aI88
aI1
aS'on'
p52
aa(lp53
F0.14411129530527
aI72
aI0
aI1
aS'off'
p54
aa(lp55
F0.35588870469473
aI71
aI90
aI1
aS'on'
p56
aa(lp57
F0.12052055143431
aI71
aI0
aI1
aS'off'
p58
aa(lp59
F0.37947944856569
aI69
aI82
aI1
aS'on'
p60
aa(lp61
F0.17024066109661
aI69
aI0
aI1
aS'off'
p62
aa(lp63
F0.32975933890339
aI71
aI95
aI1
aS'on'
p64
aa(lp65
F0.13296291171991
aI71
aI0
aI1
aS'off'
p66
aa(lp67
F0.36703708828009
aI69
aI97
aI1
aS'on'
p68
aa(lp69
F0.21642484567838
aI69
aI0
aI1
aS'off'
p70
aa(lp71
F0.28357515432162
aI67
aI97
aI1
aS'on'
p72
aa(lp73
F0.14576355052941
aI67
aI0
aI1
aS'off'
p74
aa(lp75
F0.35423644947059
aI69
aI85
aI1
aS'on'
p76
aa(lp77
F0.19311171729441
aI69
aI0
aI1
aS'off'
p78
aa(lp79
F0.30688828270559
aI67
aI94
aI1
aS'on'
p80
aa(lp81
F0.15693226240001
aI67
aI0
aI1
aS'off'
p82
aa(lp83
F0.34306773759999
aI69
aI97
aI1
aS'on'
p84
aa(lp85
F0.2161993764621
aI69
aI0
aI1
aS'off'
p86
aa(lp87
F0.2838006235379
aI67
aI94
aI1
aS'on'
p88
aa(lp89
F0.13281404818372
aI67
aI0
aI1
aS'off'
p90
aa(lp91
F0.36718595181628
aI69
aI97
aI1
aS'on'
p92
aa(lp93
F0.18101217377534
aI69
aI0
aI1
aS'off'
p94
aa(lp95
F0.31898782622466
aI67
aI101
aI1
aS'on'
p96
aa(lp97
F0.18121460134989
aI67
aI0
aI1
aS'off'
p98
aa(lp99
F0.31878539865011
aI69
aI98
aI1
aS'on'
p100
aa(lp101
F0.19320551833516
aI69
aI0
aI1
aS'off'
p102
aa(lp103
F0.30679448166484
aI71
aI101
aI1
aS'on'
p104
aa(lp105
F0.16879679499561
aI71
aI0
aI1
aS'off'
p106
aa(lp107
F0.33120320500439
aI69
aI98
aI1
aS'on'
p108
aa(lp109
F0.1932552578528
aI69
aI0
aI1
aS'off'
p110
aa(lp111
F0.3067447421472
aI67
aI109
aI1
aS'on'
p112
aa(lp113
F0.18089902420979
aI67
aI0
aI1
aS'off'
p114
aa(lp115
F0.31910097579021
aI0
aI0
aI0
aS'timeAfterLastHit'
p116
aaa(lp117
(lp118
F0.0
aI72
aI79
aI1
aS'on'
p119
aa(lp120
F0.13064956921244
aI72
aI0
aI1
aS'off'
p121
aa(lp122
F0.36935043078756
aI71
aI35
aI1
aS'on'
p123
aa(lp124
F0.29279914340896
aI71
aI0
aI1
aS'off'
p125
aa(lp126
F0.20720085659104
aI69
aI89
aI1
aS'on'
p127
aa(lp128
F0.13787719890206
aI69
aI0
aI1
aS'off'
p129
aa(lp130
F0.36212280109794
aI71
aI35
aI1
aS'on'
p131
aa(lp132
F0.31005959068716
aI71
aI0
aI1
aS'off'
p133
aa(lp134
F0.18994040931284
aI69
aI96
aI1
aS'on'
p135
aa(lp136
F0.23134918659161
aI69
aI0
aI1
aS'off'
p137
aa(lp138
F0.26865081340839
aI67
aI77
aI1
aS'on'
p139
aa(lp140
F0.31675393497153
aI67
aI0
aI1
aS'off'
p141
aa(lp142
F0.18324606502847
aI69
aI96
aI1
aS'on'
p143
aa(lp144
F0.32661764510431
aI69
aI0
aI1
aS'off'
p145
aa(lp146
F0.17338235489569
aI67
aI86
aI1
aS'on'
p147
aa(lp148
F0.31680918827715
aI67
aI0
aI1
aS'off'
p149
aa(lp150
F0.18319081172285
aI69
aI75
aI1
aS'on'
p151
aa(lp152
F0.31784860986409
aI69
aI0
aI1
aS'off'
p153
aa(lp154
F0.18215139013591
aI67
aI76
aI1
aS'on'
p155
aa(lp156
F0.28349236358372
aI67
aI0
aI1
aS'off'
p157
aa(lp158
F0.21650763641628
aI69
aI100
aI1
aS'on'
p159
aa(lp160
F0.17166781576634
aI69
aI0
aI1
aS'off'
p161
aa(lp162
F0.32833218423366
aI71
aI83
aI1
aS'on'
p163
aa(lp164
F0.32781450079347
aI71
aI0
aI1
aS'off'
p165
aa(lp166
F0.17218549920653
aI69
aI98
aI1
aS'on'
p167
aa(lp168
F0.24848390628631
aI69
aI0
aI1
aS'off'
p169
aa(lp170
F0.25151609371369
aI67
aI85
aI1
aS'on'
p171
aa(lp172
F0.33580168694243
aI67
aI0
aI1
aS'off'
p173
aa(lp174
F0.16419831305757
aI69
aI95
aI1
aS'on'
p175
aa(lp176
F0.21460893768472
aI69
aI0
aI1
aS'off'
p177
aa(lp178
F0.28539106231528
aI67
aI86
aI1
aS'on'
p179
aa(lp180
F0.28428094831634
aI67
aI0
aI1
aS'off'
p181
aa(lp182
F0.21571905168366
aI0
aI0
aI0
aS'timeAfterLastHit'
p183
aaa(lp184
(lp185
F0.0
aI81
aI45
aI1
aS'on'
p186
aa(lp187
F0.38529333767747
aI81
aI0
aI1
aS'off'
p188
aa(lp189
F1.1147066623225
aI79
aI60
aI1
aS'on'
p190
aa(lp191
F0.48243921499125
aI79
aI0
aI1
aS'off'
p192
aa(lp193
F1.0175607850088
aI76
aI45
aI1
aS'on'
p194
aa(lp195
F0.39944518728134
aI76
aI0
aI1
aS'off'
p196
aa(lp197
F1.1005548127187
aI79
aI76
aI1
aS'on'
p198
aa(lp199
F0.32884300938713
aI79
aI0
aI1
aS'off'
p200
aa(lp201
F0.67115699061287
aI76
aI56
aI1
aS'on'
p202
aa(lp203
F0.28909793593539
aI76
aI0
aI1
aS'off'
p204
aa(lp205
F0.21090206406461
aI74
aI57
aI1
aS'on'
p206
aa(lp207
F0.53690331316102
aI74
aI0
aI1
aS'off'
p208
aa(lp209
F1.2964300201723
aI76
aI77
aI1
aS'on'
p210
aa(lp211
F0.44064360225002
aI76
aI0
aI1
aS'off'
p212
aa(lp213
F1.2260230644166
aI74
aI89
aI1
aS'on'
p214
aa(lp215
F0.41194645059295
aI74
aI0
aI1
aS'off'
p216
aa(lp217
F1.0880535494071
aI72
aI68
aI1
aS'on'
p218
aa(lp219
F0.50972359438674
aI72
aI0
aI1
aS'off'
p220
aa(lp221
F0.99027640561326
aI74
aI75
aI1
aS'on'
p222
aa(lp223
F0.40033149399278
aI74
aI0
aI1
aS'off'
p224
aa(lp225
F0.93300183934055
aI76
aI67
aI1
aS'on'
p226
aa(lp227
F0.57803191751736
aI76
aI0
aI1
aS'off'
p228
aa(lp229
F0.5886347491493
aI0
aI0
aI0
aS'timeAfterLastHit'
p230
aaa(lp231
(lp232
F1.0
aI81
aI96
aI1
aS'on'
p233
aa(lp234
F0.6893972655289
aI81
aI0
aI1
aS'off'
p235
aa(lp236
F0.8106027344711
aI79
aI91
aI1
aS'on'
p237
aa(lp238
F0.60132375283592
aI79
aI0
aI1
aS'off'
p239
aa(lp240
F0.89867624716408
aI76
aI95
aI1
aS'on'
p241
aa(lp242
F0.592987403611
aI76
aI0
aI1
aS'off'
p243
aa(lp244
F0.907012596389
aI79
aI96
aI1
aS'on'
p245
aa(lp246
F0.49107242123591
aI79
aI0
aI1
aS'off'
p247
aa(lp248
F0.50892757876409
aI76
aI84
aI1
aS'on'
p249
aa(lp250
F0.19872395898801
aI76
aI0
aI1
aS'off'
p251
aa(lp252
F0.30127604101199
aI74
aI93
aI1
aS'on'
p253
aa(lp254
F0.36218026018014
aI74
aI0
aI1
aS'off'
p255
aa(lp256
F1.6378197398199
aI76
aI84
aI1
aS'on'
p257
aa(lp258
F0.65559531844792
aI76
aI0
aI1
aS'off'
p259
aa(lp260
F0.84440468155208
aI74
aI84
aI1
aS'on'
p261
aa(lp262
F0.62850743746276
aI74
aI0
aI1
aS'off'
p263
aa(lp264
F0.87149256253724
aI72
aI76
aI1
aS'on'
p265
aa(lp266
F0.59307051050382
aI72
aI0
aI1
aS'off'
p267
aa(lp268
F0.90692948949618
aI74
aI91
aI1
aS'on'
p269
aa(lp270
F0.61007007995249
aI74
aI0
aI1
aS'off'
p271
aa(lp272
F0.88992992004751
aI76
aI88
aI1
aS'on'
p273
aa(lp274
F0.69765680279033
aI76
aI0
aI1
aS'off'
p275
aa(lp276
F0.30234319720967
aI0
aI0
aI0
aS'timeAfterLastHit'
p277
aaaI0
aI0
aI0
aI0
aI0
aI0
aI0
aI0
aI0
aI0
aI0
aI0
a(lp278
(lp279
F0.058194671724209
aI60
aI54
aI1
aS'on'
p280
aa(lp281
F0.00020332048677574
aI57
aI71
aI1
aS'on'
p282
aa(lp283
F0.066646321641883
aI60
aI0
aI1
aS'off'
p284
aa(lp285
F0.00012564537973958
aI57
aI0
aI1
aS'off'
p286
aa(lp287
F1.4185599664921
aI60
aI88
aI1
aS'on'
p288
aa(lp289
F0.01258963197904
aI57
aI72
aI1
aS'on'
p290
aa(lp291
F0.067308744792399
aI57
aI0
aI1
aS'off'
p292
aa(lp293
F0.039498020644601
aI60
aI0
aI1
aS'off'
p294
aa(lp295
F6.3368736768592
aI0
aI0
aI0
aS'timeAfterLastHit'
p296
aaa(lp297
(lp298
F0.0
aI48
aI52
aI1
aS'on'
p299
aa(lp300
F0.11475325079846
aI48
aI0
aI1
aS'off'
p301
aa(lp302
F0.38524674920154
aI50
aI70
aI1
aS'on'
p303
aa(lp304
F0.057617311074864
aI50
aI0
aI1
aS'off'
p305
aa(lp306
F0.94238268892514
aI50
aI87
aI1
aS'on'
p307
aa(lp308
F0.2284324443483
aI50
aI0
aI1
aS'off'
p309
aa(lp310
F6.2715675556517
aI48
aI88
aI1
aS'on'
p311
aa(lp312
F0.17293180156116
aI48
aI0
aI1
aS'off'
p313
aa(lp314
F0.32706819843884
aI50
aI74
aI1
aS'on'
p315
aa(lp316
F0.16101132413996
aI50
aI0
aI1
aS'off'
p317
aa(lp318
F0.83898867586004
aI50
aI58
aI1
aS'on'
p319
aa(lp320
F0.17229237945003
aI50
aI0
aI1
aS'off'
p321
aa(lp322
F6.32770762055
aI48
aI88
aI1
aS'on'
p323
aa(lp324
F0.17141273164248
aI48
aI0
aI1
aS'off'
p325
aa(lp326
F0.32858726835752
aI50
aI53
aI1
aS'on'
p327
aa(lp328
F0.12567113808859
aI50
aI0
aI1
aS'off'
p329
aa(lp330
F0.87432886191141
aI50
aI84
aI1
aS'on'
p331
aa(lp332
F0.18370918694063
aI50
aI0
aI1
aS'off'
p333
aa(lp334
F0.81629081305937
aI48
aI89
aI1
aS'on'
p335
aa(lp336
F0.16046914079857
aI48
aI0
aI1
aS'off'
p337
aa(lp338
F0.33953085920143
aI50
aI84
aI1
aS'on'
p339
aa(lp340
F0.18393310309443
aI50
aI0
aI1
aS'off'
p341
aa(lp342
F0.81606689690557
aI52
aI93
aI1
aS'on'
p343
aa(lp344
F0.17110176523056
aI52
aI0
aI1
aS'off'
p345
aa(lp346
F0.32889823476944
aI50
aI34
aI1
aS'on'
p347
aa(lp348
F0.13849671148637
aI50
aI0
aI1
aS'off'
p349
aa(lp350
F0.86150328851363
aI48
aI89
aI1
aS'on'
p351
aa(lp352
F0.14908380346174
aI48
aI0
aI1
aS'off'
p353
aa(lp354
F0.35091619653826
aI50
aI89
aI1
aS'on'
p355
aa(lp356
F0.18466892758852
aI50
aI0
aI1
aS'off'
p357
aa(lp358
F0.81533107241148
aI48
aI86
aI1
aS'on'
p359
aa(lp360
F0.18393353449392
aI48
aI0
aI1
aS'off'
p361
aa(lp362
F0.31606646550608
aI47
aI87
aI1
aS'on'
p363
aa(lp364
F0.14888684537482
aI47
aI0
aI1
aS'off'
p365
aa(lp366
F0.85111315462518
aI48
aI89
aI1
aS'on'
p367
aa(lp368
F0.17349059598519
aI48
aI0
aI1
aS'off'
p369
aa(lp370
F0.32650940401481
aI47
aI86
aI1
aS'on'
p371
aa(lp372
F0.16359965295533
aI47
aI0
aI1
aS'off'
p373
aa(lp374
F0.83640034704467
aI45
aI60
aI1
aS'on'
p375
aa(lp376
F0.1604175577429
aI45
aI0
aI1
aS'off'
p377
aa(lp378
F0.3395824422571
aI45
aI86
aI1
aS'on'
p379
aa(lp380
F4.9192571825456
aI45
aI0
aI1
aS'off'
p381
aa(lp382
F0.58074281745439
aI0
aI0
aI0
aS'timeAfterLastHit'
p383
aaa(lp384
(lp385
F0.0
aI48
aI88
aI1
aS'on'
p386
aa(lp387
F0.19204317523281
aI48
aI0
aI1
aS'off'
p388
aa(lp389
F0.30795682476719
aI50
aI45
aI1
aS'on'
p390
aa(lp391
F0.33845541197843
aI50
aI0
aI1
aS'off'
p392
aa(lp393
F0.66154458802157
aI50
aI68
aI1
aS'on'
p394
aa(lp395
F0.47113784961812
aI50
aI0
aI1
aS'off'
p396
aa(lp397
F0.52886215038188
aI48
aI80
aI1
aS'on'
p398
aa(lp399
F0.19249167003136
aI48
aI0
aI1
aS'off'
p400
aa(lp401
F0.30750832996864
aI50
aI77
aI1
aS'on'
p402
aa(lp403
F0.18099289440988
aI50
aI0
aI1
aS'off'
p404
aa(lp405
F0.31900710559012
aI52
aI96
aI1
aS'on'
p406
aa(lp407
F0.49348040268887
aI52
aI0
aI1
aS'off'
p408
aa(lp409
F4.0065195973111
aI48
aI87
aI1
aS'on'
p410
aa(lp411
F0.2290721348063
aI48
aI0
aI1
aS'off'
p412
aa(lp413
F0.2709278651937
aI50
aI39
aI1
aS'on'
p414
aa(lp415
F0.21706741127764
aI50
aI0
aI1
aS'off'
p416
aa(lp417
F0.94959925538903
aI50
aI79
aI1
aS'on'
p418
aa(lp419
F0.303259047962
aI50
aI0
aI1
aS'off'
p420
aa(lp421
F0.53007428537133
aI48
aI89
aI1
aS'on'
p422
aa(lp423
F0.19399672154896
aI48
aI0
aI1
aS'off'
p424
aa(lp425
F0.30600327845104
aI50
aI81
aI1
aS'on'
p426
aa(lp427
F0.16904178333152
aI50
aI0
aI1
aS'off'
p428
aa(lp429
F0.33095821666848
aI52
aI89
aI1
aS'on'
p430
aa(lp431
F0.49444746700419
aI52
aI0
aI1
aS'off'
p432
aa(lp433
F4.0055525329958
aI48
aI91
aI1
aS'on'
p434
aa(lp435
F0.18094596968376
aI48
aI0
aI1
aS'off'
p436
aa(lp437
F0.31905403031624
aI50
aI45
aI1
aS'on'
p438
aa(lp439
F0.20320974315791
aI50
aI0
aI1
aS'off'
p440
aa(lp441
F0.79679025684209
aI50
aI73
aI1
aS'on'
p442
aa(lp443
F0.20642304374405
aI50
aI0
aI1
aS'off'
p444
aa(lp445
F0.79357695625595
aI48
aI95
aI1
aS'on'
p446
aa(lp447
F0.19324120003103
aI48
aI0
aI1
aS'off'
p448
aa(lp449
F0.30675879996897
aI50
aI88
aI1
aS'on'
p450
aa(lp451
F0.19257936659278
aI50
aI0
aI1
aS'off'
p452
aa(lp453
F0.80742063340722
aI52
aI88
aI1
aS'on'
p454
aa(lp455
F0.19055700195577
aI52
aI0
aI1
aS'off'
p456
aa(lp457
F0.30944299804423
aI50
aI75
aI1
aS'on'
p458
aa(lp459
F0.25509236689459
aI50
aI0
aI1
aS'off'
p460
aa(lp461
F0.74490763310541
aI48
aI94
aI1
aS'on'
p462
aa(lp463
F0.16844091861003
aI48
aI0
aI1
aS'off'
p464
aa(lp465
F0.33155908138997
aI50
aI89
aI1
aS'on'
p466
aa(lp467
F0.25324204344952
aI50
aI0
aI1
aS'off'
p468
aa(lp469
F0.74675795655048
aI48
aI69
aI1
aS'on'
p470
aa(lp471
F0.23006541288123
aI48
aI0
aI1
aS'off'
p472
aa(lp473
F0.26993458711877
aI47
aI93
aI1
aS'on'
p474
aa(lp475
F0.20440547186081
aI47
aI0
aI1
aS'off'
p476
aa(lp477
F0.79559452813919
aI48
aI83
aI1
aS'on'
p478
aa(lp479
F0.18074682488032
aI48
aI0
aI1
aS'off'
p480
aa(lp481
F0.31925317511968
aI47
aI68
aI1
aS'on'
p482
aa(lp483
F0.20412353160009
aI47
aI0
aI1
aS'off'
p484
aa(lp485
F0.96254313506658
aI45
aI75
aI1
aS'on'
p486
aa(lp487
F0.13303294955313
aI45
aI0
aI1
aS'off'
p488
aa(lp489
F0.36696705044687
aI45
aI82
aI1
aS'on'
p490
aa(lp491
F4.8128628123668
aI45
aI0
aI1
aS'off'
p492
aa(lp493
F0.52047052096653
aI0
aI0
aI0
aS'timeAfterLastHit'
p494
aaa(lp495
(lp496
F0.0
aI57
aI93
aI1
aS'on'
p497
aa(lp498
F0.19358589562898
aI57
aI0
aI1
aS'off'
p499
aa(lp500
F0.30641410437102
aI55
aI56
aI1
aS'on'
p501
aa(lp502
F0.12118321478647
aI55
aI0
aI1
aS'off'
p503
aa(lp504
F1.3788167852135
aI55
aI84
aI1
aS'on'
p505
aa(lp506
F0.20418353899913
aI55
aI0
aI1
aS'off'
p507
aa(lp508
F1.7958164610009
aI52
aI92
aI1
aS'on'
p509
aa(lp510
F0.20557338921935
aI52
aI0
aI1
aS'off'
p511
aa(lp512
F0.29442661078065
aI55
aI87
aI1
aS'on'
p513
aa(lp514
F0.16769050106359
aI55
aI0
aI1
aS'off'
p515
aa(lp516
F1.3323094989364
aI55
aI88
aI1
aS'on'
p517
aa(lp518
F0.26482197083806
aI55
aI0
aI1
aS'off'
p519
aa(lp520
F1.7351780291619
aI0
aI0
aI0
aS'timeAfterLastHit'
p521
aaaI0
aI0
aI0
aI0
aI0
aI0
aI0
aI0
aI0
aI0
aI0
aI0
aI0
aI0
aI0
aI0
aI0
aI0
aI0
aI0
aI0
aI0
aI0
aI0
aI0
aI0
aI0
aI0
aI0
aI0
aI0
aI0
aI0
aI0
aI0
aI0
aI0
aI0
aI0
aI0
aI0
aI0
aI0
aI0
aI0
aI0
aI0
aI0
aI0
aI0
aI0
aI0
aI0
aI0
aI0
aa(lp522
(dp523
a(dp524
a(dp525
a(dp526
a(dp527
a(dp528
a(dp529
a(dp530
a(dp531
a(dp532
a(dp533
a(dp534
a(dp535
a(dp536
a(dp537
a(dp538
a(dp539
a(dp540
a(dp541
a(dp542
a(dp543
S'button'
p544
I54
sS'playing'
p545
I0
sa(dp546
a(dp547
a(dp548
a(dp549
a(dp550
g544
I61
sg545
I0
sa(dp551
g544
I62
sg545
I0
sa(dp552
g544
I63
sg545
I0
sa(dp553
g544
I64
sg545
I0
sa(dp554
a(dp555
a(dp556
a(dp557
a(dp558
a(dp559
a(dp560
a(dp561
a(dp562
a(dp563
a(dp564
a(dp565
a(dp566
g544
I81
sg545
I0
sa(dp567
g544
I82
sg545
I0
sa(dp568
g544
I83
sg545
I0
sa(dp569
g544
I84
sg545
I0
sa(dp570
a(dp571
a(dp572
a(dp573
a(dp574
a(dp575
a(dp576
a(dp577
a(dp578
a(dp579
a(dp580
a(dp581
a(dp582
a(dp583
a(dp584
a(dp585
a(dp586
a(dp587
a(dp588
a(dp589
a(dp590
a(dp591
a(dp592
a(dp593
a(dp594
a(dp595
a(dp596
a(dp597
a(dp598
a(dp599
a(dp600
a(dp601
a(dp602
a(dp603
a(dp604
a(dp605
a(dp606
a(dp607
a(dp608
a(dp609
a(dp610
a(dp611
a(dp612
a(dp613
a(dp614
a(dp615
a(dp616
a(dp617
a(dp618
a(dp619
a(dp620
a(dp621
a(dp622
a(dp623
a(dp624
aa(lp625
I60
aI60
aI36
aI36
aa(lp626
(lp627
I0
aI2
aI3
aI5
aI7
aI8
aI10
aa(lp628
I0
aI2
aI3
aI5
aI7
aI8
aI10
aa(lp629
I0
aI2
aI3
aI5
aI7
aI8
aI10
aa(lp630
I0
aI2
aI3
aI5
aI7
aI8
aI10
aa(lp631
I0
aI2
aI3
aI5
aI7
aI8
aI10
aa(lp632
I0
aI1
aI2
aI3
aI4
aI5
aI6
aI7
aI8
aI9
aI10
aI11
aaa(lp633
(lp634
(lp635
I0
aI0
aI0
aI0
aI0
aI0
aI0
aI0
aI0
aI0
aI0
aI0
aa(lp636
I0
aI0
aI0
aI0
aI0
aI0
aI0
aI0
aI0
aI0
aI0
aI0
aa(lp637
I0
aI0
aI0
aI0
aI0
aI0
aI0
aI0
aI0
aI0
aI0
aI0
aa(lp638
I0
aI0
aI0
aI0
aI0
aI0
aI0
aI0
aI0
aI0
aI0
aI0
aaa(lp639
(lp640
I0
aI0
aI0
aI0
aI0
aI0
aI0
aI0
aI0
aI0
aI0
aI0
aa(lp641
I0
aI0
aI0
aI0
aI0
aI0
aI0
aI0
aI0
aI0
aI0
aI0
aa(lp642
I0
aI0
aI0
aI0
aI0
aI0
aI0
aI0
aI0
aI0
aI0
aI0
aa(lp643
I0
aI0
aI0
aI0
aI0
aI0
aI0
aI0
aI0
aI0
aI0
aI0
aaa(lp644
(lp645
I0
aI0
aI0
aI0
aI0
aI0
aI0
aI0
aI0
aI0
aI0
aI0
aa(lp646
I0
aI0
aI0
aI0
aI0
aI0
aI0
aI0
aI0
aI0
aI0
aI0
aa(lp647
I0
aI0
aI0
aI0
aI0
aI0
aI0
aI0
aI0
aI0
aI0
aI0
aa(lp648
I0
aI0
aI0
aI0
aI0
aI0
aI0
aI0
aI0
aI0
aI0
aI0
aaa(lp649
(lp650
I0
aI0
aI0
aI0
aI0
aI0
aI0
aI0
aI0
aI0
aI0
aI0
aa(lp651
I0
aI0
aI0
aI0
aI0
aI0
aI0
aI0
aI0
aI0
aI0
aI0
aa(lp652
I0
aI0
aI0
aI0
aI0
aI0
aI0
aI0
aI0
aI0
aI0
aI0
aa(lp653
I0
aI0
aI0
aI0
aI0
aI0
aI0
aI0
aI0
aI0
aI0
aI0
aaaa(lp654
(lp655
I0
aI0
aI0
aI0
aI0
aI0
aI0
aI0
aI0
aI0
aI0
aI0
aa(lp656
I0
aI0
aI0
aI0
aI0
aI0
aI0
aI0
aI0
aI0
aI0
aI0
aa(lp657
I0
aI0
aI0
aI0
aI0
aI0
aI0
aI0
aI0
aI0
aI0
aI0
aa(lp658
I0
aI0
aI0
aI0
aI0
aI0
aI0
aI0
aI0
aI0
aI0
aI0
aaaaI0
aI0
aI0
aI0
aI0
aI0
aI0
aI0
aI0
aI0
aI0
aI0
aI0
aI0
aI0
aI0
aI0
aI0
aI0
aI0
aI0
aI0
aI0
aI0
aI0
aI0
aI0
aI0
aI0
aI0
a.