(lp0
I0
a(lp1
(lp2
I0
aI0
aI0
aI0
aI0
aI0
aI0
aI0
aI0
aI0
aI0
aI0
aI0
aI0
aI0
aI0
aI0
aI0
aI0
aI0
aI0
aI0
aI0
aI0
aI0
a(lp3
(lp4
F0.0
aI41
aI99
aI2
aS'on'
p5
aa(lp6
F0.16926372043372
aI41
aI0
aI2
aS'off'
p7
aa(lp8
F0.83073627956628
aI46
aI101
aI2
aS'on'
p9
aa(lp10
F0.19443419513982
aI46
aI0
aI2
aS'off'
p11
aa(lp12
F0.30556580486018
aI43
aI105
aI2
aS'on'
p13
aa(lp14
F0.13081288626154
aI43
aI0
aI2
aS'off'
p15
aa(lp16
F0.86918711373846
aI48
aI98
aI2
aS'on'
p17
aa(lp18
F0.11807910610059
aI48
aI0
aI2
aS'off'
p19
aa(lp20
F0.38192089389941
aI46
aI57
aI2
aS'on'
p21
aa(lp22
F0.11630624362124
aI46
aI0
aI2
aS'off'
p23
aa(lp24
F0.88369375637876
aI50
aI101
aI2
aS'on'
p25
aa(lp26
F0.19402850143842
aI50
aI0
aI2
aS'off'
p27
aa(lp28
F0.30597149856158
aI48
aI99
aI2
aS'on'
p29
aa(lp30
F0.064500023382152
aI48
aI0
aI2
aS'off'
p31
aa(lp32
F0.93549997661785
aI48
aI92
aI2
aS'on'
p33
aa(lp34
F0.061951712081282
aI48
aI0
aI2
aS'off'
p35
aa(lp36
F0.43804828791872
aI46
aI79
aI2
aS'on'
p37
aa(lp38
F0.11597825375566
aI46
aI0
aI2
aS'off'
p39
aa(lp40
F1.3840217462443
aI43
aI113
aI2
aS'on'
p41
aa(lp42
F0.11585799734485
aI43
aI0
aI2
aS'off'
p43
aa(lp44
F0.38414200265515
aI0
aI0
aI0
aS'timeAfterLastHit'
p45
aaaI0
aI0
aI0
aI0
aI0
aI0
aI0
a(lp46
(lp47
F0.0
aI37
aI99
aI3
aS'on'
p48
aa(lp49
F0.14308399255509
aI37
aI0
aI3
aS'off'
p50
aa(lp51
F0.35691600744491
aI38
aI98
aI3
aS'on'
p52
aa(lp53
F0.065848303913072
aI38
aI0
aI3
aS'off'
p54
aa(lp55
F0.43415169608693
aI39
aI90
aI3
aS'on'
p56
aa(lp57
F0.15627228775389
aI39
aI0
aI3
aS'off'
p58
aa(lp59
F0.34372771224611
aI37
aI95
aI3
aS'on'
p60
aa(lp61
F0.064583772451101
aI37
aI0
aI3
aS'off'
p62
aa(lp63
F0.4354162275489
aI38
aI99
aI3
aS'on'
p64
aa(lp65
F0.15634413760006
aI38
aI0
aI3
aS'off'
p66
aa(lp67
F0.34365586239994
aI39
aI95
aI3
aS'on'
p68
aa(lp69
F0.9476294982781
aI39
aI0
aI3
aS'off'
p70
aa(lp71
F0.5523705017219
aI0
aI0
aI0
aS'timeAfterLastHit'
p72
aaa(lp73
(lp74
F0.0
aI31
aI101
aI3
aS'on'
p75
aa(lp76
F0.1429958325034
aI31
aI0
aI3
aS'off'
p77
aa(lp78
F1.3570041674966
aI32
aI106
aI3
aS'on'
p79
aa(lp80
F0.20714322809681
aI32
aI0
aI3
aS'off'
p81
aa(lp82
F1.2928567719032
aI33
aI98
aI3
aS'on'
p83
aa(lp84
F0.17011625222676
aI33
aI0
aI3
aS'off'
p85
aa(lp86
F1.3298837477732
aI34
aI98
aI3
aS'on'
p87
aa(lp88
F0.16897722018507
aI34
aI0
aI3
aS'off'
p89
aa(lp90
F1.3310227798149
aI32
aI108
aI3
aS'on'
p91
aa(lp92
F1.3159368985714
aI32
aI0
aI3
aS'off'
p93
aa(lp94
F0.68406310142859
aI0
aI0
aI0
aS'timeAfterLastHit'
p95
aaaI0
aI0
aI0
aI0
aI0
aI0
aI0
aI0
aI0
aI0
aI0
aI0
aI0
aI0
aI0
aI0
aI0
aI0
aI0
aI0
aI0
aI0
aI0
aI0
aI0
aI0
aI0
aI0
aI0
aI0
aI0
aI0
aI0
aI0
aI0
aI0
aI0
aI0
aI0
aI0
aI0
aI0
aI0
aI0
aI0
aI0
aI0
aI0
aI0
aI0
aI0
aI0
aI0
aI0
aI0
aI0
aI0
aI0
aI0
aI0
aI0
aI0
aI0
aI0
aI0
aa(lp96
(dp97
a(dp98
a(dp99
a(dp100
a(dp101
a(dp102
a(dp103
a(dp104
a(dp105
a(dp106
a(dp107
a(dp108
a(dp109
a(dp110
a(dp111
a(dp112
a(dp113
a(dp114
a(dp115
a(dp116
a(dp117
a(dp118
a(dp119
a(dp120
a(dp121
a(dp122
S'button'
p123
I61
sS'playing'
p124
I01
sa(dp125
a(dp126
a(dp127
a(dp128
a(dp129
a(dp130
a(dp131
a(dp132
g123
I71
sg124
I1
sa(dp133
g123
I72
sg124
I1
sa(dp134
a(dp135
a(dp136
a(dp137
a(dp138
a(dp139
a(dp140
a(dp141
a(dp142
a(dp143
a(dp144
a(dp145
a(dp146
a(dp147
a(dp148
a(dp149
a(dp150
a(dp151
a(dp152
a(dp153
a(dp154
a(dp155
a(dp156
a(dp157
a(dp158
a(dp159
a(dp160
a(dp161
a(dp162
a(dp163
a(dp164
a(dp165
a(dp166
a(dp167
a(dp168
a(dp169
a(dp170
a(dp171
a(dp172
a(dp173
a(dp174
a(dp175
a(dp176
a(dp177
a(dp178
a(dp179
a(dp180
a(dp181
a(dp182
a(dp183
a(dp184
a(dp185
a(dp186
a(dp187
a(dp188
a(dp189
a(dp190
a(dp191
a(dp192
a(dp193
a(dp194
a(dp195
a(dp196
a(dp197
a(dp198
aa(lp199
I60
aI60
aI36
aI36
aa(lp200
(lp201
I0
aI2
aI3
aI5
aI7
aI8
aI10
aa(lp202
I0
aI2
aI3
aI5
aI7
aI8
aI10
aa(lp203
I0
aI2
aI3
aI5
aI7
aI8
aI10
aa(lp204
I0
aI2
aI3
aI5
aI7
aI8
aI10
aa(lp205
I0
aI2
aI3
aI5
aI7
aI8
aI10
aa(lp206
I0
aI1
aI2
aI3
aI4
aI5
aI6
aI7
aI8
aI9
aI10
aI11
aaa(lp207
(lp208
(lp209
I0
aI0
aI0
aI0
aI0
aI0
aI0
aI0
aI0
aI0
aI0
aI0
aa(lp210
I0
aI0
aI0
aI0
aI0
aI0
aI0
aI0
aI0
aI0
aI0
aI0
aa(lp211
I0
aI0
aI0
aI0
aI0
aI0
aI0
aI0
aI0
aI0
aI0
aI0
aa(lp212
I0
aI0
aI0
aI0
aI0
aI0
aI0
aI0
aI0
aI0
aI0
aI0
aaa(lp213
(lp214
I0
aI0
aI0
aI0
aI0
aI0
aI0
aI0
aI0
aI0
aI0
aI0
aa(lp215
I0
aI0
aI0
aI0
aI0
aI0
aI0
aI0
aI0
aI0
aI0
aI0
aa(lp216
I0
aI0
aI0
aI0
aI0
aI0
aI0
aI0
aI0
aI0
aI0
aI0
aa(lp217
I0
aI0
aI0
aI0
aI0
aI0
aI0
aI0
aI0
aI0
aI0
aI0
aaa(lp218
(lp219
I0
aI0
aI0
aI0
aI0
aI0
aI0
aI0
aI0
aI0
aI0
aI0
aa(lp220
I0
aI0
aI0
aI0
aI0
aI0
aI0
aI0
aI0
aI0
aI0
aI0
aa(lp221
I0
aI0
aI0
aI0
aI0
aI0
aI0
aI0
aI0
aI0
aI0
aI0
aa(lp222
I0
aI0
aI0
aI0
aI0
aI0
aI0
aI0
aI0
aI0
aI0
aI0
aaa(lp223
(lp224
I0
aI0
aI0
aI0
aI0
aI0
aI0
aI0
aI0
aI0
aI0
aI0
aa(lp225
I0
aI0
aI0
aI0
aI0
aI0
aI0
aI0
aI0
aI0
aI0
aI0
aa(lp226
I0
aI0
aI0
aI0
aI0
aI0
aI0
aI0
aI0
aI0
aI0
aI0
aa(lp227
I0
aI0
aI0
aI0
aI0
aI0
aI0
aI0
aI0
aI0
aI0
aI0
aaaa(lp228
(lp229
I0
aI0
aI0
aI0
aI0
aI0
aI0
aI0
aI0
aI0
aI0
aI0
aa(lp230
I0
aI0
aI0
aI0
aI0
aI0
aI0
aI0
aI0
aI0
aI0
aI0
aa(lp231
I0
aI0
aI0
aI0
aI0
aI0
aI0
aI0
aI0
aI0
aI0
aI0
aa(lp232
I0
aI0
aI0
aI0
aI0
aI0
aI0
aI0
aI0
aI0
aI0
aI0
aaaaI0
aI0
aI0
aI0
aI0
aI0
aI0
aI0
aI0
aI0
aI0
aI0
aI0
aI0
aI0
aI0
aI0
aI0
aI0
aI0
aI0
aI0
aI0
aI0
aI0
aI0
aI0
aI0
aI0
aI0
a.