(lp0
I0
a(lp1
(lp2
I0
a(lp3
(lp4
F0.0
aI31
aI99
aI3
aS'on'
p5
aa(lp6
F0.65891966590061
aI31
aI0
aI3
aS'off'
p7
aa(lp8
F0.34108033409939
aI31
aI103
aI3
aS'on'
p9
aa(lp10
F0.69522106402292
aI31
aI0
aI3
aS'off'
p11
aa(lp12
F0.30477893597708
aI31
aI99
aI3
aS'on'
p13
aa(lp14
F0.69438935178641
aI31
aI0
aI3
aS'off'
p15
aa(lp16
F0.30561064821359
aI31
aI110
aI3
aS'on'
p17
aa(lp18
F0.65623286085247
aI31
aI0
aI3
aS'off'
p19
aa(lp20
F0.34376713914753
aI0
aI0
aI0
aS'timeAfterLastHit'
p21
aaaI0
a(lp22
(lp23
F0.5
aI35
aI108
aI3
aS'on'
p24
aa(lp25
F0.30620387969975
aI35
aI0
aI3
aS'off'
p26
aa(lp27
F0.52712945363358
aI34
aI112
aI3
aS'on'
p28
aa(lp29
F0.24786790991675
aI34
aI0
aI3
aS'off'
p30
aa(lp31
F0.25213209008325
aI33
aI112
aI3
aS'on'
p32
aa(lp33
F1.5793990982747
aI33
aI0
aI3
aS'off'
p34
aa(lp35
F0.58726756839193
aI0
aI0
aI0
aS'timeAfterLastHit'
p36
aaa(lp37
(lp38
F2.5
aI32
aI116
aI3
aS'on'
p39
aa(lp40
F0.46043987666417
aI32
aI0
aI3
aS'off'
p41
aa(lp42
F3.5395601233358
aI32
aI116
aI3
aS'on'
p43
aa(lp44
F0.18851552586784
aI32
aI0
aI3
aS'off'
p45
aa(lp46
F0.31148447413216
aI32
aI121
aI3
aS'on'
p47
aa(lp48
F0.48404598876914
aI32
aI0
aI3
aS'off'
p49
aa(lp50
F0.51595401123086
aI0
aI0
aI0
aS'timeAfterLastHit'
p51
aaaI0
a(lp52
(lp53
F0.022280124010649
aI67
aI114
aI1
aS'on'
p54
aa(lp55
F31.804039500968
aI67
aI0
aI1
aS'off'
p56
aa(lp57
F0.17368037502092
aI0
aI0
aI0
aS'timeAfterLastHit'
p58
aaa(lp59
(lp60
F0.038942152919844
aI74
aI90
aI1
aS'on'
p61
aa(lp62
F8.0116228372208
aI72
aI79
aI1
aS'on'
p63
aa(lp64
F0.094126738064006
aI74
aI0
aI1
aS'off'
p65
aa(lp66
F7.8880592366149
aI70
aI89
aI1
aS'on'
p67
aa(lp68
F0.093149186541268
aI72
aI0
aI1
aS'off'
p69
aa(lp70
F7.7568202098737
aI77
aI91
aI1
aS'on'
p71
aa(lp72
F0.059425325498523
aI70
aI0
aI1
aS'off'
p73
aa(lp74
F4.0362970412316
aI76
aI93
aI1
aS'on'
p75
aa(lp76
F0.070295431150953
aI77
aI0
aI1
aS'off'
p77
aa(lp78
F1.7330733408453
aI72
aI110
aI1
aS'on'
p79
aa(lp80
F0.058033331162733
aI76
aI0
aI1
aS'off'
p81
aa(lp82
F1.9785055260199
aI72
aI0
aI1
aS'off'
p83
aa(lp84
F0.18164964285643
aI0
aI0
aI0
aS'timeAfterLastHit'
p85
aaa(lp86
(lp87
F0.1456310114736
aI81
aI118
aI1
aS'on'
p88
aa(lp89
F15.787790768061
aI81
aI0
aI1
aS'off'
p90
aa(lp91
F0.11686472997644
aI79
aI114
aI1
aS'on'
p92
aa(lp93
F15.734362672298
aI79
aI0
aI1
aS'off'
p94
aa(lp95
F0.082417115072531
aI82
aI108
aI1
aS'on'
p96
aa(lp97
F16.107255950279
aI84
aI100
aI1
aS'on'
p98
aa(lp99
F0.10505749042022
aI82
aI0
aI1
aS'off'
p100
aa(lp101
F15.910620262419
aI84
aI0
aI1
aS'off'
p102
aa(lp103
F0.010000000000218
aI0
aI0
aI0
aS'timeAfterLastHit'
p104
aaaI0
aI0
a(lp105
(lp106
F0.5
aI26
aI112
aI3
aS'on'
p107
aa(lp108
F0.13974191692978
aI26
aI0
aI3
aS'off'
p109
aa(lp110
F0.36025808307022
aI35
aI110
aI3
aS'on'
p111
aa(lp112
F0.17630939709125
aI35
aI0
aI3
aS'off'
p113
aa(lp114
F0.32369060290875
aI34
aI115
aI3
aS'on'
p115
aa(lp116
F0.17749105834264
aI34
aI0
aI3
aS'off'
p117
aa(lp118
F0.32250894165736
aI33
aI114
aI3
aS'on'
p119
aa(lp120
F0.25283057809429
aI33
aI0
aI3
aS'off'
p121
aa(lp122
F0.58050275523904
aI34
aI119
aI3
aS'on'
p123
aa(lp124
F0.22297643197271
aI34
aI0
aI3
aS'off'
p125
aa(lp126
F0.44369023469396
aI35
aI116
aI3
aS'on'
p127
aa(lp128
F0.27882346488877
aI35
aI0
aI3
aS'off'
p129
aa(lp130
F0.55450986844456
aI26
aI118
aI3
aS'on'
p131
aa(lp132
F0.21446112910598
aI26
aI0
aI3
aS'off'
p133
aa(lp134
F0.45220553756068
aI35
aI116
aI3
aS'on'
p135
aa(lp136
F2.0478544536672
aI35
aI0
aI3
aS'off'
p137
aa(lp138
F0.95214554633276
aI0
aI0
aI0
aS'timeAfterLastHit'
p139
aaa(lp140
(lp141
F0.5
aI30
aI114
aI3
aS'on'
p142
aa(lp143
F0.14987270940765
aI30
aI0
aI3
aS'off'
p144
aa(lp145
F0.35012729059235
aI29
aI113
aI3
aS'on'
p146
aa(lp147
F0.15767134934322
aI29
aI0
aI3
aS'off'
p148
aa(lp149
F0.34232865065678
aI28
aI116
aI3
aS'on'
p150
aa(lp151
F0.15833204835326
aI28
aI0
aI3
aS'off'
p152
aa(lp153
F0.34166795164674
aI27
aI118
aI3
aS'on'
p154
aa(lp155
F0.25000905072557
aI27
aI0
aI3
aS'off'
p156
aa(lp157
F0.58332428260777
aI28
aI117
aI3
aS'on'
p158
aa(lp159
F0.25239797534414
aI28
aI0
aI3
aS'off'
p160
aa(lp161
F0.41426869132253
aI29
aI114
aI3
aS'on'
p162
aa(lp163
F0.28990001202874
aI29
aI0
aI3
aS'off'
p164
aa(lp165
F0.54343332130459
aI30
aI116
aI3
aS'on'
p166
aa(lp167
F0.28897668218269
aI30
aI0
aI3
aS'off'
p168
aa(lp169
F0.37768998448397
aI29
aI116
aI3
aS'on'
p170
aa(lp171
F2.406297322781
aI29
aI0
aI3
aS'off'
p172
aa(lp173
F0.59370267721897
aI0
aI0
aI0
aS'timeAfterLastHit'
p174
aaaI0
aI0
aI0
aI0
aI0
aI0
aI0
aI0
aI0
a(lp175
(lp176
F0.56421944935209
aI31
aI121
aI2
aS'on'
p177
aa(lp178
F0.613302803642
aI31
aI0
aI2
aS'off'
p179
aa(lp180
F0.33082235890106
aI31
aI119
aI2
aS'on'
p181
aa(lp182
F0.65821710743876
aI31
aI0
aI2
aS'off'
p183
aa(lp184
F0.38889901010589
aI31
aI118
aI2
aS'on'
p185
aa(lp186
F0.67216875888516
aI31
aI0
aI2
aS'off'
p187
aa(lp188
F0.33263003994944
aI31
aI116
aI2
aS'on'
p189
aa(lp190
F0.53831089549749
aI31
aI0
aI2
aS'off'
p191
aa(lp192
F0.48315048032055
aI34
aI114
aI2
aS'on'
p193
aa(lp194
F0.61179574664311
aI34
aI0
aI2
aS'off'
p195
aa(lp196
F0.3422095874048
aI34
aI111
aI2
aS'on'
p197
aa(lp198
F0.58831229353018
aI34
aI0
aI2
aS'off'
p199
aa(lp200
F0.39061991361268
aI38
aI110
aI2
aS'on'
p201
aa(lp202
F0.69349057484578
aI38
aI0
aI2
aS'off'
p203
aa(lp204
F0.3548961760207
aI38
aI119
aI2
aS'on'
p205
aa(lp206
F0.42695480385009
aI38
aI0
aI2
aS'off'
p207
aa(lp208
F0.010000000000218
aI0
aI0
aI0
aS'timeAfterLastHit'
p209
aaa(lp210
(lp211
F0.49227794327635
aI31
aI114
aI2
aS'on'
p212
aa(lp213
F0.65913780027586
aI31
aI0
aI2
aS'off'
p214
aa(lp215
F0.2713360914986
aI31
aI117
aI2
aS'on'
p216
aa(lp217
F0.63601774967174
aI31
aI0
aI2
aS'off'
p218
aa(lp219
F0.36534356198717
aI31
aI121
aI2
aS'on'
p220
aa(lp221
F0.67017547363503
aI31
aI0
aI2
aS'off'
p222
aa(lp223
F0.36410229318244
aI31
aI120
aI2
aS'on'
p224
aa(lp225
F0.67049590087481
aI31
aI0
aI2
aS'off'
p226
aa(lp227
F0.38801378859171
aI34
aI117
aI2
aS'on'
p228
aa(lp229
F0.60116991338327
aI34
aI0
aI2
aS'off'
p230
aa(lp231
F0.37638399355092
aI34
aI118
aI2
aS'on'
p232
aa(lp233
F0.60135992305004
aI34
aI0
aI2
aS'off'
p234
aa(lp235
F0.43568852815588
aI38
aI118
aI2
aS'on'
p236
aa(lp237
F0.62536045169327
aI38
aI0
aI2
aS'off'
p238
aa(lp239
F0.3523185479462
aI38
aI119
aI2
aS'on'
p240
aa(lp241
F0.66080311603946
aI38
aI0
aI2
aS'off'
p242
aa(lp243
F0.42338002542601
aI31
aI120
aI2
aS'on'
p244
aa(lp245
F0.50707978463106
aI31
aI0
aI2
aS'off'
p246
aa(lp247
F0.41300469305497
aI31
aI120
aI2
aS'on'
p248
aa(lp249
F0.66051729255196
aI31
aI0
aI2
aS'off'
p250
aa(lp251
F0.35301780470763
aI31
aI121
aI2
aS'on'
p252
aa(lp253
F0.63722350658827
aI31
aI0
aI2
aS'off'
p254
aa(lp255
F0.38958028670822
aI31
aI120
aI2
aS'on'
p256
aa(lp257
F0.61320317926584
aI31
aI0
aI2
aS'off'
p258
aa(lp259
F0.38829588038789
aI34
aI118
aI2
aS'on'
p260
aa(lp261
F0.6128501042549
aI34
aI0
aI2
aS'off'
p262
aa(lp263
F0.30746015413388
aI34
aI120
aI2
aS'on'
p264
aa(lp265
F0.63522598938471
aI34
aI0
aI2
aS'off'
p266
aa(lp267
F0.39085507987329
aI38
aI121
aI2
aS'on'
p268
aa(lp269
F0.59858158148927
aI38
aI0
aI2
aS'off'
p270
aa(lp271
F0.38746703306606
aI38
aI120
aI2
aS'on'
p272
aa(lp273
F0.66093472567809
aI38
aI0
aI2
aS'off'
p274
aa(lp275
F0.41287520840524
aI31
aI122
aI2
aS'on'
p276
aa(lp277
F0.62245907256147
aI31
aI0
aI2
aS'off'
p278
aa(lp279
F0.40160050970371
aI31
aI120
aI2
aS'on'
p280
aa(lp281
F0.60125549435361
aI31
aI0
aI2
aS'off'
p282
aa(lp283
F0.41237103379535
aI31
aI120
aI2
aS'on'
p284
aa(lp285
F0.61476985990885
aI31
aI0
aI2
aS'off'
p286
aa(lp287
F0.37499460869003
aI31
aI119
aI2
aS'on'
p288
aa(lp289
F0.55470893043639
aI31
aI0
aI2
aS'off'
p290
aa(lp291
F0.41298512422145
aI34
aI119
aI2
aS'on'
p292
aa(lp293
F0.58854320305181
aI34
aI0
aI2
aS'off'
p294
aa(lp295
F0.36533777066143
aI34
aI119
aI2
aS'on'
p296
aa(lp297
F0.65962734783716
aI34
aI0
aI2
aS'off'
p298
aa(lp299
F0.35414563783161
aI38
aI118
aI2
aS'on'
p300
aa(lp301
F0.61388542033637
aI38
aI0
aI2
aS'off'
p302
aa(lp303
F0.41371023690226
aI38
aI114
aI2
aS'on'
p304
aa(lp305
F0.52998468849728
aI38
aI0
aI2
aS'off'
p306
aa(lp307
F0.4588926589422
aI41
aI116
aI2
aS'on'
p308
aa(lp309
F0.57787481817286
aI41
aI0
aI2
aS'off'
p310
aa(lp311
F0.39913224985867
aI41
aI118
aI2
aS'on'
p312
aa(lp313
F0.62391759732236
aI41
aI0
aI2
aS'off'
p314
aa(lp315
F0.42530713404085
aI41
aI118
aI2
aS'on'
p316
aa(lp317
F0.57624981636582
aI41
aI0
aI2
aS'off'
p318
aa(lp319
F0.37719409679812
aI41
aI114
aI2
aS'on'
p320
aa(lp321
F0.60124674426152
aI41
aI0
aI2
aS'off'
p322
aa(lp323
F0.42412904480079
aI40
aI120
aI2
aS'on'
p324
aa(lp325
F0.61248502294075
aI40
aI0
aI2
aS'off'
p326
aa(lp327
F0.38835218247186
aI40
aI123
aI2
aS'on'
p328
aa(lp329
F0.64846973313433
aI40
aI0
aI2
aS'off'
p330
aa(lp331
F0.40124431819277
aI40
aI123
aI2
aS'on'
p332
aa(lp333
F0.59952362788317
aI40
aI0
aI2
aS'off'
p334
aa(lp335
F0.39015781965281
aI40
aI123
aI2
aS'on'
p336
aa(lp337
F0.29395246550484
aI40
aI0
aI2
aS'off'
p338
aa(lp339
F0.11995432444746
aI0
aI0
aI0
aS'timeAfterLastHit'
p340
aaaI0
a(lp341
(lp342
F0.5
aI38
aI120
aI3
aS'on'
p343
aa(lp344
F0.95324115163658
aI38
aI0
aI3
aS'off'
p345
aa(lp346
F1.0467588483634
aI38
aI115
aI3
aS'on'
p347
aa(lp348
F1.1735155769238
aI38
aI0
aI3
aS'off'
p349
aa(lp350
F0.82648442307618
aI38
aI120
aI3
aS'on'
p351
aa(lp352
F1.2662785580997
aI38
aI0
aI3
aS'off'
p353
aa(lp354
F0.73372144190034
aI38
aI120
aI3
aS'on'
p355
aa(lp356
F1.1735331852788
aI38
aI0
aI3
aS'off'
p357
aa(lp358
F0.32646681472124
aI0
aI0
aI0
aS'timeAfterLastHit'
p359
aaa(lp360
(lp361
F0.75710982805776
aI38
aI108
aI3
aS'on'
p362
aa(lp363
F2.3654799207807
aI38
aI0
aI3
aS'off'
p364
aa(lp365
F1.1181690560325
aI38
aI107
aI3
aS'on'
p366
aa(lp367
F3.2891501871936
aI38
aI0
aI3
aS'off'
p368
aa(lp369
F0.47009100793548
aI0
aI0
aI0
aS'timeAfterLastHit'
p370
aaaI0
aI0
aI0
aI0
aI0
aI0
a(lp371
(lp372
F0.0
aI36
aI110
aI3
aS'on'
p373
aa(lp374
F0.09875165837957
aI36
aI0
aI3
aS'off'
p375
aa(lp376
F0.90124834162043
aI36
aI110
aI3
aS'on'
p377
aa(lp378
F0.189526997332
aI36
aI0
aI3
aS'off'
p379
aa(lp380
F0.310473002668
aI37
aI113
aI3
aS'on'
p381
aa(lp382
F0.18934270846466
aI37
aI0
aI3
aS'off'
p383
aa(lp384
F0.31065729153534
aI36
aI103
aI3
aS'on'
p385
aa(lp386
F0.19110574135993
aI36
aI0
aI3
aS'off'
p387
aa(lp388
F0.80889425864007
aI36
aI111
aI3
aS'on'
p389
aa(lp390
F0.0631531828476
aI36
aI0
aI3
aS'off'
p391
aa(lp392
F0.9368468171524
aI36
aI114
aI3
aS'on'
p393
aa(lp394
F0.06266905209759
aI36
aI0
aI3
aS'off'
p395
aa(lp396
F0.77066428123574
aI37
aI106
aI3
aS'on'
p397
aa(lp398
F0.11366263007494
aI37
aI0
aI3
aS'off'
p399
aa(lp400
F0.053004036591726
aI36
aI112
aI3
aS'on'
p401
aa(lp402
F0.20214247313697
aI36
aI0
aI3
aS'off'
p403
aa(lp404
F0.29785752686303
aI37
aI103
aI3
aS'on'
p405
aa(lp406
F0.19057670350958
aI37
aI0
aI3
aS'off'
p407
aa(lp408
F0.30942329649042
aI36
aI105
aI3
aS'on'
p409
aa(lp410
F0.17599373070789
aI36
aI0
aI3
aS'off'
p411
aa(lp412
F0.82400626929211
aI36
aI113
aI3
aS'on'
p413
aa(lp414
F0.16377330553769
aI36
aI0
aI3
aS'off'
p415
aa(lp416
F0.83622669446231
aI0
aI0
aI0
aS'timeAfterLastHit'
p417
aaa(lp418
(lp419
F0.5
aI39
aI120
aI3
aS'on'
p420
aa(lp421
F1.2130195609689
aI39
aI0
aI3
aS'off'
p422
aa(lp423
F2.7869804390311
aI39
aI120
aI3
aS'on'
p424
aa(lp425
F2.8641439850353
aI39
aI0
aI3
aS'off'
p426
aa(lp427
F0.6358560149647
aI0
aI0
aI0
aS'timeAfterLastHit'
p428
aaaI0
aI0
a(lp429
(lp430
F0.0
aI40
aI112
aI3
aS'on'
p431
aa(lp432
F0.31419171476773
aI40
aI0
aI3
aS'off'
p433
aa(lp434
F0.68580828523227
aI40
aI113
aI3
aS'on'
p435
aa(lp436
F0.27811283583014
aI40
aI0
aI3
aS'off'
p437
aa(lp438
F0.22188716416986
aI41
aI118
aI3
aS'on'
p439
aa(lp440
F0.30320181223397
aI41
aI0
aI3
aS'off'
p441
aa(lp442
F0.19679818776603
aI40
aI115
aI3
aS'on'
p443
aa(lp444
F0.34153087566847
aI40
aI0
aI3
aS'off'
p445
aa(lp446
F0.65846912433153
aI40
aI107
aI3
aS'on'
p447
aa(lp448
F0.42871611829742
aI40
aI0
aI3
aS'off'
p449
aa(lp450
F0.57128388170258
aI40
aI112
aI3
aS'on'
p451
aa(lp452
F0.29094403329873
aI40
aI0
aI3
aS'off'
p453
aa(lp454
F0.5423893000346
aI41
aI116
aI3
aS'on'
p455
aa(lp456
F0.16444267898169
aI41
aI0
aI3
aS'off'
p457
aa(lp458
F0.0022239876849808
aI40
aI114
aI3
aS'on'
p459
aa(lp460
F0.2149932856164
aI40
aI0
aI3
aS'off'
p461
aa(lp462
F0.2850067143836
aI41
aI116
aI3
aS'on'
p463
aa(lp464
F0.21404902431277
aI41
aI0
aI3
aS'off'
p465
aa(lp466
F0.28595097568723
aI40
aI115
aI3
aS'on'
p467
aa(lp468
F0.30434995568339
aI40
aI0
aI3
aS'off'
p469
aa(lp470
F0.69565004431661
aI40
aI111
aI3
aS'on'
p471
aa(lp472
F0.22751237910143
aI40
aI0
aI3
aS'off'
p473
aa(lp474
F0.77248762089857
aI0
aI0
aI0
aS'timeAfterLastHit'
p475
aaaI0
aI0
aI0
aI0
aI0
aI0
aI0
aI0
aI0
aI0
aI0
aI0
aI0
aI0
aI0
aI0
aI0
aI0
aI0
aI0
aI0
aI0
aI0
aI0
aI0
aI0
aI0
aI0
aI0
aI0
aI0
aI0
aI0
aI0
aI0
aI0
aI0
aI0
aI0
aI0
aI0
aI0
aI0
aI0
aI0
aI0
aI0
aI0
aI0
aI0
aI0
aI0
aI0
aI0
aI0
aI0
aI0
aI0
aI0
aI0
aI0
aI0
aa(lp476
(dp477
a(dp478
S'button'
p479
I31
sS'playing'
p480
I0
sa(dp481
a(dp482
g479
I33
sg480
I0
sa(dp483
g479
I34
sg480
I0
sa(dp484
a(dp485
g479
I36
sg480
I1
sa(dp486
g479
I37
sg480
I1
sa(dp487
g479
I38
sg480
I0
sa(dp488
a(dp489
a(dp490
g479
I43
sg480
I0
sa(dp491
g479
I44
sg480
I0
sa(dp492
a(dp493
a(dp494
a(dp495
a(dp496
a(dp497
a(dp498
a(dp499
a(dp500
a(dp501
g479
I56
sg480
I0
sa(dp502
g479
I57
sg480
I1
sa(dp503
a(dp504
g479
I61
sg480
I0
sa(dp505
g479
I62
sg480
I0
sa(dp506
a(dp507
a(dp508
a(dp509
a(dp510
a(dp511
a(dp512
g479
I71
sg480
I1
sa(dp513
g479
I72
sg480
I0
sa(dp514
a(dp515
a(dp516
g479
I75
sg480
I0
sa(dp517
a(dp518
a(dp519
a(dp520
a(dp521
a(dp522
a(dp523
a(dp524
a(dp525
a(dp526
a(dp527
a(dp528
a(dp529
a(dp530
a(dp531
a(dp532
a(dp533
a(dp534
a(dp535
a(dp536
a(dp537
a(dp538
a(dp539
a(dp540
a(dp541
a(dp542
a(dp543
a(dp544
a(dp545
a(dp546
a(dp547
a(dp548
a(dp549
a(dp550
a(dp551
a(dp552
a(dp553
a(dp554
a(dp555
a(dp556
a(dp557
a(dp558
a(dp559
a(dp560
a(dp561
a(dp562
a(dp563
a(dp564
a(dp565
a(dp566
a(dp567
a(dp568
a(dp569
a(dp570
a(dp571
a(dp572
a(dp573
a(dp574
a(dp575
a(dp576
a(dp577
a(dp578
aa(lp579
I60
aI60
aI36
aI36
aa(lp580
(lp581
I0
aI2
aI3
aI5
aI7
aI8
aI10
aa(lp582
I0
aI2
aI3
aI5
aI7
aI8
aI10
aa(lp583
I0
aI2
aI3
aI5
aI7
aI8
aI10
aa(lp584
I0
aI2
aI3
aI5
aI7
aI8
aI10
aa(lp585
I0
aI2
aI3
aI5
aI7
aI8
aI10
aa(lp586
I0
aI1
aI2
aI3
aI4
aI5
aI6
aI7
aI8
aI9
aI10
aI11
aaa(lp587
(lp588
(lp589
I0
aI0
aI0
aI0
aI0
aI0
aI0
aI0
aI0
aI0
aI0
aI0
aa(lp590
I0
aI0
aI0
aI0
aI0
aI0
aI0
aI0
aI0
aI0
aI0
aI0
aa(lp591
I0
aI0
aI0
aI0
aI0
aI0
aI0
aI0
aI0
aI0
aI0
aI0
aa(lp592
I0
aI0
aI0
aI0
aI0
aI0
aI0
aI0
aI0
aI0
aI0
aI0
aaa(lp593
(lp594
I0
aI0
aI0
aI0
aI0
aI0
aI0
aI0
aI0
aI0
aI0
aI0
aa(lp595
I0
aI0
aI0
aI0
aI0
aI0
aI0
aI0
aI0
aI0
aI0
aI0
aa(lp596
I0
aI0
aI0
aI0
aI0
aI0
aI0
aI0
aI0
aI0
aI0
aI0
aa(lp597
I0
aI0
aI0
aI0
aI0
aI0
aI0
aI0
aI0
aI0
aI0
aI0
aaa(lp598
(lp599
I0
aI0
aI0
aI0
aI0
aI0
aI0
aI0
aI0
aI0
aI0
aI0
aa(lp600
I0
aI0
aI0
aI0
aI0
aI0
aI0
aI0
aI0
aI0
aI0
aI0
aa(lp601
I0
aI0
aI0
aI0
aI0
aI0
aI0
aI0
aI0
aI0
aI0
aI0
aa(lp602
I0
aI0
aI0
aI0
aI0
aI0
aI0
aI0
aI0
aI0
aI0
aI0
aaa(lp603
(lp604
I0
aI0
aI0
aI0
aI0
aI0
aI0
aI0
aI0
aI0
aI0
aI0
aa(lp605
I0
aI0
aI0
aI0
aI0
aI0
aI0
aI0
aI0
aI0
aI0
aI0
aa(lp606
I0
aI0
aI0
aI0
aI0
aI0
aI0
aI0
aI0
aI0
aI0
aI0
aa(lp607
I0
aI0
aI0
aI0
aI0
aI0
aI0
aI0
aI0
aI0
aI0
aI0
aaaa(lp608
(lp609
I0
aI0
aI0
aI0
aI0
aI0
aI0
aI0
aI0
aI0
aI0
aI0
aa(lp610
I0
aI0
aI0
aI0
aI0
aI0
aI0
aI0
aI0
aI0
aI0
aI0
aa(lp611
I0
aI0
aI0
aI0
aI0
aI0
aI0
aI0
aI0
aI0
aI0
aI0
aa(lp612
I0
aI0
aI0
aI0
aI0
aI0
aI0
aI0
aI0
aI0
aI0
aI0
aaaa(lp613
(lp614
I0
a(lp615
(lp616
F0.0
aI31
aI99
aI3
ag5
aa(lp617
F0.65891966590061
aI31
aI0
aI3
ag7
aa(lp618
F0.34108033409939
aI31
aI103
aI3
ag9
aa(lp619
F0.69522106402292
aI31
aI0
aI3
ag11
aa(lp620
F0.30477893597708
aI31
aI99
aI3
ag13
aa(lp621
F0.69438935178641
aI31
aI0
aI3
ag15
aa(lp622
F0.30561064821359
aI31
aI110
aI3
ag17
aa(lp623
F0.65623286085247
aI31
aI0
aI3
ag19
aa(lp624
F0.34376713914753
aI0
aI0
aI0
ag21
aaaI0
a(lp625
(lp626
F0.5
aI35
aI108
aI3
ag24
aa(lp627
F0.30620387969975
aI35
aI0
aI3
ag26
aa(lp628
F0.52712945363358
aI34
aI112
aI3
ag28
aa(lp629
F0.24786790991675
aI34
aI0
aI3
ag30
aa(lp630
F0.25213209008325
aI33
aI112
aI3
ag32
aa(lp631
F1.5793990982747
aI33
aI0
aI3
ag34
aa(lp632
F0.58726756839193
aI0
aI0
aI0
ag36
aaa(lp633
(lp634
F2.5
aI32
aI116
aI3
ag39
aa(lp635
F0.46043987666417
aI32
aI0
aI3
ag41
aa(lp636
F3.5395601233358
aI32
aI116
aI3
ag43
aa(lp637
F0.18851552586784
aI32
aI0
aI3
ag45
aa(lp638
F0.31148447413216
aI32
aI121
aI3
ag47
aa(lp639
F0.48404598876914
aI32
aI0
aI3
ag49
aa(lp640
F0.51595401123086
aI0
aI0
aI0
ag51
aaaI0
a(lp641
(lp642
F0.022280124010649
aI67
aI114
aI1
ag54
aa(lp643
F31.804039500968
aI67
aI0
aI1
ag56
aa(lp644
F0.17368037502092
aI0
aI0
aI0
ag58
aaa(lp645
(lp646
F0.038942152919844
aI74
aI90
aI1
ag61
aa(lp647
F8.0116228372208
aI72
aI79
aI1
ag63
aa(lp648
F0.094126738064006
aI74
aI0
aI1
ag65
aa(lp649
F7.8880592366149
aI70
aI89
aI1
ag67
aa(lp650
F0.093149186541268
aI72
aI0
aI1
ag69
aa(lp651
F7.7568202098737
aI77
aI91
aI1
ag71
aa(lp652
F0.059425325498523
aI70
aI0
aI1
ag73
aa(lp653
F4.0362970412316
aI76
aI93
aI1
ag75
aa(lp654
F0.070295431150953
aI77
aI0
aI1
ag77
aa(lp655
F1.7330733408453
aI72
aI110
aI1
ag79
aa(lp656
F0.058033331162733
aI76
aI0
aI1
ag81
aa(lp657
F1.9785055260199
aI72
aI0
aI1
ag83
aa(lp658
F0.18164964285643
aI0
aI0
aI0
ag85
aaa(lp659
(lp660
F0.1456310114736
aI81
aI118
aI1
ag88
aa(lp661
F15.787790768061
aI81
aI0
aI1
ag90
aa(lp662
F0.11686472997644
aI79
aI114
aI1
ag92
aa(lp663
F15.734362672298
aI79
aI0
aI1
ag94
aa(lp664
F0.082417115072531
aI82
aI108
aI1
ag96
aa(lp665
F16.107255950279
aI84
aI100
aI1
ag98
aa(lp666
F0.10505749042022
aI82
aI0
aI1
ag100
aa(lp667
F15.910620262419
aI84
aI0
aI1
ag102
aa(lp668
F0.010000000000218
aI0
aI0
aI0
ag104
aaaI0
aI0
a(lp669
(lp670
F0.5
aI26
aI112
aI3
ag107
aa(lp671
F0.13974191692978
aI26
aI0
aI3
ag109
aa(lp672
F0.36025808307022
aI35
aI110
aI3
ag111
aa(lp673
F0.17630939709125
aI35
aI0
aI3
ag113
aa(lp674
F0.32369060290875
aI34
aI115
aI3
ag115
aa(lp675
F0.17749105834264
aI34
aI0
aI3
ag117
aa(lp676
F0.32250894165736
aI33
aI114
aI3
ag119
aa(lp677
F0.25283057809429
aI33
aI0
aI3
ag121
aa(lp678
F0.58050275523904
aI34
aI119
aI3
ag123
aa(lp679
F0.22297643197271
aI34
aI0
aI3
ag125
aa(lp680
F0.44369023469396
aI35
aI116
aI3
ag127
aa(lp681
F0.27882346488877
aI35
aI0
aI3
ag129
aa(lp682
F0.55450986844456
aI26
aI118
aI3
ag131
aa(lp683
F0.21446112910598
aI26
aI0
aI3
ag133
aa(lp684
F0.45220553756068
aI35
aI116
aI3
ag135
aa(lp685
F2.0478544536672
aI35
aI0
aI3
ag137
aa(lp686
F0.95214554633276
aI0
aI0
aI0
ag139
aaa(lp687
(lp688
F0.5
aI30
aI114
aI3
ag142
aa(lp689
F0.14987270940765
aI30
aI0
aI3
ag144
aa(lp690
F0.35012729059235
aI29
aI113
aI3
ag146
aa(lp691
F0.15767134934322
aI29
aI0
aI3
ag148
aa(lp692
F0.34232865065678
aI28
aI116
aI3
ag150
aa(lp693
F0.15833204835326
aI28
aI0
aI3
ag152
aa(lp694
F0.34166795164674
aI27
aI118
aI3
ag154
aa(lp695
F0.25000905072557
aI27
aI0
aI3
ag156
aa(lp696
F0.58332428260777
aI28
aI117
aI3
ag158
aa(lp697
F0.25239797534414
aI28
aI0
aI3
ag160
aa(lp698
F0.41426869132253
aI29
aI114
aI3
ag162
aa(lp699
F0.28990001202874
aI29
aI0
aI3
ag164
aa(lp700
F0.54343332130459
aI30
aI116
aI3
ag166
aa(lp701
F0.28897668218269
aI30
aI0
aI3
ag168
aa(lp702
F0.37768998448397
aI29
aI116
aI3
ag170
aa(lp703
F2.406297322781
aI29
aI0
aI3
ag172
aa(lp704
F0.59370267721897
aI0
aI0
aI0
ag174
aaaI0
aI0
aI0
aI0
aI0
aI0
aI0
aI0
aI0
a(lp705
(lp706
F0.56421944935209
aI31
aI121
aI2
ag177
aa(lp707
F0.613302803642
aI31
aI0
aI2
ag179
aa(lp708
F0.33082235890106
aI31
aI119
aI2
ag181
aa(lp709
F0.65821710743876
aI31
aI0
aI2
ag183
aa(lp710
F0.38889901010589
aI31
aI118
aI2
ag185
aa(lp711
F0.67216875888516
aI31
aI0
aI2
ag187
aa(lp712
F0.33263003994944
aI31
aI116
aI2
ag189
aa(lp713
F0.53831089549749
aI31
aI0
aI2
ag191
aa(lp714
F0.48315048032055
aI34
aI114
aI2
ag193
aa(lp715
F0.61179574664311
aI34
aI0
aI2
ag195
aa(lp716
F0.3422095874048
aI34
aI111
aI2
ag197
aa(lp717
F0.58831229353018
aI34
aI0
aI2
ag199
aa(lp718
F0.39061991361268
aI38
aI110
aI2
ag201
aa(lp719
F0.69349057484578
aI38
aI0
aI2
ag203
aa(lp720
F0.3548961760207
aI38
aI119
aI2
ag205
aa(lp721
F0.42695480385009
aI38
aI0
aI2
ag207
aa(lp722
F0.010000000000218
aI0
aI0
aI0
ag209
aaa(lp723
(lp724
F0.49227794327635
aI31
aI114
aI2
ag212
aa(lp725
F0.65913780027586
aI31
aI0
aI2
ag214
aa(lp726
F0.2713360914986
aI31
aI117
aI2
ag216
aa(lp727
F0.63601774967174
aI31
aI0
aI2
ag218
aa(lp728
F0.36534356198717
aI31
aI121
aI2
ag220
aa(lp729
F0.67017547363503
aI31
aI0
aI2
ag222
aa(lp730
F0.36410229318244
aI31
aI120
aI2
ag224
aa(lp731
F0.67049590087481
aI31
aI0
aI2
ag226
aa(lp732
F0.38801378859171
aI34
aI117
aI2
ag228
aa(lp733
F0.60116991338327
aI34
aI0
aI2
ag230
aa(lp734
F0.37638399355092
aI34
aI118
aI2
ag232
aa(lp735
F0.60135992305004
aI34
aI0
aI2
ag234
aa(lp736
F0.43568852815588
aI38
aI118
aI2
ag236
aa(lp737
F0.62536045169327
aI38
aI0
aI2
ag238
aa(lp738
F0.3523185479462
aI38
aI119
aI2
ag240
aa(lp739
F0.66080311603946
aI38
aI0
aI2
ag242
aa(lp740
F0.42338002542601
aI31
aI120
aI2
ag244
aa(lp741
F0.50707978463106
aI31
aI0
aI2
ag246
aa(lp742
F0.41300469305497
aI31
aI120
aI2
ag248
aa(lp743
F0.66051729255196
aI31
aI0
aI2
ag250
aa(lp744
F0.35301780470763
aI31
aI121
aI2
ag252
aa(lp745
F0.63722350658827
aI31
aI0
aI2
ag254
aa(lp746
F0.38958028670822
aI31
aI120
aI2
ag256
aa(lp747
F0.61320317926584
aI31
aI0
aI2
ag258
aa(lp748
F0.38829588038789
aI34
aI118
aI2
ag260
aa(lp749
F0.6128501042549
aI34
aI0
aI2
ag262
aa(lp750
F0.30746015413388
aI34
aI120
aI2
ag264
aa(lp751
F0.63522598938471
aI34
aI0
aI2
ag266
aa(lp752
F0.39085507987329
aI38
aI121
aI2
ag268
aa(lp753
F0.59858158148927
aI38
aI0
aI2
ag270
aa(lp754
F0.38746703306606
aI38
aI120
aI2
ag272
aa(lp755
F0.66093472567809
aI38
aI0
aI2
ag274
aa(lp756
F0.41287520840524
aI31
aI122
aI2
ag276
aa(lp757
F0.62245907256147
aI31
aI0
aI2
ag278
aa(lp758
F0.40160050970371
aI31
aI120
aI2
ag280
aa(lp759
F0.60125549435361
aI31
aI0
aI2
ag282
aa(lp760
F0.41237103379535
aI31
aI120
aI2
ag284
aa(lp761
F0.61476985990885
aI31
aI0
aI2
ag286
aa(lp762
F0.37499460869003
aI31
aI119
aI2
ag288
aa(lp763
F0.55470893043639
aI31
aI0
aI2
ag290
aa(lp764
F0.41298512422145
aI34
aI119
aI2
ag292
aa(lp765
F0.58854320305181
aI34
aI0
aI2
ag294
aa(lp766
F0.36533777066143
aI34
aI119
aI2
ag296
aa(lp767
F0.65962734783716
aI34
aI0
aI2
ag298
aa(lp768
F0.35414563783161
aI38
aI118
aI2
ag300
aa(lp769
F0.61388542033637
aI38
aI0
aI2
ag302
aa(lp770
F0.41371023690226
aI38
aI114
aI2
ag304
aa(lp771
F0.52998468849728
aI38
aI0
aI2
ag306
aa(lp772
F0.4588926589422
aI41
aI116
aI2
ag308
aa(lp773
F0.57787481817286
aI41
aI0
aI2
ag310
aa(lp774
F0.39913224985867
aI41
aI118
aI2
ag312
aa(lp775
F0.62391759732236
aI41
aI0
aI2
ag314
aa(lp776
F0.42530713404085
aI41
aI118
aI2
ag316
aa(lp777
F0.57624981636582
aI41
aI0
aI2
ag318
aa(lp778
F0.37719409679812
aI41
aI114
aI2
ag320
aa(lp779
F0.60124674426152
aI41
aI0
aI2
ag322
aa(lp780
F0.42412904480079
aI40
aI120
aI2
ag324
aa(lp781
F0.61248502294075
aI40
aI0
aI2
ag326
aa(lp782
F0.38835218247186
aI40
aI123
aI2
ag328
aa(lp783
F0.64846973313433
aI40
aI0
aI2
ag330
aa(lp784
F0.40124431819277
aI40
aI123
aI2
ag332
aa(lp785
F0.59952362788317
aI40
aI0
aI2
ag334
aa(lp786
F0.39015781965281
aI40
aI123
aI2
ag336
aa(lp787
F0.29395246550484
aI40
aI0
aI2
ag338
aa(lp788
F0.11995432444746
aI0
aI0
aI0
ag340
aaaI0
a(lp789
(lp790
F0.5
aI38
aI120
aI3
ag343
aa(lp791
F0.95324115163658
aI38
aI0
aI3
ag345
aa(lp792
F1.0467588483634
aI38
aI115
aI3
ag347
aa(lp793
F1.1735155769238
aI38
aI0
aI3
ag349
aa(lp794
F0.82648442307618
aI38
aI120
aI3
ag351
aa(lp795
F1.2662785580997
aI38
aI0
aI3
ag353
aa(lp796
F0.73372144190034
aI38
aI120
aI3
ag355
aa(lp797
F1.1735331852788
aI38
aI0
aI3
ag357
aa(lp798
F0.32646681472124
aI0
aI0
aI0
ag359
aaa(lp799
(lp800
F0.75710982805776
aI38
aI108
aI3
ag362
aa(lp801
F2.3654799207807
aI38
aI0
aI3
ag364
aa(lp802
F1.1181690560325
aI38
aI107
aI3
ag366
aa(lp803
F3.2891501871936
aI38
aI0
aI3
ag368
aa(lp804
F0.47009100793548
aI0
aI0
aI0
ag370
aaaI0
aI0
aI0
aI0
aI0
aI0
a(lp805
(lp806
F0.0
aI36
aI110
aI3
ag373
aa(lp807
F0.09875165837957
aI36
aI0
aI3
ag375
aa(lp808
F0.90124834162043
aI36
aI110
aI3
ag377
aa(lp809
F0.189526997332
aI36
aI0
aI3
ag379
aa(lp810
F0.310473002668
aI37
aI113
aI3
ag381
aa(lp811
F0.18934270846466
aI37
aI0
aI3
ag383
aa(lp812
F0.31065729153534
aI36
aI103
aI3
ag385
aa(lp813
F0.19110574135993
aI36
aI0
aI3
ag387
aa(lp814
F0.80889425864007
aI36
aI111
aI3
ag389
aa(lp815
F0.0631531828476
aI36
aI0
aI3
ag391
aa(lp816
F0.9368468171524
aI36
aI114
aI3
ag393
aa(lp817
F0.06266905209759
aI36
aI0
aI3
ag395
aa(lp818
F0.77066428123574
aI37
aI106
aI3
ag397
aa(lp819
F0.11366263007494
aI37
aI0
aI3
ag399
aa(lp820
F0.053004036591726
aI36
aI112
aI3
ag401
aa(lp821
F0.20214247313697
aI36
aI0
aI3
ag403
aa(lp822
F0.29785752686303
aI37
aI103
aI3
ag405
aa(lp823
F0.19057670350958
aI37
aI0
aI3
ag407
aa(lp824
F0.30942329649042
aI36
aI105
aI3
ag409
aa(lp825
F0.17599373070789
aI36
aI0
aI3
ag411
aa(lp826
F0.82400626929211
aI36
aI113
aI3
ag413
aa(lp827
F0.16377330553769
aI36
aI0
aI3
ag415
aa(lp828
F0.83622669446231
aI0
aI0
aI0
ag417
aaa(lp829
(lp830
F0.5
aI39
aI120
aI3
ag420
aa(lp831
F1.2130195609689
aI39
aI0
aI3
ag422
aa(lp832
F2.7869804390311
aI39
aI120
aI3
ag424
aa(lp833
F2.8641439850353
aI39
aI0
aI3
ag426
aa(lp834
F0.6358560149647
aI0
aI0
aI0
ag428
aaaI0
aI0
a(lp835
(lp836
F0.0
aI40
aI112
aI3
ag431
aa(lp837
F0.31419171476773
aI40
aI0
aI3
ag433
aa(lp838
F0.68580828523227
aI40
aI113
aI3
ag435
aa(lp839
F0.27811283583014
aI40
aI0
aI3
ag437
aa(lp840
F0.22188716416986
aI41
aI118
aI3
ag439
aa(lp841
F0.30320181223397
aI41
aI0
aI3
ag441
aa(lp842
F0.19679818776603
aI40
aI115
aI3
ag443
aa(lp843
F0.34153087566847
aI40
aI0
aI3
ag445
aa(lp844
F0.65846912433153
aI40
aI107
aI3
ag447
aa(lp845
F0.42871611829742
aI40
aI0
aI3
ag449
aa(lp846
F0.57128388170258
aI40
aI112
aI3
ag451
aa(lp847
F0.29094403329873
aI40
aI0
aI3
ag453
aa(lp848
F0.5423893000346
aI41
aI116
aI3
ag455
aa(lp849
F0.16444267898169
aI41
aI0
aI3
ag457
aa(lp850
F0.0022239876849808
aI40
aI114
aI3
ag459
aa(lp851
F0.2149932856164
aI40
aI0
aI3
ag461
aa(lp852
F0.2850067143836
aI41
aI116
aI3
ag463
aa(lp853
F0.21404902431277
aI41
aI0
aI3
ag465
aa(lp854
F0.28595097568723
aI40
aI115
aI3
ag467
aa(lp855
F0.30434995568339
aI40
aI0
aI3
ag469
aa(lp856
F0.69565004431661
aI40
aI111
aI3
ag471
aa(lp857
F0.22751237910143
aI40
aI0
aI3
ag473
aa(lp858
F0.77248762089857
aI0
aI0
aI0
ag475
aaaI0
aI0
aI0
aI0
aI0
aI0
aI0
aI0
aI0
aI0
aI0
aI0
aI0
aI0
aI0
aI0
aI0
aI0
aI0
aI0
aI0
aI0
aI0
aI0
aI0
aI0
aI0
aI0
aI0
aI0
aI0
aI0
aI0
aI0
aI0
aI0
aI0
aI0
aI0
aI0
aI0
aI0
aI0
aI0
aI0
aI0
aI0
aI0
aI0
aI0
aI0
aI0
aI0
aI0
aI0
aI0
aI0
aI0
aI0
aI0
aI0
aI0
aa(lp859
(dp860
a(dp861
g479
I31
sg480
I0
sa(dp862
a(dp863
g479
I33
sg480
I0
sa(dp864
g479
I34
sg480
I0
sa(dp865
a(dp866
g479
I36
sg480
I1
sa(dp867
g479
I37
sg480
I1
sa(dp868
g479
I38
sg480
I0
sa(dp869
a(dp870
a(dp871
g479
I43
sg480
I0
sa(dp872
g479
I44
sg480
I0
sa(dp873
a(dp874
a(dp875
a(dp876
a(dp877
a(dp878
a(dp879
a(dp880
a(dp881
a(dp882
g479
I56
sg480
I0
sa(dp883
g479
I57
sg480
I1
sa(dp884
a(dp885
g479
I61
sg480
I0
sa(dp886
g479
I62
sg480
I0
sa(dp887
a(dp888
a(dp889
a(dp890
a(dp891
a(dp892
a(dp893
g479
I71
sg480
I1
sa(dp894
g479
I72
sg480
I0
sa(dp895
a(dp896
a(dp897
g479
I75
sg480
I0
sa(dp898
a(dp899
a(dp900
a(dp901
a(dp902
a(dp903
a(dp904
a(dp905
a(dp906
a(dp907
a(dp908
a(dp909
a(dp910
a(dp911
a(dp912
a(dp913
a(dp914
a(dp915
a(dp916
a(dp917
a(dp918
a(dp919
a(dp920
a(dp921
a(dp922
a(dp923
a(dp924
a(dp925
a(dp926
a(dp927
a(dp928
a(dp929
a(dp930
a(dp931
a(dp932
a(dp933
a(dp934
a(dp935
a(dp936
a(dp937
a(dp938
a(dp939
a(dp940
a(dp941
a(dp942
a(dp943
a(dp944
a(dp945
a(dp946
a(dp947
a(dp948
a(dp949
a(dp950
a(dp951
a(dp952
a(dp953
a(dp954
a(dp955
a(dp956
a(dp957
a(dp958
a(dp959
aa(lp960
I60
aI60
aI36
aI36
aa(lp961
(lp962
I0
aI2
aI3
aI5
aI7
aI8
aI10
aa(lp963
I0
aI2
aI3
aI5
aI7
aI8
aI10
aa(lp964
I0
aI2
aI3
aI5
aI7
aI8
aI10
aa(lp965
I0
aI2
aI3
aI5
aI7
aI8
aI10
aa(lp966
I0
aI2
aI3
aI5
aI7
aI8
aI10
aa(lp967
I0
aI1
aI2
aI3
aI4
aI5
aI6
aI7
aI8
aI9
aI10
aI11
aaa(lp968
(lp969
(lp970
I0
aI0
aI0
aI0
aI0
aI0
aI0
aI0
aI0
aI0
aI0
aI0
aa(lp971
I0
aI0
aI0
aI0
aI0
aI0
aI0
aI0
aI0
aI0
aI0
aI0
aa(lp972
I0
aI0
aI0
aI0
aI0
aI0
aI0
aI0
aI0
aI0
aI0
aI0
aa(lp973
I0
aI0
aI0
aI0
aI0
aI0
aI0
aI0
aI0
aI0
aI0
aI0
aaa(lp974
(lp975
I0
aI0
aI0
aI0
aI0
aI0
aI0
aI0
aI0
aI0
aI0
aI0
aa(lp976
I0
aI0
aI0
aI0
aI0
aI0
aI0
aI0
aI0
aI0
aI0
aI0
aa(lp977
I0
aI0
aI0
aI0
aI0
aI0
aI0
aI0
aI0
aI0
aI0
aI0
aa(lp978
I0
aI0
aI0
aI0
aI0
aI0
aI0
aI0
aI0
aI0
aI0
aI0
aaa(lp979
(lp980
I0
aI0
aI0
aI0
aI0
aI0
aI0
aI0
aI0
aI0
aI0
aI0
aa(lp981
I0
aI0
aI0
aI0
aI0
aI0
aI0
aI0
aI0
aI0
aI0
aI0
aa(lp982
I0
aI0
aI0
aI0
aI0
aI0
aI0
aI0
aI0
aI0
aI0
aI0
aa(lp983
I0
aI0
aI0
aI0
aI0
aI0
aI0
aI0
aI0
aI0
aI0
aI0
aaa(lp984
(lp985
I0
aI0
aI0
aI0
aI0
aI0
aI0
aI0
aI0
aI0
aI0
aI0
aa(lp986
I0
aI0
aI0
aI0
aI0
aI0
aI0
aI0
aI0
aI0
aI0
aI0
aa(lp987
I0
aI0
aI0
aI0
aI0
aI0
aI0
aI0
aI0
aI0
aI0
aI0
aa(lp988
I0
aI0
aI0
aI0
aI0
aI0
aI0
aI0
aI0
aI0
aI0
aI0
aaaa(lp989
(lp990
I0
aI0
aI0
aI0
aI0
aI0
aI0
aI0
aI0
aI0
aI0
aI0
aa(lp991
I0
aI0
aI0
aI0
aI0
aI0
aI0
aI0
aI0
aI0
aI0
aI0
aa(lp992
I0
aI0
aI0
aI0
aI0
aI0
aI0
aI0
aI0
aI0
aI0
aI0
aa(lp993
I0
aI0
aI0
aI0
aI0
aI0
aI0
aI0
aI0
aI0
aI0
aI0
aaaa(lp994
(lp995
I0
a(lp996
(lp997
F0.0
aI31
aI99
aI3
ag5
aa(lp998
F0.65891966590061
aI31
aI0
aI3
ag7
aa(lp999
F0.34108033409939
aI31
aI103
aI3
ag9
aa(lp1000
F0.69522106402292
aI31
aI0
aI3
ag11
aa(lp1001
F0.30477893597708
aI31
aI99
aI3
ag13
aa(lp1002
F0.69438935178641
aI31
aI0
aI3
ag15
aa(lp1003
F0.30561064821359
aI31
aI110
aI3
ag17
aa(lp1004
F0.65623286085247
aI31
aI0
aI3
ag19
aa(lp1005
F0.34376713914753
aI0
aI0
aI0
ag21
aaaI0
a(lp1006
(lp1007
F0.5
aI35
aI108
aI3
ag24
aa(lp1008
F0.30620387969975
aI35
aI0
aI3
ag26
aa(lp1009
F0.52712945363358
aI34
aI112
aI3
ag28
aa(lp1010
F0.24786790991675
aI34
aI0
aI3
ag30
aa(lp1011
F0.25213209008325
aI33
aI112
aI3
ag32
aa(lp1012
F1.5793990982747
aI33
aI0
aI3
ag34
aa(lp1013
F0.58726756839193
aI0
aI0
aI0
ag36
aaa(lp1014
(lp1015
F2.5
aI32
aI116
aI3
ag39
aa(lp1016
F0.46043987666417
aI32
aI0
aI3
ag41
aa(lp1017
F3.5395601233358
aI32
aI116
aI3
ag43
aa(lp1018
F0.18851552586784
aI32
aI0
aI3
ag45
aa(lp1019
F0.31148447413216
aI32
aI121
aI3
ag47
aa(lp1020
F0.48404598876914
aI32
aI0
aI3
ag49
aa(lp1021
F0.51595401123086
aI0
aI0
aI0
ag51
aaaI0
a(lp1022
(lp1023
F0.022280124010649
aI67
aI114
aI1
ag54
aa(lp1024
F31.804039500968
aI67
aI0
aI1
ag56
aa(lp1025
F0.17368037502092
aI0
aI0
aI0
ag58
aaa(lp1026
(lp1027
F0.038942152919844
aI74
aI90
aI1
ag61
aa(lp1028
F8.0116228372208
aI72
aI79
aI1
ag63
aa(lp1029
F0.094126738064006
aI74
aI0
aI1
ag65
aa(lp1030
F7.8880592366149
aI70
aI89
aI1
ag67
aa(lp1031
F0.093149186541268
aI72
aI0
aI1
ag69
aa(lp1032
F7.7568202098737
aI77
aI91
aI1
ag71
aa(lp1033
F0.059425325498523
aI70
aI0
aI1
ag73
aa(lp1034
F4.0362970412316
aI76
aI93
aI1
ag75
aa(lp1035
F0.070295431150953
aI77
aI0
aI1
ag77
aa(lp1036
F1.7330733408453
aI72
aI110
aI1
ag79
aa(lp1037
F0.058033331162733
aI76
aI0
aI1
ag81
aa(lp1038
F1.9785055260199
aI72
aI0
aI1
ag83
aa(lp1039
F0.18164964285643
aI0
aI0
aI0
ag85
aaa(lp1040
(lp1041
F0.1456310114736
aI81
aI118
aI1
ag88
aa(lp1042
F15.787790768061
aI81
aI0
aI1
ag90
aa(lp1043
F0.11686472997644
aI79
aI114
aI1
ag92
aa(lp1044
F15.734362672298
aI79
aI0
aI1
ag94
aa(lp1045
F0.082417115072531
aI82
aI108
aI1
ag96
aa(lp1046
F16.107255950279
aI84
aI100
aI1
ag98
aa(lp1047
F0.10505749042022
aI82
aI0
aI1
ag100
aa(lp1048
F15.910620262419
aI84
aI0
aI1
ag102
aa(lp1049
F0.010000000000218
aI0
aI0
aI0
ag104
aaaI0
aI0
a(lp1050
(lp1051
F0.5
aI26
aI112
aI3
ag107
aa(lp1052
F0.13974191692978
aI26
aI0
aI3
ag109
aa(lp1053
F0.36025808307022
aI35
aI110
aI3
ag111
aa(lp1054
F0.17630939709125
aI35
aI0
aI3
ag113
aa(lp1055
F0.32369060290875
aI34
aI115
aI3
ag115
aa(lp1056
F0.17749105834264
aI34
aI0
aI3
ag117
aa(lp1057
F0.32250894165736
aI33
aI114
aI3
ag119
aa(lp1058
F0.25283057809429
aI33
aI0
aI3
ag121
aa(lp1059
F0.58050275523904
aI34
aI119
aI3
ag123
aa(lp1060
F0.22297643197271
aI34
aI0
aI3
ag125
aa(lp1061
F0.44369023469396
aI35
aI116
aI3
ag127
aa(lp1062
F0.27882346488877
aI35
aI0
aI3
ag129
aa(lp1063
F0.55450986844456
aI26
aI118
aI3
ag131
aa(lp1064
F0.21446112910598
aI26
aI0
aI3
ag133
aa(lp1065
F0.45220553756068
aI35
aI116
aI3
ag135
aa(lp1066
F2.0478544536672
aI35
aI0
aI3
ag137
aa(lp1067
F0.95214554633276
aI0
aI0
aI0
ag139
aaa(lp1068
(lp1069
F0.5
aI30
aI114
aI3
ag142
aa(lp1070
F0.14987270940765
aI30
aI0
aI3
ag144
aa(lp1071
F0.35012729059235
aI29
aI113
aI3
ag146
aa(lp1072
F0.15767134934322
aI29
aI0
aI3
ag148
aa(lp1073
F0.34232865065678
aI28
aI116
aI3
ag150
aa(lp1074
F0.15833204835326
aI28
aI0
aI3
ag152
aa(lp1075
F0.34166795164674
aI27
aI118
aI3
ag154
aa(lp1076
F0.25000905072557
aI27
aI0
aI3
ag156
aa(lp1077
F0.58332428260777
aI28
aI117
aI3
ag158
aa(lp1078
F0.25239797534414
aI28
aI0
aI3
ag160
aa(lp1079
F0.41426869132253
aI29
aI114
aI3
ag162
aa(lp1080
F0.28990001202874
aI29
aI0
aI3
ag164
aa(lp1081
F0.54343332130459
aI30
aI116
aI3
ag166
aa(lp1082
F0.28897668218269
aI30
aI0
aI3
ag168
aa(lp1083
F0.37768998448397
aI29
aI116
aI3
ag170
aa(lp1084
F2.406297322781
aI29
aI0
aI3
ag172
aa(lp1085
F0.59370267721897
aI0
aI0
aI0
ag174
aaaI0
aI0
aI0
aI0
aI0
aI0
aI0
aI0
aI0
a(lp1086
(lp1087
F0.56421944935209
aI31
aI121
aI2
ag177
aa(lp1088
F0.613302803642
aI31
aI0
aI2
ag179
aa(lp1089
F0.33082235890106
aI31
aI119
aI2
ag181
aa(lp1090
F0.65821710743876
aI31
aI0
aI2
ag183
aa(lp1091
F0.38889901010589
aI31
aI118
aI2
ag185
aa(lp1092
F0.67216875888516
aI31
aI0
aI2
ag187
aa(lp1093
F0.33263003994944
aI31
aI116
aI2
ag189
aa(lp1094
F0.53831089549749
aI31
aI0
aI2
ag191
aa(lp1095
F0.48315048032055
aI34
aI114
aI2
ag193
aa(lp1096
F0.61179574664311
aI34
aI0
aI2
ag195
aa(lp1097
F0.3422095874048
aI34
aI111
aI2
ag197
aa(lp1098
F0.58831229353018
aI34
aI0
aI2
ag199
aa(lp1099
F0.39061991361268
aI38
aI110
aI2
ag201
aa(lp1100
F0.69349057484578
aI38
aI0
aI2
ag203
aa(lp1101
F0.3548961760207
aI38
aI119
aI2
ag205
aa(lp1102
F0.42695480385009
aI38
aI0
aI2
ag207
aa(lp1103
F0.010000000000218
aI0
aI0
aI0
ag209
aaa(lp1104
(lp1105
F0.49227794327635
aI31
aI114
aI2
ag212
aa(lp1106
F0.65913780027586
aI31
aI0
aI2
ag214
aa(lp1107
F0.2713360914986
aI31
aI117
aI2
ag216
aa(lp1108
F0.63601774967174
aI31
aI0
aI2
ag218
aa(lp1109
F0.36534356198717
aI31
aI121
aI2
ag220
aa(lp1110
F0.67017547363503
aI31
aI0
aI2
ag222
aa(lp1111
F0.36410229318244
aI31
aI120
aI2
ag224
aa(lp1112
F0.67049590087481
aI31
aI0
aI2
ag226
aa(lp1113
F0.38801378859171
aI34
aI117
aI2
ag228
aa(lp1114
F0.60116991338327
aI34
aI0
aI2
ag230
aa(lp1115
F0.37638399355092
aI34
aI118
aI2
ag232
aa(lp1116
F0.60135992305004
aI34
aI0
aI2
ag234
aa(lp1117
F0.43568852815588
aI38
aI118
aI2
ag236
aa(lp1118
F0.62536045169327
aI38
aI0
aI2
ag238
aa(lp1119
F0.3523185479462
aI38
aI119
aI2
ag240
aa(lp1120
F0.66080311603946
aI38
aI0
aI2
ag242
aa(lp1121
F0.42338002542601
aI31
aI120
aI2
ag244
aa(lp1122
F0.50707978463106
aI31
aI0
aI2
ag246
aa(lp1123
F0.41300469305497
aI31
aI120
aI2
ag248
aa(lp1124
F0.66051729255196
aI31
aI0
aI2
ag250
aa(lp1125
F0.35301780470763
aI31
aI121
aI2
ag252
aa(lp1126
F0.63722350658827
aI31
aI0
aI2
ag254
aa(lp1127
F0.38958028670822
aI31
aI120
aI2
ag256
aa(lp1128
F0.61320317926584
aI31
aI0
aI2
ag258
aa(lp1129
F0.38829588038789
aI34
aI118
aI2
ag260
aa(lp1130
F0.6128501042549
aI34
aI0
aI2
ag262
aa(lp1131
F0.30746015413388
aI34
aI120
aI2
ag264
aa(lp1132
F0.63522598938471
aI34
aI0
aI2
ag266
aa(lp1133
F0.39085507987329
aI38
aI121
aI2
ag268
aa(lp1134
F0.59858158148927
aI38
aI0
aI2
ag270
aa(lp1135
F0.38746703306606
aI38
aI120
aI2
ag272
aa(lp1136
F0.66093472567809
aI38
aI0
aI2
ag274
aa(lp1137
F0.41287520840524
aI31
aI122
aI2
ag276
aa(lp1138
F0.62245907256147
aI31
aI0
aI2
ag278
aa(lp1139
F0.40160050970371
aI31
aI120
aI2
ag280
aa(lp1140
F0.60125549435361
aI31
aI0
aI2
ag282
aa(lp1141
F0.41237103379535
aI31
aI120
aI2
ag284
aa(lp1142
F0.61476985990885
aI31
aI0
aI2
ag286
aa(lp1143
F0.37499460869003
aI31
aI119
aI2
ag288
aa(lp1144
F0.55470893043639
aI31
aI0
aI2
ag290
aa(lp1145
F0.41298512422145
aI34
aI119
aI2
ag292
aa(lp1146
F0.58854320305181
aI34
aI0
aI2
ag294
aa(lp1147
F0.36533777066143
aI34
aI119
aI2
ag296
aa(lp1148
F0.65962734783716
aI34
aI0
aI2
ag298
aa(lp1149
F0.35414563783161
aI38
aI118
aI2
ag300
aa(lp1150
F0.61388542033637
aI38
aI0
aI2
ag302
aa(lp1151
F0.41371023690226
aI38
aI114
aI2
ag304
aa(lp1152
F0.52998468849728
aI38
aI0
aI2
ag306
aa(lp1153
F0.4588926589422
aI41
aI116
aI2
ag308
aa(lp1154
F0.57787481817286
aI41
aI0
aI2
ag310
aa(lp1155
F0.39913224985867
aI41
aI118
aI2
ag312
aa(lp1156
F0.62391759732236
aI41
aI0
aI2
ag314
aa(lp1157
F0.42530713404085
aI41
aI118
aI2
ag316
aa(lp1158
F0.57624981636582
aI41
aI0
aI2
ag318
aa(lp1159
F0.37719409679812
aI41
aI114
aI2
ag320
aa(lp1160
F0.60124674426152
aI41
aI0
aI2
ag322
aa(lp1161
F0.42412904480079
aI40
aI120
aI2
ag324
aa(lp1162
F0.61248502294075
aI40
aI0
aI2
ag326
aa(lp1163
F0.38835218247186
aI40
aI123
aI2
ag328
aa(lp1164
F0.64846973313433
aI40
aI0
aI2
ag330
aa(lp1165
F0.40124431819277
aI40
aI123
aI2
ag332
aa(lp1166
F0.59952362788317
aI40
aI0
aI2
ag334
aa(lp1167
F0.39015781965281
aI40
aI123
aI2
ag336
aa(lp1168
F0.29395246550484
aI40
aI0
aI2
ag338
aa(lp1169
F0.11995432444746
aI0
aI0
aI0
ag340
aaaI0
a(lp1170
(lp1171
F0.5
aI38
aI120
aI3
ag343
aa(lp1172
F0.95324115163658
aI38
aI0
aI3
ag345
aa(lp1173
F1.0467588483634
aI38
aI115
aI3
ag347
aa(lp1174
F1.1735155769238
aI38
aI0
aI3
ag349
aa(lp1175
F0.82648442307618
aI38
aI120
aI3
ag351
aa(lp1176
F1.2662785580997
aI38
aI0
aI3
ag353
aa(lp1177
F0.73372144190034
aI38
aI120
aI3
ag355
aa(lp1178
F1.1735331852788
aI38
aI0
aI3
ag357
aa(lp1179
F0.32646681472124
aI0
aI0
aI0
ag359
aaa(lp1180
(lp1181
F0.75710982805776
aI38
aI108
aI3
ag362
aa(lp1182
F2.3654799207807
aI38
aI0
aI3
ag364
aa(lp1183
F1.1181690560325
aI38
aI107
aI3
ag366
aa(lp1184
F3.2891501871936
aI38
aI0
aI3
ag368
aa(lp1185
F0.47009100793548
aI0
aI0
aI0
ag370
aaaI0
aI0
aI0
aI0
aI0
aI0
a(lp1186
(lp1187
F0.0
aI36
aI110
aI3
ag373
aa(lp1188
F0.09875165837957
aI36
aI0
aI3
ag375
aa(lp1189
F0.90124834162043
aI36
aI110
aI3
ag377
aa(lp1190
F0.189526997332
aI36
aI0
aI3
ag379
aa(lp1191
F0.310473002668
aI37
aI113
aI3
ag381
aa(lp1192
F0.18934270846466
aI37
aI0
aI3
ag383
aa(lp1193
F0.31065729153534
aI36
aI103
aI3
ag385
aa(lp1194
F0.19110574135993
aI36
aI0
aI3
ag387
aa(lp1195
F0.80889425864007
aI36
aI111
aI3
ag389
aa(lp1196
F0.0631531828476
aI36
aI0
aI3
ag391
aa(lp1197
F0.9368468171524
aI36
aI114
aI3
ag393
aa(lp1198
F0.06266905209759
aI36
aI0
aI3
ag395
aa(lp1199
F0.77066428123574
aI37
aI106
aI3
ag397
aa(lp1200
F0.11366263007494
aI37
aI0
aI3
ag399
aa(lp1201
F0.053004036591726
aI36
aI112
aI3
ag401
aa(lp1202
F0.20214247313697
aI36
aI0
aI3
ag403
aa(lp1203
F0.29785752686303
aI37
aI103
aI3
ag405
aa(lp1204
F0.19057670350958
aI37
aI0
aI3
ag407
aa(lp1205
F0.30942329649042
aI36
aI105
aI3
ag409
aa(lp1206
F0.17599373070789
aI36
aI0
aI3
ag411
aa(lp1207
F0.82400626929211
aI36
aI113
aI3
ag413
aa(lp1208
F0.16377330553769
aI36
aI0
aI3
ag415
aa(lp1209
F0.83622669446231
aI0
aI0
aI0
ag417
aaa(lp1210
(lp1211
F0.5
aI39
aI120
aI3
ag420
aa(lp1212
F1.2130195609689
aI39
aI0
aI3
ag422
aa(lp1213
F2.7869804390311
aI39
aI120
aI3
ag424
aa(lp1214
F2.8641439850353
aI39
aI0
aI3
ag426
aa(lp1215
F0.6358560149647
aI0
aI0
aI0
ag428
aaaI0
aI0
a(lp1216
(lp1217
F0.0
aI40
aI112
aI3
ag431
aa(lp1218
F0.31419171476773
aI40
aI0
aI3
ag433
aa(lp1219
F0.68580828523227
aI40
aI113
aI3
ag435
aa(lp1220
F0.27811283583014
aI40
aI0
aI3
ag437
aa(lp1221
F0.22188716416986
aI41
aI118
aI3
ag439
aa(lp1222
F0.30320181223397
aI41
aI0
aI3
ag441
aa(lp1223
F0.19679818776603
aI40
aI115
aI3
ag443
aa(lp1224
F0.34153087566847
aI40
aI0
aI3
ag445
aa(lp1225
F0.65846912433153
aI40
aI107
aI3
ag447
aa(lp1226
F0.42871611829742
aI40
aI0
aI3
ag449
aa(lp1227
F0.57128388170258
aI40
aI112
aI3
ag451
aa(lp1228
F0.29094403329873
aI40
aI0
aI3
ag453
aa(lp1229
F0.5423893000346
aI41
aI116
aI3
ag455
aa(lp1230
F0.16444267898169
aI41
aI0
aI3
ag457
aa(lp1231
F0.0022239876849808
aI40
aI114
aI3
ag459
aa(lp1232
F0.2149932856164
aI40
aI0
aI3
ag461
aa(lp1233
F0.2850067143836
aI41
aI116
aI3
ag463
aa(lp1234
F0.21404902431277
aI41
aI0
aI3
ag465
aa(lp1235
F0.28595097568723
aI40
aI115
aI3
ag467
aa(lp1236
F0.30434995568339
aI40
aI0
aI3
ag469
aa(lp1237
F0.69565004431661
aI40
aI111
aI3
ag471
aa(lp1238
F0.22751237910143
aI40
aI0
aI3
ag473
aa(lp1239
F0.77248762089857
aI0
aI0
aI0
ag475
aaaI0
aI0
aI0
aI0
aI0
aI0
aI0
aI0
aI0
aI0
aI0
aI0
aI0
aI0
aI0
aI0
aI0
aI0
aI0
aI0
aI0
aI0
aI0
aI0
aI0
aI0
aI0
aI0
aI0
aI0
aI0
aI0
aI0
aI0
aI0
aI0
aI0
aI0
aI0
aI0
aI0
aI0
aI0
aI0
aI0
aI0
aI0
aI0
aI0
aI0
aI0
aI0
aI0
aI0
aI0
aI0
aI0
aI0
aI0
aI0
aI0
aI0
aa(lp1240
(dp1241
a(dp1242
g479
I31
sg480
I0
sa(dp1243
a(dp1244
g479
I33
sg480
I0
sa(dp1245
g479
I34
sg480
I0
sa(dp1246
a(dp1247
g479
I36
sg480
I1
sa(dp1248
g479
I37
sg480
I1
sa(dp1249
g479
I38
sg480
I1
sa(dp1250
a(dp1251
a(dp1252
g479
I43
sg480
I0
sa(dp1253
g479
I44
sg480
I0
sa(dp1254
a(dp1255
a(dp1256
a(dp1257
a(dp1258
a(dp1259
a(dp1260
a(dp1261
a(dp1262
a(dp1263
g479
I56
sg480
I0
sa(dp1264
g479
I57
sg480
I1
sa(dp1265
a(dp1266
g479
I61
sg480
I0
sa(dp1267
g479
I62
sg480
I0
sa(dp1268
a(dp1269
a(dp1270
a(dp1271
a(dp1272
a(dp1273
a(dp1274
g479
I71
sg480
I1
sa(dp1275
g479
I72
sg480
I0
sa(dp1276
a(dp1277
a(dp1278
g479
I75
sg480
I0
sa(dp1279
a(dp1280
a(dp1281
a(dp1282
a(dp1283
a(dp1284
a(dp1285
a(dp1286
a(dp1287
a(dp1288
a(dp1289
a(dp1290
a(dp1291
a(dp1292
a(dp1293
a(dp1294
a(dp1295
a(dp1296
a(dp1297
a(dp1298
a(dp1299
a(dp1300
a(dp1301
a(dp1302
a(dp1303
a(dp1304
a(dp1305
a(dp1306
a(dp1307
a(dp1308
a(dp1309
a(dp1310
a(dp1311
a(dp1312
a(dp1313
a(dp1314
a(dp1315
a(dp1316
a(dp1317
a(dp1318
a(dp1319
a(dp1320
a(dp1321
a(dp1322
a(dp1323
a(dp1324
a(dp1325
a(dp1326
a(dp1327
a(dp1328
a(dp1329
a(dp1330
a(dp1331
a(dp1332
a(dp1333
a(dp1334
a(dp1335
a(dp1336
a(dp1337
a(dp1338
a(dp1339
a(dp1340
aa(lp1341
I60
aI60
aI36
aI36
aa(lp1342
(lp1343
I0
aI2
aI3
aI5
aI7
aI8
aI10
aa(lp1344
I0
aI2
aI3
aI5
aI7
aI8
aI10
aa(lp1345
I0
aI2
aI3
aI5
aI7
aI8
aI10
aa(lp1346
I0
aI2
aI3
aI5
aI7
aI8
aI10
aa(lp1347
I0
aI2
aI3
aI5
aI7
aI8
aI10
aa(lp1348
I0
aI1
aI2
aI3
aI4
aI5
aI6
aI7
aI8
aI9
aI10
aI11
aaa(lp1349
(lp1350
(lp1351
I0
aI0
aI0
aI0
aI0
aI0
aI0
aI0
aI0
aI0
aI0
aI0
aa(lp1352
I0
aI0
aI0
aI0
aI0
aI0
aI0
aI0
aI0
aI0
aI0
aI0
aa(lp1353
I0
aI0
aI0
aI0
aI0
aI0
aI0
aI0
aI0
aI0
aI0
aI0
aa(lp1354
I0
aI0
aI0
aI0
aI0
aI0
aI0
aI0
aI0
aI0
aI0
aI0
aaa(lp1355
(lp1356
I0
aI0
aI0
aI0
aI0
aI0
aI0
aI0
aI0
aI0
aI0
aI0
aa(lp1357
I0
aI0
aI0
aI0
aI0
aI0
aI0
aI0
aI0
aI0
aI0
aI0
aa(lp1358
I0
aI0
aI0
aI0
aI0
aI0
aI0
aI0
aI0
aI0
aI0
aI0
aa(lp1359
I0
aI0
aI0
aI0
aI0
aI0
aI0
aI0
aI0
aI0
aI0
aI0
aaa(lp1360
(lp1361
I0
aI0
aI0
aI0
aI0
aI0
aI0
aI0
aI0
aI0
aI0
aI0
aa(lp1362
I0
aI0
aI0
aI0
aI0
aI0
aI0
aI0
aI0
aI0
aI0
aI0
aa(lp1363
I0
aI0
aI0
aI0
aI0
aI0
aI0
aI0
aI0
aI0
aI0
aI0
aa(lp1364
I0
aI0
aI0
aI0
aI0
aI0
aI0
aI0
aI0
aI0
aI0
aI0
aaa(lp1365
(lp1366
I0
aI0
aI0
aI0
aI0
aI0
aI0
aI0
aI0
aI0
aI0
aI0
aa(lp1367
I0
aI0
aI0
aI0
aI0
aI0
aI0
aI0
aI0
aI0
aI0
aI0
aa(lp1368
I0
aI0
aI0
aI0
aI0
aI0
aI0
aI0
aI0
aI0
aI0
aI0
aa(lp1369
I0
aI0
aI0
aI0
aI0
aI0
aI0
aI0
aI0
aI0
aI0
aI0
aaaa(lp1370
(lp1371
I0
aI0
aI0
aI0
aI0
aI0
aI0
aI0
aI0
aI0
aI0
aI0
aa(lp1372
I0
aI0
aI0
aI0
aI0
aI0
aI0
aI0
aI0
aI0
aI0
aI0
aa(lp1373
I0
aI0
aI0
aI0
aI0
aI0
aI0
aI0
aI0
aI0
aI0
aI0
aa(lp1374
I0
aI0
aI0
aI0
aI0
aI0
aI0
aI0
aI0
aI0
aI0
aI0
aaaa(lp1375
(lp1376
I0
a(lp1377
(lp1378
F0.0
aI31
aI99
aI3
ag5
aa(lp1379
F0.65891966590061
aI31
aI0
aI3
ag7
aa(lp1380
F0.34108033409939
aI31
aI103
aI3
ag9
aa(lp1381
F0.69522106402292
aI31
aI0
aI3
ag11
aa(lp1382
F0.30477893597708
aI31
aI99
aI3
ag13
aa(lp1383
F0.69438935178641
aI31
aI0
aI3
ag15
aa(lp1384
F0.30561064821359
aI31
aI110
aI3
ag17
aa(lp1385
F0.65623286085247
aI31
aI0
aI3
ag19
aa(lp1386
F0.34376713914753
aI0
aI0
aI0
ag21
aaaI0
a(lp1387
(lp1388
F0.5
aI35
aI108
aI3
ag24
aa(lp1389
F0.30620387969975
aI35
aI0
aI3
ag26
aa(lp1390
F0.52712945363358
aI34
aI112
aI3
ag28
aa(lp1391
F0.24786790991675
aI34
aI0
aI3
ag30
aa(lp1392
F0.25213209008325
aI33
aI112
aI3
ag32
aa(lp1393
F1.5793990982747
aI33
aI0
aI3
ag34
aa(lp1394
F0.58726756839193
aI0
aI0
aI0
ag36
aaa(lp1395
(lp1396
F2.5
aI32
aI116
aI3
ag39
aa(lp1397
F0.46043987666417
aI32
aI0
aI3
ag41
aa(lp1398
F3.5395601233358
aI32
aI116
aI3
ag43
aa(lp1399
F0.18851552586784
aI32
aI0
aI3
ag45
aa(lp1400
F0.31148447413216
aI32
aI121
aI3
ag47
aa(lp1401
F0.48404598876914
aI32
aI0
aI3
ag49
aa(lp1402
F0.51595401123086
aI0
aI0
aI0
ag51
aaaI0
a(lp1403
(lp1404
F0.022280124010649
aI67
aI114
aI1
ag54
aa(lp1405
F31.804039500968
aI67
aI0
aI1
ag56
aa(lp1406
F0.17368037502092
aI0
aI0
aI0
ag58
aaa(lp1407
(lp1408
F0.038942152919844
aI74
aI90
aI1
ag61
aa(lp1409
F8.0116228372208
aI72
aI79
aI1
ag63
aa(lp1410
F0.094126738064006
aI74
aI0
aI1
ag65
aa(lp1411
F7.8880592366149
aI70
aI89
aI1
ag67
aa(lp1412
F0.093149186541268
aI72
aI0
aI1
ag69
aa(lp1413
F7.7568202098737
aI77
aI91
aI1
ag71
aa(lp1414
F0.059425325498523
aI70
aI0
aI1
ag73
aa(lp1415
F4.0362970412316
aI76
aI93
aI1
ag75
aa(lp1416
F0.070295431150953
aI77
aI0
aI1
ag77
aa(lp1417
F1.7330733408453
aI72
aI110
aI1
ag79
aa(lp1418
F0.058033331162733
aI76
aI0
aI1
ag81
aa(lp1419
F1.9785055260199
aI72
aI0
aI1
ag83
aa(lp1420
F0.18164964285643
aI0
aI0
aI0
ag85
aaa(lp1421
(lp1422
F0.1456310114736
aI81
aI118
aI1
ag88
aa(lp1423
F15.787790768061
aI81
aI0
aI1
ag90
aa(lp1424
F0.11686472997644
aI79
aI114
aI1
ag92
aa(lp1425
F15.734362672298
aI79
aI0
aI1
ag94
aa(lp1426
F0.082417115072531
aI82
aI108
aI1
ag96
aa(lp1427
F16.107255950279
aI84
aI100
aI1
ag98
aa(lp1428
F0.10505749042022
aI82
aI0
aI1
ag100
aa(lp1429
F15.910620262419
aI84
aI0
aI1
ag102
aa(lp1430
F0.010000000000218
aI0
aI0
aI0
ag104
aaaI0
aI0
a(lp1431
(lp1432
F0.5
aI26
aI112
aI3
ag107
aa(lp1433
F0.13974191692978
aI26
aI0
aI3
ag109
aa(lp1434
F0.36025808307022
aI35
aI110
aI3
ag111
aa(lp1435
F0.17630939709125
aI35
aI0
aI3
ag113
aa(lp1436
F0.32369060290875
aI34
aI115
aI3
ag115
aa(lp1437
F0.17749105834264
aI34
aI0
aI3
ag117
aa(lp1438
F0.32250894165736
aI33
aI114
aI3
ag119
aa(lp1439
F0.25283057809429
aI33
aI0
aI3
ag121
aa(lp1440
F0.58050275523904
aI34
aI119
aI3
ag123
aa(lp1441
F0.22297643197271
aI34
aI0
aI3
ag125
aa(lp1442
F0.44369023469396
aI35
aI116
aI3
ag127
aa(lp1443
F0.27882346488877
aI35
aI0
aI3
ag129
aa(lp1444
F0.55450986844456
aI26
aI118
aI3
ag131
aa(lp1445
F0.21446112910598
aI26
aI0
aI3
ag133
aa(lp1446
F0.45220553756068
aI35
aI116
aI3
ag135
aa(lp1447
F2.0478544536672
aI35
aI0
aI3
ag137
aa(lp1448
F0.95214554633276
aI0
aI0
aI0
ag139
aaa(lp1449
(lp1450
F0.5
aI30
aI114
aI3
ag142
aa(lp1451
F0.14987270940765
aI30
aI0
aI3
ag144
aa(lp1452
F0.35012729059235
aI29
aI113
aI3
ag146
aa(lp1453
F0.15767134934322
aI29
aI0
aI3
ag148
aa(lp1454
F0.34232865065678
aI28
aI116
aI3
ag150
aa(lp1455
F0.15833204835326
aI28
aI0
aI3
ag152
aa(lp1456
F0.34166795164674
aI27
aI118
aI3
ag154
aa(lp1457
F0.25000905072557
aI27
aI0
aI3
ag156
aa(lp1458
F0.58332428260777
aI28
aI117
aI3
ag158
aa(lp1459
F0.25239797534414
aI28
aI0
aI3
ag160
aa(lp1460
F0.41426869132253
aI29
aI114
aI3
ag162
aa(lp1461
F0.28990001202874
aI29
aI0
aI3
ag164
aa(lp1462
F0.54343332130459
aI30
aI116
aI3
ag166
aa(lp1463
F0.28897668218269
aI30
aI0
aI3
ag168
aa(lp1464
F0.37768998448397
aI29
aI116
aI3
ag170
aa(lp1465
F2.406297322781
aI29
aI0
aI3
ag172
aa(lp1466
F0.59370267721897
aI0
aI0
aI0
ag174
aaaI0
aI0
aI0
aI0
aI0
aI0
aI0
aI0
aI0
a(lp1467
(lp1468
F0.56421944935209
aI31
aI121
aI2
ag177
aa(lp1469
F0.613302803642
aI31
aI0
aI2
ag179
aa(lp1470
F0.33082235890106
aI31
aI119
aI2
ag181
aa(lp1471
F0.65821710743876
aI31
aI0
aI2
ag183
aa(lp1472
F0.38889901010589
aI31
aI118
aI2
ag185
aa(lp1473
F0.67216875888516
aI31
aI0
aI2
ag187
aa(lp1474
F0.33263003994944
aI31
aI116
aI2
ag189
aa(lp1475
F0.53831089549749
aI31
aI0
aI2
ag191
aa(lp1476
F0.48315048032055
aI34
aI114
aI2
ag193
aa(lp1477
F0.61179574664311
aI34
aI0
aI2
ag195
aa(lp1478
F0.3422095874048
aI34
aI111
aI2
ag197
aa(lp1479
F0.58831229353018
aI34
aI0
aI2
ag199
aa(lp1480
F0.39061991361268
aI38
aI110
aI2
ag201
aa(lp1481
F0.69349057484578
aI38
aI0
aI2
ag203
aa(lp1482
F0.3548961760207
aI38
aI119
aI2
ag205
aa(lp1483
F0.42695480385009
aI38
aI0
aI2
ag207
aa(lp1484
F0.010000000000218
aI0
aI0
aI0
ag209
aaa(lp1485
(lp1486
F0.49227794327635
aI31
aI114
aI2
ag212
aa(lp1487
F0.65913780027586
aI31
aI0
aI2
ag214
aa(lp1488
F0.2713360914986
aI31
aI117
aI2
ag216
aa(lp1489
F0.63601774967174
aI31
aI0
aI2
ag218
aa(lp1490
F0.36534356198717
aI31
aI121
aI2
ag220
aa(lp1491
F0.67017547363503
aI31
aI0
aI2
ag222
aa(lp1492
F0.36410229318244
aI31
aI120
aI2
ag224
aa(lp1493
F0.67049590087481
aI31
aI0
aI2
ag226
aa(lp1494
F0.38801378859171
aI34
aI117
aI2
ag228
aa(lp1495
F0.60116991338327
aI34
aI0
aI2
ag230
aa(lp1496
F0.37638399355092
aI34
aI118
aI2
ag232
aa(lp1497
F0.60135992305004
aI34
aI0
aI2
ag234
aa(lp1498
F0.43568852815588
aI38
aI118
aI2
ag236
aa(lp1499
F0.62536045169327
aI38
aI0
aI2
ag238
aa(lp1500
F0.3523185479462
aI38
aI119
aI2
ag240
aa(lp1501
F0.66080311603946
aI38
aI0
aI2
ag242
aa(lp1502
F0.42338002542601
aI31
aI120
aI2
ag244
aa(lp1503
F0.50707978463106
aI31
aI0
aI2
ag246
aa(lp1504
F0.41300469305497
aI31
aI120
aI2
ag248
aa(lp1505
F0.66051729255196
aI31
aI0
aI2
ag250
aa(lp1506
F0.35301780470763
aI31
aI121
aI2
ag252
aa(lp1507
F0.63722350658827
aI31
aI0
aI2
ag254
aa(lp1508
F0.38958028670822
aI31
aI120
aI2
ag256
aa(lp1509
F0.61320317926584
aI31
aI0
aI2
ag258
aa(lp1510
F0.38829588038789
aI34
aI118
aI2
ag260
aa(lp1511
F0.6128501042549
aI34
aI0
aI2
ag262
aa(lp1512
F0.30746015413388
aI34
aI120
aI2
ag264
aa(lp1513
F0.63522598938471
aI34
aI0
aI2
ag266
aa(lp1514
F0.39085507987329
aI38
aI121
aI2
ag268
aa(lp1515
F0.59858158148927
aI38
aI0
aI2
ag270
aa(lp1516
F0.38746703306606
aI38
aI120
aI2
ag272
aa(lp1517
F0.66093472567809
aI38
aI0
aI2
ag274
aa(lp1518
F0.41287520840524
aI31
aI122
aI2
ag276
aa(lp1519
F0.62245907256147
aI31
aI0
aI2
ag278
aa(lp1520
F0.40160050970371
aI31
aI120
aI2
ag280
aa(lp1521
F0.60125549435361
aI31
aI0
aI2
ag282
aa(lp1522
F0.41237103379535
aI31
aI120
aI2
ag284
aa(lp1523
F0.61476985990885
aI31
aI0
aI2
ag286
aa(lp1524
F0.37499460869003
aI31
aI119
aI2
ag288
aa(lp1525
F0.55470893043639
aI31
aI0
aI2
ag290
aa(lp1526
F0.41298512422145
aI34
aI119
aI2
ag292
aa(lp1527
F0.58854320305181
aI34
aI0
aI2
ag294
aa(lp1528
F0.36533777066143
aI34
aI119
aI2
ag296
aa(lp1529
F0.65962734783716
aI34
aI0
aI2
ag298
aa(lp1530
F0.35414563783161
aI38
aI118
aI2
ag300
aa(lp1531
F0.61388542033637
aI38
aI0
aI2
ag302
aa(lp1532
F0.41371023690226
aI38
aI114
aI2
ag304
aa(lp1533
F0.52998468849728
aI38
aI0
aI2
ag306
aa(lp1534
F0.4588926589422
aI41
aI116
aI2
ag308
aa(lp1535
F0.57787481817286
aI41
aI0
aI2
ag310
aa(lp1536
F0.39913224985867
aI41
aI118
aI2
ag312
aa(lp1537
F0.62391759732236
aI41
aI0
aI2
ag314
aa(lp1538
F0.42530713404085
aI41
aI118
aI2
ag316
aa(lp1539
F0.57624981636582
aI41
aI0
aI2
ag318
aa(lp1540
F0.37719409679812
aI41
aI114
aI2
ag320
aa(lp1541
F0.60124674426152
aI41
aI0
aI2
ag322
aa(lp1542
F0.42412904480079
aI40
aI120
aI2
ag324
aa(lp1543
F0.61248502294075
aI40
aI0
aI2
ag326
aa(lp1544
F0.38835218247186
aI40
aI123
aI2
ag328
aa(lp1545
F0.64846973313433
aI40
aI0
aI2
ag330
aa(lp1546
F0.40124431819277
aI40
aI123
aI2
ag332
aa(lp1547
F0.59952362788317
aI40
aI0
aI2
ag334
aa(lp1548
F0.39015781965281
aI40
aI123
aI2
ag336
aa(lp1549
F0.29395246550484
aI40
aI0
aI2
ag338
aa(lp1550
F0.11995432444746
aI0
aI0
aI0
ag340
aaaI0
a(lp1551
(lp1552
F0.5
aI38
aI120
aI3
ag343
aa(lp1553
F0.95324115163658
aI38
aI0
aI3
ag345
aa(lp1554
F1.0467588483634
aI38
aI115
aI3
ag347
aa(lp1555
F1.1735155769238
aI38
aI0
aI3
ag349
aa(lp1556
F0.82648442307618
aI38
aI120
aI3
ag351
aa(lp1557
F1.2662785580997
aI38
aI0
aI3
ag353
aa(lp1558
F0.73372144190034
aI38
aI120
aI3
ag355
aa(lp1559
F1.1735331852788
aI38
aI0
aI3
ag357
aa(lp1560
F0.32646681472124
aI0
aI0
aI0
ag359
aaa(lp1561
(lp1562
F0.75710982805776
aI38
aI108
aI3
ag362
aa(lp1563
F2.3654799207807
aI38
aI0
aI3
ag364
aa(lp1564
F1.1181690560325
aI38
aI107
aI3
ag366
aa(lp1565
F3.2891501871936
aI38
aI0
aI3
ag368
aa(lp1566
F0.47009100793548
aI0
aI0
aI0
ag370
aaaI0
aI0
aI0
aI0
aI0
aI0
a(lp1567
(lp1568
F0.0
aI36
aI110
aI3
ag373
aa(lp1569
F0.09875165837957
aI36
aI0
aI3
ag375
aa(lp1570
F0.90124834162043
aI36
aI110
aI3
ag377
aa(lp1571
F0.189526997332
aI36
aI0
aI3
ag379
aa(lp1572
F0.310473002668
aI37
aI113
aI3
ag381
aa(lp1573
F0.18934270846466
aI37
aI0
aI3
ag383
aa(lp1574
F0.31065729153534
aI36
aI103
aI3
ag385
aa(lp1575
F0.19110574135993
aI36
aI0
aI3
ag387
aa(lp1576
F0.80889425864007
aI36
aI111
aI3
ag389
aa(lp1577
F0.0631531828476
aI36
aI0
aI3
ag391
aa(lp1578
F0.9368468171524
aI36
aI114
aI3
ag393
aa(lp1579
F0.06266905209759
aI36
aI0
aI3
ag395
aa(lp1580
F0.77066428123574
aI37
aI106
aI3
ag397
aa(lp1581
F0.11366263007494
aI37
aI0
aI3
ag399
aa(lp1582
F0.053004036591726
aI36
aI112
aI3
ag401
aa(lp1583
F0.20214247313697
aI36
aI0
aI3
ag403
aa(lp1584
F0.29785752686303
aI37
aI103
aI3
ag405
aa(lp1585
F0.19057670350958
aI37
aI0
aI3
ag407
aa(lp1586
F0.30942329649042
aI36
aI105
aI3
ag409
aa(lp1587
F0.17599373070789
aI36
aI0
aI3
ag411
aa(lp1588
F0.82400626929211
aI36
aI113
aI3
ag413
aa(lp1589
F0.16377330553769
aI36
aI0
aI3
ag415
aa(lp1590
F0.83622669446231
aI0
aI0
aI0
ag417
aaa(lp1591
(lp1592
F0.5
aI39
aI120
aI3
ag420
aa(lp1593
F1.2130195609689
aI39
aI0
aI3
ag422
aa(lp1594
F2.7869804390311
aI39
aI120
aI3
ag424
aa(lp1595
F2.8641439850353
aI39
aI0
aI3
ag426
aa(lp1596
F0.6358560149647
aI0
aI0
aI0
ag428
aaaI0
aI0
a(lp1597
(lp1598
F0.0
aI40
aI112
aI3
ag431
aa(lp1599
F0.31419171476773
aI40
aI0
aI3
ag433
aa(lp1600
F0.68580828523227
aI40
aI113
aI3
ag435
aa(lp1601
F0.27811283583014
aI40
aI0
aI3
ag437
aa(lp1602
F0.22188716416986
aI41
aI118
aI3
ag439
aa(lp1603
F0.30320181223397
aI41
aI0
aI3
ag441
aa(lp1604
F0.19679818776603
aI40
aI115
aI3
ag443
aa(lp1605
F0.34153087566847
aI40
aI0
aI3
ag445
aa(lp1606
F0.65846912433153
aI40
aI107
aI3
ag447
aa(lp1607
F0.42871611829742
aI40
aI0
aI3
ag449
aa(lp1608
F0.57128388170258
aI40
aI112
aI3
ag451
aa(lp1609
F0.29094403329873
aI40
aI0
aI3
ag453
aa(lp1610
F0.5423893000346
aI41
aI116
aI3
ag455
aa(lp1611
F0.16444267898169
aI41
aI0
aI3
ag457
aa(lp1612
F0.0022239876849808
aI40
aI114
aI3
ag459
aa(lp1613
F0.2149932856164
aI40
aI0
aI3
ag461
aa(lp1614
F0.2850067143836
aI41
aI116
aI3
ag463
aa(lp1615
F0.21404902431277
aI41
aI0
aI3
ag465
aa(lp1616
F0.28595097568723
aI40
aI115
aI3
ag467
aa(lp1617
F0.30434995568339
aI40
aI0
aI3
ag469
aa(lp1618
F0.69565004431661
aI40
aI111
aI3
ag471
aa(lp1619
F0.22751237910143
aI40
aI0
aI3
ag473
aa(lp1620
F0.77248762089857
aI0
aI0
aI0
ag475
aaaI0
aI0
aI0
aI0
aI0
aI0
aI0
aI0
aI0
aI0
aI0
aI0
aI0
aI0
aI0
aI0
aI0
aI0
aI0
aI0
aI0
aI0
aI0
aI0
aI0
aI0
aI0
aI0
aI0
aI0
aI0
aI0
aI0
aI0
aI0
aI0
aI0
aI0
aI0
aI0
aI0
aI0
aI0
aI0
aI0
aI0
aI0
aI0
aI0
aI0
aI0
aI0
aI0
aI0
aI0
aI0
aI0
aI0
aI0
aI0
aI0
aI0
aa(lp1621
(dp1622
a(dp1623
g479
I31
sg480
I0
sa(dp1624
a(dp1625
g479
I33
sg480
I0
sa(dp1626
g479
I34
sg480
I0
sa(dp1627
a(dp1628
g479
I36
sg480
I0
sa(dp1629
g479
I37
sg480
I0
sa(dp1630
g479
I38
sg480
I1
sa(dp1631
a(dp1632
a(dp1633
g479
I43
sg480
I0
sa(dp1634
g479
I44
sg480
I0
sa(dp1635
a(dp1636
a(dp1637
a(dp1638
a(dp1639
a(dp1640
a(dp1641
a(dp1642
a(dp1643
a(dp1644
g479
I56
sg480
I1
sa(dp1645
g479
I57
sg480
I0
sa(dp1646
a(dp1647
g479
I61
sg480
I0
sa(dp1648
g479
I62
sg480
I0
sa(dp1649
a(dp1650
a(dp1651
a(dp1652
a(dp1653
a(dp1654
a(dp1655
g479
I71
sg480
I0
sa(dp1656
g479
I72
sg480
I0
sa(dp1657
a(dp1658
a(dp1659
g479
I75
sg480
I0
sa(dp1660
a(dp1661
a(dp1662
a(dp1663
a(dp1664
a(dp1665
a(dp1666
a(dp1667
a(dp1668
a(dp1669
a(dp1670
a(dp1671
a(dp1672
a(dp1673
a(dp1674
a(dp1675
a(dp1676
a(dp1677
a(dp1678
a(dp1679
a(dp1680
a(dp1681
a(dp1682
a(dp1683
a(dp1684
a(dp1685
a(dp1686
a(dp1687
a(dp1688
a(dp1689
a(dp1690
a(dp1691
a(dp1692
a(dp1693
a(dp1694
a(dp1695
a(dp1696
a(dp1697
a(dp1698
a(dp1699
a(dp1700
a(dp1701
a(dp1702
a(dp1703
a(dp1704
a(dp1705
a(dp1706
a(dp1707
a(dp1708
a(dp1709
a(dp1710
a(dp1711
a(dp1712
a(dp1713
a(dp1714
a(dp1715
a(dp1716
a(dp1717
a(dp1718
a(dp1719
a(dp1720
a(dp1721
aa(lp1722
I60
aI60
aI36
aI36
aa(lp1723
(lp1724
I0
aI2
aI3
aI5
aI7
aI8
aI10
aa(lp1725
I0
aI2
aI3
aI5
aI7
aI8
aI10
aa(lp1726
I0
aI2
aI3
aI5
aI7
aI8
aI10
aa(lp1727
I0
aI2
aI3
aI5
aI7
aI8
aI10
aa(lp1728
I0
aI2
aI3
aI5
aI7
aI8
aI10
aa(lp1729
I0
aI1
aI2
aI3
aI4
aI5
aI6
aI7
aI8
aI9
aI10
aI11
aaa(lp1730
(lp1731
(lp1732
I0
aI0
aI0
aI0
aI0
aI0
aI0
aI0
aI0
aI0
aI0
aI0
aa(lp1733
I0
aI0
aI0
aI0
aI0
aI0
aI0
aI0
aI0
aI0
aI0
aI0
aa(lp1734
I0
aI0
aI0
aI0
aI0
aI0
aI0
aI0
aI0
aI0
aI0
aI0
aa(lp1735
I0
aI0
aI0
aI0
aI0
aI0
aI0
aI0
aI0
aI0
aI0
aI0
aaa(lp1736
(lp1737
I0
aI0
aI0
aI0
aI0
aI0
aI0
aI0
aI0
aI0
aI0
aI0
aa(lp1738
I0
aI0
aI0
aI0
aI0
aI0
aI0
aI0
aI0
aI0
aI0
aI0
aa(lp1739
I0
aI0
aI0
aI0
aI0
aI0
aI0
aI0
aI0
aI0
aI0
aI0
aa(lp1740
I0
aI0
aI0
aI0
aI0
aI0
aI0
aI0
aI0
aI0
aI0
aI0
aaa(lp1741
(lp1742
I0
aI0
aI0
aI0
aI0
aI0
aI0
aI0
aI0
aI0
aI0
aI0
aa(lp1743
I0
aI0
aI0
aI0
aI0
aI0
aI0
aI0
aI0
aI0
aI0
aI0
aa(lp1744
I0
aI0
aI0
aI0
aI0
aI0
aI0
aI0
aI0
aI0
aI0
aI0
aa(lp1745
I0
aI0
aI0
aI0
aI0
aI0
aI0
aI0
aI0
aI0
aI0
aI0
aaa(lp1746
(lp1747
I0
aI0
aI0
aI0
aI0
aI0
aI0
aI0
aI0
aI0
aI0
aI0
aa(lp1748
I0
aI0
aI0
aI0
aI0
aI0
aI0
aI0
aI0
aI0
aI0
aI0
aa(lp1749
I0
aI0
aI0
aI0
aI0
aI0
aI0
aI0
aI0
aI0
aI0
aI0
aa(lp1750
I0
aI0
aI0
aI0
aI0
aI0
aI0
aI0
aI0
aI0
aI0
aI0
aaaa(lp1751
(lp1752
I0
aI0
aI0
aI0
aI0
aI0
aI0
aI0
aI0
aI0
aI0
aI0
aa(lp1753
I0
aI0
aI0
aI0
aI0
aI0
aI0
aI0
aI0
aI0
aI0
aI0
aa(lp1754
I0
aI0
aI0
aI0
aI0
aI0
aI0
aI0
aI0
aI0
aI0
aI0
aa(lp1755
I0
aI0
aI0
aI0
aI0
aI0
aI0
aI0
aI0
aI0
aI0
aI0
aaaa(lp1756
(lp1757
I0
a(lp1758
(lp1759
F0.0
aI31
aI99
aI3
ag5
aa(lp1760
F0.65891966590061
aI31
aI0
aI3
ag7
aa(lp1761
F0.34108033409939
aI31
aI103
aI3
ag9
aa(lp1762
F0.69522106402292
aI31
aI0
aI3
ag11
aa(lp1763
F0.30477893597708
aI31
aI99
aI3
ag13
aa(lp1764
F0.69438935178641
aI31
aI0
aI3
ag15
aa(lp1765
F0.30561064821359
aI31
aI110
aI3
ag17
aa(lp1766
F0.65623286085247
aI31
aI0
aI3
ag19
aa(lp1767
F0.34376713914753
aI0
aI0
aI0
ag21
aaaI0
a(lp1768
(lp1769
F0.5
aI35
aI108
aI3
ag24
aa(lp1770
F0.30620387969975
aI35
aI0
aI3
ag26
aa(lp1771
F0.52712945363358
aI34
aI112
aI3
ag28
aa(lp1772
F0.24786790991675
aI34
aI0
aI3
ag30
aa(lp1773
F0.25213209008325
aI33
aI112
aI3
ag32
aa(lp1774
F1.5793990982747
aI33
aI0
aI3
ag34
aa(lp1775
F0.58726756839193
aI0
aI0
aI0
ag36
aaa(lp1776
(lp1777
F2.5
aI32
aI116
aI3
ag39
aa(lp1778
F0.46043987666417
aI32
aI0
aI3
ag41
aa(lp1779
F3.5395601233358
aI32
aI116
aI3
ag43
aa(lp1780
F0.18851552586784
aI32
aI0
aI3
ag45
aa(lp1781
F0.31148447413216
aI32
aI121
aI3
ag47
aa(lp1782
F0.48404598876914
aI32
aI0
aI3
ag49
aa(lp1783
F0.51595401123086
aI0
aI0
aI0
ag51
aaaI0
a(lp1784
(lp1785
F0.022280124010649
aI67
aI114
aI1
ag54
aa(lp1786
F31.804039500968
aI67
aI0
aI1
ag56
aa(lp1787
F0.17368037502092
aI0
aI0
aI0
ag58
aaa(lp1788
(lp1789
F0.038942152919844
aI74
aI90
aI1
ag61
aa(lp1790
F8.0116228372208
aI72
aI79
aI1
ag63
aa(lp1791
F0.094126738064006
aI74
aI0
aI1
ag65
aa(lp1792
F7.8880592366149
aI70
aI89
aI1
ag67
aa(lp1793
F0.093149186541268
aI72
aI0
aI1
ag69
aa(lp1794
F7.7568202098737
aI77
aI91
aI1
ag71
aa(lp1795
F0.059425325498523
aI70
aI0
aI1
ag73
aa(lp1796
F4.0362970412316
aI76
aI93
aI1
ag75
aa(lp1797
F0.070295431150953
aI77
aI0
aI1
ag77
aa(lp1798
F1.7330733408453
aI72
aI110
aI1
ag79
aa(lp1799
F0.058033331162733
aI76
aI0
aI1
ag81
aa(lp1800
F1.9785055260199
aI72
aI0
aI1
ag83
aa(lp1801
F0.18164964285643
aI0
aI0
aI0
ag85
aaa(lp1802
(lp1803
F0.1456310114736
aI81
aI118
aI1
ag88
aa(lp1804
F15.787790768061
aI81
aI0
aI1
ag90
aa(lp1805
F0.11686472997644
aI79
aI114
aI1
ag92
aa(lp1806
F15.734362672298
aI79
aI0
aI1
ag94
aa(lp1807
F0.082417115072531
aI82
aI108
aI1
ag96
aa(lp1808
F16.107255950279
aI84
aI100
aI1
ag98
aa(lp1809
F0.10505749042022
aI82
aI0
aI1
ag100
aa(lp1810
F15.910620262419
aI84
aI0
aI1
ag102
aa(lp1811
F0.010000000000218
aI0
aI0
aI0
ag104
aaaI0
aI0
a(lp1812
(lp1813
F0.5
aI26
aI112
aI3
ag107
aa(lp1814
F0.13974191692978
aI26
aI0
aI3
ag109
aa(lp1815
F0.36025808307022
aI35
aI110
aI3
ag111
aa(lp1816
F0.17630939709125
aI35
aI0
aI3
ag113
aa(lp1817
F0.32369060290875
aI34
aI115
aI3
ag115
aa(lp1818
F0.17749105834264
aI34
aI0
aI3
ag117
aa(lp1819
F0.32250894165736
aI33
aI114
aI3
ag119
aa(lp1820
F0.25283057809429
aI33
aI0
aI3
ag121
aa(lp1821
F0.58050275523904
aI34
aI119
aI3
ag123
aa(lp1822
F0.22297643197271
aI34
aI0
aI3
ag125
aa(lp1823
F0.44369023469396
aI35
aI116
aI3
ag127
aa(lp1824
F0.27882346488877
aI35
aI0
aI3
ag129
aa(lp1825
F0.55450986844456
aI26
aI118
aI3
ag131
aa(lp1826
F0.21446112910598
aI26
aI0
aI3
ag133
aa(lp1827
F0.45220553756068
aI35
aI116
aI3
ag135
aa(lp1828
F2.0478544536672
aI35
aI0
aI3
ag137
aa(lp1829
F0.95214554633276
aI0
aI0
aI0
ag139
aaa(lp1830
(lp1831
F0.5
aI30
aI114
aI3
ag142
aa(lp1832
F0.14987270940765
aI30
aI0
aI3
ag144
aa(lp1833
F0.35012729059235
aI29
aI113
aI3
ag146
aa(lp1834
F0.15767134934322
aI29
aI0
aI3
ag148
aa(lp1835
F0.34232865065678
aI28
aI116
aI3
ag150
aa(lp1836
F0.15833204835326
aI28
aI0
aI3
ag152
aa(lp1837
F0.34166795164674
aI27
aI118
aI3
ag154
aa(lp1838
F0.25000905072557
aI27
aI0
aI3
ag156
aa(lp1839
F0.58332428260777
aI28
aI117
aI3
ag158
aa(lp1840
F0.25239797534414
aI28
aI0
aI3
ag160
aa(lp1841
F0.41426869132253
aI29
aI114
aI3
ag162
aa(lp1842
F0.28990001202874
aI29
aI0
aI3
ag164
aa(lp1843
F0.54343332130459
aI30
aI116
aI3
ag166
aa(lp1844
F0.28897668218269
aI30
aI0
aI3
ag168
aa(lp1845
F0.37768998448397
aI29
aI116
aI3
ag170
aa(lp1846
F2.406297322781
aI29
aI0
aI3
ag172
aa(lp1847
F0.59370267721897
aI0
aI0
aI0
ag174
aaaI0
aI0
aI0
aI0
aI0
aI0
aI0
aI0
aI0
a(lp1848
(lp1849
F0.56421944935209
aI31
aI121
aI2
ag177
aa(lp1850
F0.613302803642
aI31
aI0
aI2
ag179
aa(lp1851
F0.33082235890106
aI31
aI119
aI2
ag181
aa(lp1852
F0.65821710743876
aI31
aI0
aI2
ag183
aa(lp1853
F0.38889901010589
aI31
aI118
aI2
ag185
aa(lp1854
F0.67216875888516
aI31
aI0
aI2
ag187
aa(lp1855
F0.33263003994944
aI31
aI116
aI2
ag189
aa(lp1856
F0.53831089549749
aI31
aI0
aI2
ag191
aa(lp1857
F0.48315048032055
aI34
aI114
aI2
ag193
aa(lp1858
F0.61179574664311
aI34
aI0
aI2
ag195
aa(lp1859
F0.3422095874048
aI34
aI111
aI2
ag197
aa(lp1860
F0.58831229353018
aI34
aI0
aI2
ag199
aa(lp1861
F0.39061991361268
aI38
aI110
aI2
ag201
aa(lp1862
F0.69349057484578
aI38
aI0
aI2
ag203
aa(lp1863
F0.3548961760207
aI38
aI119
aI2
ag205
aa(lp1864
F0.42695480385009
aI38
aI0
aI2
ag207
aa(lp1865
F0.010000000000218
aI0
aI0
aI0
ag209
aaa(lp1866
(lp1867
F0.49227794327635
aI31
aI114
aI2
ag212
aa(lp1868
F0.65913780027586
aI31
aI0
aI2
ag214
aa(lp1869
F0.2713360914986
aI31
aI117
aI2
ag216
aa(lp1870
F0.63601774967174
aI31
aI0
aI2
ag218
aa(lp1871
F0.36534356198717
aI31
aI121
aI2
ag220
aa(lp1872
F0.67017547363503
aI31
aI0
aI2
ag222
aa(lp1873
F0.36410229318244
aI31
aI120
aI2
ag224
aa(lp1874
F0.67049590087481
aI31
aI0
aI2
ag226
aa(lp1875
F0.38801378859171
aI34
aI117
aI2
ag228
aa(lp1876
F0.60116991338327
aI34
aI0
aI2
ag230
aa(lp1877
F0.37638399355092
aI34
aI118
aI2
ag232
aa(lp1878
F0.60135992305004
aI34
aI0
aI2
ag234
aa(lp1879
F0.43568852815588
aI38
aI118
aI2
ag236
aa(lp1880
F0.62536045169327
aI38
aI0
aI2
ag238
aa(lp1881
F0.3523185479462
aI38
aI119
aI2
ag240
aa(lp1882
F0.66080311603946
aI38
aI0
aI2
ag242
aa(lp1883
F0.42338002542601
aI31
aI120
aI2
ag244
aa(lp1884
F0.50707978463106
aI31
aI0
aI2
ag246
aa(lp1885
F0.41300469305497
aI31
aI120
aI2
ag248
aa(lp1886
F0.66051729255196
aI31
aI0
aI2
ag250
aa(lp1887
F0.35301780470763
aI31
aI121
aI2
ag252
aa(lp1888
F0.63722350658827
aI31
aI0
aI2
ag254
aa(lp1889
F0.38958028670822
aI31
aI120
aI2
ag256
aa(lp1890
F0.61320317926584
aI31
aI0
aI2
ag258
aa(lp1891
F0.38829588038789
aI34
aI118
aI2
ag260
aa(lp1892
F0.6128501042549
aI34
aI0
aI2
ag262
aa(lp1893
F0.30746015413388
aI34
aI120
aI2
ag264
aa(lp1894
F0.63522598938471
aI34
aI0
aI2
ag266
aa(lp1895
F0.39085507987329
aI38
aI121
aI2
ag268
aa(lp1896
F0.59858158148927
aI38
aI0
aI2
ag270
aa(lp1897
F0.38746703306606
aI38
aI120
aI2
ag272
aa(lp1898
F0.66093472567809
aI38
aI0
aI2
ag274
aa(lp1899
F0.41287520840524
aI31
aI122
aI2
ag276
aa(lp1900
F0.62245907256147
aI31
aI0
aI2
ag278
aa(lp1901
F0.40160050970371
aI31
aI120
aI2
ag280
aa(lp1902
F0.60125549435361
aI31
aI0
aI2
ag282
aa(lp1903
F0.41237103379535
aI31
aI120
aI2
ag284
aa(lp1904
F0.61476985990885
aI31
aI0
aI2
ag286
aa(lp1905
F0.37499460869003
aI31
aI119
aI2
ag288
aa(lp1906
F0.55470893043639
aI31
aI0
aI2
ag290
aa(lp1907
F0.41298512422145
aI34
aI119
aI2
ag292
aa(lp1908
F0.58854320305181
aI34
aI0
aI2
ag294
aa(lp1909
F0.36533777066143
aI34
aI119
aI2
ag296
aa(lp1910
F0.65962734783716
aI34
aI0
aI2
ag298
aa(lp1911
F0.35414563783161
aI38
aI118
aI2
ag300
aa(lp1912
F0.61388542033637
aI38
aI0
aI2
ag302
aa(lp1913
F0.41371023690226
aI38
aI114
aI2
ag304
aa(lp1914
F0.52998468849728
aI38
aI0
aI2
ag306
aa(lp1915
F0.4588926589422
aI41
aI116
aI2
ag308
aa(lp1916
F0.57787481817286
aI41
aI0
aI2
ag310
aa(lp1917
F0.39913224985867
aI41
aI118
aI2
ag312
aa(lp1918
F0.62391759732236
aI41
aI0
aI2
ag314
aa(lp1919
F0.42530713404085
aI41
aI118
aI2
ag316
aa(lp1920
F0.57624981636582
aI41
aI0
aI2
ag318
aa(lp1921
F0.37719409679812
aI41
aI114
aI2
ag320
aa(lp1922
F0.60124674426152
aI41
aI0
aI2
ag322
aa(lp1923
F0.42412904480079
aI40
aI120
aI2
ag324
aa(lp1924
F0.61248502294075
aI40
aI0
aI2
ag326
aa(lp1925
F0.38835218247186
aI40
aI123
aI2
ag328
aa(lp1926
F0.64846973313433
aI40
aI0
aI2
ag330
aa(lp1927
F0.40124431819277
aI40
aI123
aI2
ag332
aa(lp1928
F0.59952362788317
aI40
aI0
aI2
ag334
aa(lp1929
F0.39015781965281
aI40
aI123
aI2
ag336
aa(lp1930
F0.29395246550484
aI40
aI0
aI2
ag338
aa(lp1931
F0.11995432444746
aI0
aI0
aI0
ag340
aaaI0
a(lp1932
(lp1933
F0.5
aI38
aI120
aI3
ag343
aa(lp1934
F0.95324115163658
aI38
aI0
aI3
ag345
aa(lp1935
F1.0467588483634
aI38
aI115
aI3
ag347
aa(lp1936
F1.1735155769238
aI38
aI0
aI3
ag349
aa(lp1937
F0.82648442307618
aI38
aI120
aI3
ag351
aa(lp1938
F1.2662785580997
aI38
aI0
aI3
ag353
aa(lp1939
F0.73372144190034
aI38
aI120
aI3
ag355
aa(lp1940
F1.1735331852788
aI38
aI0
aI3
ag357
aa(lp1941
F0.32646681472124
aI0
aI0
aI0
ag359
aaa(lp1942
(lp1943
F0.75710982805776
aI38
aI108
aI3
ag362
aa(lp1944
F2.3654799207807
aI38
aI0
aI3
ag364
aa(lp1945
F1.1181690560325
aI38
aI107
aI3
ag366
aa(lp1946
F3.2891501871936
aI38
aI0
aI3
ag368
aa(lp1947
F0.47009100793548
aI0
aI0
aI0
ag370
aaaI0
aI0
aI0
aI0
aI0
aI0
a(lp1948
(lp1949
F0.0
aI36
aI110
aI3
ag373
aa(lp1950
F0.09875165837957
aI36
aI0
aI3
ag375
aa(lp1951
F0.90124834162043
aI36
aI110
aI3
ag377
aa(lp1952
F0.189526997332
aI36
aI0
aI3
ag379
aa(lp1953
F0.310473002668
aI37
aI113
aI3
ag381
aa(lp1954
F0.18934270846466
aI37
aI0
aI3
ag383
aa(lp1955
F0.31065729153534
aI36
aI103
aI3
ag385
aa(lp1956
F0.19110574135993
aI36
aI0
aI3
ag387
aa(lp1957
F0.80889425864007
aI36
aI111
aI3
ag389
aa(lp1958
F0.0631531828476
aI36
aI0
aI3
ag391
aa(lp1959
F0.9368468171524
aI36
aI114
aI3
ag393
aa(lp1960
F0.06266905209759
aI36
aI0
aI3
ag395
aa(lp1961
F0.77066428123574
aI37
aI106
aI3
ag397
aa(lp1962
F0.11366263007494
aI37
aI0
aI3
ag399
aa(lp1963
F0.053004036591726
aI36
aI112
aI3
ag401
aa(lp1964
F0.20214247313697
aI36
aI0
aI3
ag403
aa(lp1965
F0.29785752686303
aI37
aI103
aI3
ag405
aa(lp1966
F0.19057670350958
aI37
aI0
aI3
ag407
aa(lp1967
F0.30942329649042
aI36
aI105
aI3
ag409
aa(lp1968
F0.17599373070789
aI36
aI0
aI3
ag411
aa(lp1969
F0.82400626929211
aI36
aI113
aI3
ag413
aa(lp1970
F0.16377330553769
aI36
aI0
aI3
ag415
aa(lp1971
F0.83622669446231
aI0
aI0
aI0
ag417
aaa(lp1972
(lp1973
F0.5
aI39
aI120
aI3
ag420
aa(lp1974
F1.2130195609689
aI39
aI0
aI3
ag422
aa(lp1975
F2.7869804390311
aI39
aI120
aI3
ag424
aa(lp1976
F2.8641439850353
aI39
aI0
aI3
ag426
aa(lp1977
F0.6358560149647
aI0
aI0
aI0
ag428
aaaI0
aI0
a(lp1978
(lp1979
F0.0
aI40
aI112
aI3
ag431
aa(lp1980
F0.31419171476773
aI40
aI0
aI3
ag433
aa(lp1981
F0.68580828523227
aI40
aI113
aI3
ag435
aa(lp1982
F0.27811283583014
aI40
aI0
aI3
ag437
aa(lp1983
F0.22188716416986
aI41
aI118
aI3
ag439
aa(lp1984
F0.30320181223397
aI41
aI0
aI3
ag441
aa(lp1985
F0.19679818776603
aI40
aI115
aI3
ag443
aa(lp1986
F0.34153087566847
aI40
aI0
aI3
ag445
aa(lp1987
F0.65846912433153
aI40
aI107
aI3
ag447
aa(lp1988
F0.42871611829742
aI40
aI0
aI3
ag449
aa(lp1989
F0.57128388170258
aI40
aI112
aI3
ag451
aa(lp1990
F0.29094403329873
aI40
aI0
aI3
ag453
aa(lp1991
F0.5423893000346
aI41
aI116
aI3
ag455
aa(lp1992
F0.16444267898169
aI41
aI0
aI3
ag457
aa(lp1993
F0.0022239876849808
aI40
aI114
aI3
ag459
aa(lp1994
F0.2149932856164
aI40
aI0
aI3
ag461
aa(lp1995
F0.2850067143836
aI41
aI116
aI3
ag463
aa(lp1996
F0.21404902431277
aI41
aI0
aI3
ag465
aa(lp1997
F0.28595097568723
aI40
aI115
aI3
ag467
aa(lp1998
F0.30434995568339
aI40
aI0
aI3
ag469
aa(lp1999
F0.69565004431661
aI40
aI111
aI3
ag471
aa(lp2000
F0.22751237910143
aI40
aI0
aI3
ag473
aa(lp2001
F0.77248762089857
aI0
aI0
aI0
ag475
aaaI0
aI0
aI0
aI0
aI0
aI0
aI0
aI0
aI0
aI0
aI0
aI0
aI0
aI0
aI0
aI0
aI0
aI0
aI0
aI0
aI0
aI0
aI0
aI0
aI0
aI0
aI0
aI0
aI0
aI0
aI0
aI0
aI0
aI0
aI0
aI0
aI0
aI0
aI0
aI0
aI0
aI0
aI0
aI0
aI0
aI0
aI0
aI0
aI0
aI0
aI0
aI0
aI0
aI0
aI0
aI0
aI0
aI0
aI0
aI0
aI0
aI0
aa(lp2002
(dp2003
a(dp2004
g479
I31
sg480
I1
sa(dp2005
a(dp2006
g479
I33
sg480
I0
sa(dp2007
g479
I34
sg480
I0
sa(dp2008
a(dp2009
g479
I36
sg480
I0
sa(dp2010
g479
I37
sg480
I0
sa(dp2011
g479
I38
sg480
I0
sa(dp2012
a(dp2013
a(dp2014
g479
I43
sg480
I01
sa(dp2015
g479
I44
sg480
I01
sa(dp2016
a(dp2017
a(dp2018
a(dp2019
a(dp2020
a(dp2021
a(dp2022
a(dp2023
a(dp2024
a(dp2025
g479
I56
sg480
I1
sa(dp2026
g479
I57
sg480
I0
sa(dp2027
a(dp2028
g479
I61
sg480
I1
sa(dp2029
g479
I62
sg480
I0
sa(dp2030
a(dp2031
a(dp2032
a(dp2033
a(dp2034
a(dp2035
a(dp2036
g479
I71
sg480
I0
sa(dp2037
g479
I72
sg480
I0
sa(dp2038
a(dp2039
a(dp2040
g479
I75
sg480
I1
sa(dp2041
a(dp2042
a(dp2043
a(dp2044
a(dp2045
a(dp2046
a(dp2047
a(dp2048
a(dp2049
a(dp2050
a(dp2051
a(dp2052
a(dp2053
a(dp2054
a(dp2055
a(dp2056
a(dp2057
a(dp2058
a(dp2059
a(dp2060
a(dp2061
a(dp2062
a(dp2063
a(dp2064
a(dp2065
a(dp2066
a(dp2067
a(dp2068
a(dp2069
a(dp2070
a(dp2071
a(dp2072
a(dp2073
a(dp2074
a(dp2075
a(dp2076
a(dp2077
a(dp2078
a(dp2079
a(dp2080
a(dp2081
a(dp2082
a(dp2083
a(dp2084
a(dp2085
a(dp2086
a(dp2087
a(dp2088
a(dp2089
a(dp2090
a(dp2091
a(dp2092
a(dp2093
a(dp2094
a(dp2095
a(dp2096
a(dp2097
a(dp2098
a(dp2099
a(dp2100
a(dp2101
a(dp2102
aa(lp2103
I60
aI60
aI36
aI36
aa(lp2104
(lp2105
I0
aI2
aI3
aI5
aI7
aI8
aI10
aa(lp2106
I0
aI2
aI3
aI5
aI7
aI8
aI10
aa(lp2107
I0
aI2
aI3
aI5
aI7
aI8
aI10
aa(lp2108
I0
aI2
aI3
aI5
aI7
aI8
aI10
aa(lp2109
I0
aI2
aI3
aI5
aI7
aI8
aI10
aa(lp2110
I0
aI1
aI2
aI3
aI4
aI5
aI6
aI7
aI8
aI9
aI10
aI11
aaa(lp2111
(lp2112
(lp2113
I0
aI0
aI0
aI0
aI0
aI0
aI0
aI0
aI0
aI0
aI0
aI0
aa(lp2114
I0
aI0
aI0
aI0
aI0
aI0
aI0
aI0
aI0
aI0
aI0
aI0
aa(lp2115
I0
aI0
aI0
aI0
aI0
aI0
aI0
aI0
aI0
aI0
aI0
aI0
aa(lp2116
I0
aI0
aI0
aI0
aI0
aI0
aI0
aI0
aI0
aI0
aI0
aI0
aaa(lp2117
(lp2118
I0
aI0
aI0
aI0
aI0
aI0
aI0
aI0
aI0
aI0
aI0
aI0
aa(lp2119
I0
aI0
aI0
aI0
aI0
aI0
aI0
aI0
aI0
aI0
aI0
aI0
aa(lp2120
I0
aI0
aI0
aI0
aI0
aI0
aI0
aI0
aI0
aI0
aI0
aI0
aa(lp2121
I0
aI0
aI0
aI0
aI0
aI0
aI0
aI0
aI0
aI0
aI0
aI0
aaa(lp2122
(lp2123
I0
aI0
aI0
aI0
aI0
aI0
aI0
aI0
aI0
aI0
aI0
aI0
aa(lp2124
I0
aI0
aI0
aI0
aI0
aI0
aI0
aI0
aI0
aI0
aI0
aI0
aa(lp2125
I0
aI0
aI0
aI0
aI0
aI0
aI0
aI0
aI0
aI0
aI0
aI0
aa(lp2126
I0
aI0
aI0
aI0
aI0
aI0
aI0
aI0
aI0
aI0
aI0
aI0
aaa(lp2127
(lp2128
I0
aI0
aI0
aI0
aI0
aI0
aI0
aI0
aI0
aI0
aI0
aI0
aa(lp2129
I0
aI0
aI0
aI0
aI0
aI0
aI0
aI0
aI0
aI0
aI0
aI0
aa(lp2130
I0
aI0
aI0
aI0
aI0
aI0
aI0
aI0
aI0
aI0
aI0
aI0
aa(lp2131
I0
aI0
aI0
aI0
aI0
aI0
aI0
aI0
aI0
aI0
aI0
aI0
aaaa(lp2132
(lp2133
I0
aI0
aI0
aI0
aI0
aI0
aI0
aI0
aI0
aI0
aI0
aI0
aa(lp2134
I0
aI0
aI0
aI0
aI0
aI0
aI0
aI0
aI0
aI0
aI0
aI0
aa(lp2135
I0
aI0
aI0
aI0
aI0
aI0
aI0
aI0
aI0
aI0
aI0
aI0
aa(lp2136
I0
aI0
aI0
aI0
aI0
aI0
aI0
aI0
aI0
aI0
aI0
aI0
aaaaI0
aI0
aI0
aI0
aI0
aI0
aI0
aI0
aI0
aI0
aI0
aI0
aI0
aI0
aI0
aI0
aI0
aI0
aI0
aI0
aI0
aI0
aI0
aI0
aI0
aI0
a.