(lp0
I0
a(lp1
(lp2
I0
aI0
aI0
aI0
aI0
aI0
aI0
aI0
aI0
aI0
aI0
aI0
aI0
aI0
aI0
aI0
aI0
aI0
aI0
aI0
aI0
aI0
aI0
aI0
aI0
a(lp3
(lp4
F0.0011483490466162
aI60
aI66
aI1
aS'on'
p5
aa(lp6
F0.11975105676652
aI60
aI0
aI1
aS'off'
p7
aa(lp8
F0.566812787868
aI63
aI63
aI1
aS'on'
p9
aa(lp10
F0.16117614559903
aI63
aI0
aI1
aS'off'
p11
aa(lp12
F0.60969223655229
aI67
aI50
aI1
aS'on'
p13
aa(lp14
F0.057485834928457
aI67
aI0
aI1
aS'off'
p15
aa(lp16
F0.46032758200795
aI65
aI68
aI1
aS'on'
p17
aa(lp18
F0.10386763282008
aI65
aI0
aI1
aS'off'
p19
aa(lp20
F5.9179398994113
aI60
aI63
aI1
aS'on'
p21
aa(lp22
F0.17304154642807
aI60
aI0
aI1
aS'off'
p23
aa(lp24
F0.53127411806418
aI63
aI22
aI1
aS'on'
p25
aa(lp26
F0.057028544463492
aI63
aI0
aI1
aS'off'
p27
aa(lp28
F0.71401388710592
aI67
aI8
aI1
aS'on'
p29
aa(lp30
F0.058330223913799
aI67
aI0
aI1
aS'off'
p31
aa(lp32
F0.45984310760878
aI65
aI65
aI1
aS'on'
p33
aa(lp34
F0.12739166214897
aI65
aI0
aI1
aS'off'
p35
aa(lp36
F2.8565931925991
aI63
aI58
aI1
aS'on'
p37
aa(lp38
F0.15003750922597
aI63
aI0
aI1
aS'off'
p39
aa(lp40
F1.3925118175182
aI62
aI72
aI1
aS'on'
p41
aa(lp42
F0.10378254400007
aI62
aI0
aI1
aS'off'
p43
aa(lp44
F1.3779503219232
aI0
aI0
aI0
aS'timeAfterLastHit'
p45
aaaI0
aI0
aI0
aI0
aI0
aI0
aI0
a(lp46
(lp47
F0.0018557647754278
aI60
aI54
aI1
aS'on'
p48
aa(lp49
F0.14819820542175
aI60
aI0
aI1
aS'off'
p50
aa(lp51
F0.56496236206158
aI63
aI51
aI1
aS'on'
p52
aa(lp53
F0.057561929242183
aI63
aI0
aI1
aS'off'
p54
aa(lp55
F0.70016202407282
aI67
aI9
aI1
aS'on'
p56
aa(lp57
F0.057631425235741
aI67
aI0
aI1
aS'off'
p58
aa(lp59
F0.47326094388063
aI65
aI49
aI1
aS'on'
p60
aa(lp61
F0.057959119052384
aI65
aI0
aI1
aS'off'
p62
aa(lp63
F5.998500265212
aI60
aI46
aI1
aS'on'
p64
aa(lp65
F0.057931994582077
aI60
aI0
aI1
aS'off'
p66
aa(lp67
F0.64546275054067
aI63
aI23
aI1
aS'on'
p68
aa(lp69
F0.057536201078619
aI63
aI0
aI1
aS'off'
p70
aa(lp71
F0.74876473596692
aI67
aI15
aI1
aS'on'
p72
aa(lp73
F0.057841214821337
aI67
aI0
aI1
aS'off'
p74
aa(lp75
F0.54188993445882
aI65
aI56
aI1
aS'on'
p76
aa(lp77
F0.05807373953985
aI65
aI0
aI1
aS'off'
p78
aa(lp79
F2.7250662160059
aI63
aI47
aI1
aS'on'
p80
aa(lp81
F0.16044123895654
aI63
aI0
aI1
aS'off'
p82
aa(lp83
F1.405081833502
aI62
aI59
aI1
aS'on'
p84
aa(lp85
F0.18391567076469
aI62
aI0
aI1
aS'off'
p86
aa(lp87
F1.2979024308281
aI0
aI0
aI0
aS'timeAfterLastHit'
p88
aaa(lp89
(lp90
F0.047550249099686
aI60
aI7
aI1
aS'on'
p91
aa(lp92
F0.12753026493897
aI60
aI0
aI1
aS'off'
p93
aa(lp94
F0.56436942722166
aI63
aI22
aI1
aS'on'
p95
aa(lp96
F0.14894994703104
aI63
aI0
aI1
aS'off'
p97
aa(lp98
F0.56344752338941
aI67
aI16
aI1
aS'on'
p99
aa(lp100
F0.16072893100704
aI67
aI0
aI1
aS'off'
p101
aa(lp102
F0.33458547570513
aI65
aI51
aI1
aS'on'
p103
aa(lp104
F0.16138955809379
aI65
aI0
aI1
aS'off'
p105
aa(lp106
F5.8372587706945
aI60
aI42
aI1
aS'on'
p107
aa(lp108
F0.057182243921488
aI60
aI0
aI1
aS'off'
p109
aa(lp110
F0.71077732511117
aI63
aI48
aI1
aS'on'
p111
aa(lp112
F0.14916290363362
aI63
aI0
aI1
aS'off'
p113
aa(lp114
F0.5996471726603
aI67
aI7
aI1
aS'on'
p115
aa(lp116
F0.057245857366979
aI67
aI0
aI1
aS'off'
p117
aa(lp118
F0.4853727730324
aI65
aI43
aI1
aS'on'
p119
aa(lp120
F0.13843949013017
aI65
aI0
aI1
aS'off'
p121
aa(lp122
F2.8470103723168
aI63
aI31
aI1
aS'on'
p123
aa(lp124
F0.19624589859154
aI63
aI0
aI1
aS'off'
p125
aa(lp126
F1.3340692371596
aI62
aI13
aI1
aS'on'
p127
aa(lp128
F0.10414556834235
aI62
aI0
aI1
aS'off'
p129
aa(lp130
F1.3748910105523
aI0
aI0
aI0
aS'timeAfterLastHit'
p131
aaaI0
aI0
aI0
aI0
aI0
aI0
a(lp132
(lp133
F0.0
aI36
aI73
aI2
aS'on'
p134
aa(lp135
F0.16209079920759
aI36
aI0
aI2
aS'off'
p136
aa(lp137
F0.33790920079241
aI39
aI59
aI2
aS'on'
p138
aa(lp139
F0.13853119929422
aI39
aI0
aI2
aS'off'
p140
aa(lp141
F0.36146880070578
aI48
aI57
aI2
aS'on'
p142
aa(lp143
F0.11458383574262
aI48
aI0
aI2
aS'off'
p144
aa(lp145
F0.63541616425738
aI36
aI92
aI2
aS'on'
p146
aa(lp147
F0.17258552453217
aI36
aI0
aI2
aS'off'
p148
aa(lp149
F0.57741447546783
aI46
aI49
aI2
aS'on'
p150
aa(lp151
F0.057899207801711
aI46
aI0
aI2
aS'off'
p152
aa(lp153
F0.44210079219829
aI48
aI70
aI2
aS'on'
p154
aa(lp155
F0.13879452204748
aI48
aI0
aI2
aS'off'
p156
aa(lp157
F0.86120547795252
aI0
aI0
aI0
aS'timeAfterLastHit'
p158
aaa(lp159
(lp160
F0.0
aI46
aI31
aI2
aS'on'
p161
aa(lp162
F0.057994099399821
aI46
aI0
aI2
aS'off'
p163
aa(lp164
F0.69200590060018
aI44
aI36
aI2
aS'on'
p165
aa(lp166
F0.057959810598504
aI44
aI0
aI2
aS'off'
p167
aa(lp168
F0.6920401894015
aI43
aI19
aI2
aS'on'
p169
aa(lp170
F0.057541301782976
aI43
aI0
aI2
aS'off'
p171
aa(lp172
F0.69245869821702
aI41
aI54
aI2
aS'on'
p173
aa(lp174
F0.068885697392147
aI41
aI0
aI2
aS'off'
p175
aa(lp176
F0.68111430260785
aI39
aI78
aI2
aS'on'
p177
aa(lp178
F0.12736741398282
aI39
aI0
aI2
aS'off'
p179
aa(lp180
F0.37263258601718
aI38
aI66
aI2
aS'on'
p181
aa(lp182
F0.12749574646716
aI38
aI0
aI2
aS'off'
p183
aa(lp184
F0.37250425353284
aI0
aI0
aI0
aS'timeAfterLastHit'
p185
aaa(lp186
(lp187
F0.0
aI41
aI73
aI3
aS'on'
p188
aa(lp189
F0.34546006914763
aI41
aI0
aI3
aS'off'
p190
aa(lp191
F0.40453993085237
aI40
aI71
aI3
aS'on'
p192
aa(lp193
F0.17322590737331
aI40
aI0
aI3
aS'off'
p194
aa(lp195
F0.076774092626692
aI36
aI56
aI3
aS'on'
p196
aa(lp197
F0.13846759245553
aI36
aI0
aI3
aS'off'
p198
aa(lp199
F0.36153240754447
aI40
aI75
aI3
aS'on'
p200
aa(lp201
F0.18422577199681
aI40
aI0
aI3
aS'off'
p202
aa(lp203
F0.31577422800319
aI0
aI0
aI0
aS'timeAfterLastHit'
p204
aaa(lp205
(lp206
F0.0
aI41
aI89
aI3
aS'on'
p207
aa(lp208
F0.2672438899715
aI41
aI0
aI3
aS'off'
p209
aa(lp210
F0.4827561100285
aI40
aI69
aI3
aS'on'
p211
aa(lp212
F0.14960580597233
aI40
aI0
aI3
aS'off'
p213
aa(lp214
F0.10039419402767
aI36
aI73
aI3
aS'on'
p215
aa(lp216
F0.13805738880228
aI36
aI0
aI3
aS'off'
p217
aa(lp218
F0.36194261119772
aI40
aI72
aI3
aS'on'
p219
aa(lp220
F0.16156584953103
aI40
aI0
aI3
aS'off'
p221
aa(lp222
F0.33843415046897
aI41
aI101
aI3
aS'on'
p223
aa(lp224
F0.10423174513608
aI41
aI0
aI3
aS'off'
p225
aa(lp226
F0.14576825486392
aI41
aI85
aI3
aS'on'
p227
aa(lp228
F0.15037308534829
aI41
aI0
aI3
aS'off'
p229
aa(lp230
F0.34962691465171
aI40
aI80
aI3
aS'on'
p231
aa(lp232
F0.15043154523278
aI40
aI0
aI3
aS'off'
p233
aa(lp234
F0.099568454767223
aI36
aI96
aI3
aS'on'
p235
aa(lp236
F0.11502134005627
aI36
aI0
aI3
aS'off'
p237
aa(lp238
F0.38497865994373
aI40
aI89
aI3
aS'on'
p239
aa(lp240
F0.16109573682945
aI40
aI0
aI3
aS'off'
p241
aa(lp242
F0.33890426317055
aI0
aI0
aI0
aS'timeAfterLastHit'
p243
aaa(lp244
(lp245
F0.0
aI41
aI94
aI3
aS'on'
p246
aa(lp247
F0.18511987082456
aI41
aI0
aI3
aS'off'
p248
aa(lp249
F0.56488012917544
aI40
aI65
aI3
aS'on'
p250
aa(lp251
F0.13714021787735
aI40
aI0
aI3
aS'off'
p252
aa(lp253
F0.11285978212265
aI36
aI73
aI3
aS'on'
p254
aa(lp255
F0.12599255176031
aI36
aI0
aI3
aS'off'
p256
aa(lp257
F0.37400744823969
aI40
aI96
aI3
aS'on'
p258
aa(lp259
F0.18442611779119
aI40
aI0
aI3
aS'off'
p260
aa(lp261
F0.31557388220881
aI45
aI73
aI3
aS'on'
p262
aa(lp263
F0.13820869647941
aI45
aI0
aI3
aS'off'
p264
aa(lp265
F0.61179130352059
aI45
aI96
aI3
aS'on'
p266
aa(lp267
F0.1153076115736
aI45
aI0
aI3
aS'off'
p268
aa(lp269
F0.6346923884264
aI45
aI78
aI3
aS'on'
p270
aa(lp271
F0.11532531427679
aI45
aI0
aI3
aS'off'
p272
aa(lp273
F0.38467468572321
aI0
aI0
aI0
aS'timeAfterLastHit'
p274
aaaI0
aI0
aI0
aI0
aI0
aI0
aI0
aI0
aI0
aI0
aI0
aI0
aI0
aI0
aI0
aI0
aI0
aI0
aI0
aI0
aI0
aI0
aI0
aI0
aI0
aI0
aI0
aI0
aI0
aI0
aI0
aI0
aI0
aI0
aI0
aI0
aI0
aI0
aI0
aI0
aI0
aI0
aI0
aI0
aI0
aI0
aI0
aI0
aI0
aI0
aI0
aI0
aI0
aI0
aa(lp275
(dp276
a(dp277
a(dp278
a(dp279
a(dp280
a(dp281
a(dp282
a(dp283
a(dp284
a(dp285
a(dp286
a(dp287
a(dp288
a(dp289
a(dp290
a(dp291
a(dp292
a(dp293
a(dp294
a(dp295
a(dp296
a(dp297
a(dp298
a(dp299
a(dp300
a(dp301
S'button'
p302
I61
sS'playing'
p303
I0
sa(dp304
a(dp305
a(dp306
a(dp307
a(dp308
a(dp309
a(dp310
a(dp311
g302
I71
sg303
I0
sa(dp312
g302
I72
sg303
I0
sa(dp313
a(dp314
a(dp315
a(dp316
a(dp317
a(dp318
a(dp319
g302
I81
sg303
I0
sa(dp320
g302
I82
sg303
I1
sa(dp321
g302
I83
sg303
I0
sa(dp322
g302
I84
sg303
I0
sa(dp323
g302
I85
sg303
I1
sa(dp324
a(dp325
a(dp326
a(dp327
a(dp328
a(dp329
a(dp330
a(dp331
a(dp332
a(dp333
a(dp334
a(dp335
a(dp336
a(dp337
a(dp338
a(dp339
a(dp340
a(dp341
a(dp342
a(dp343
a(dp344
a(dp345
a(dp346
a(dp347
a(dp348
a(dp349
a(dp350
a(dp351
a(dp352
a(dp353
a(dp354
a(dp355
a(dp356
a(dp357
a(dp358
a(dp359
a(dp360
a(dp361
a(dp362
a(dp363
a(dp364
a(dp365
a(dp366
a(dp367
a(dp368
a(dp369
a(dp370
a(dp371
a(dp372
a(dp373
a(dp374
a(dp375
a(dp376
a(dp377
aa(lp378
I60
aI60
aI36
aI36
aa(lp379
(lp380
I0
aI2
aI3
aI5
aI7
aI8
aI10
aa(lp381
I0
aI2
aI3
aI5
aI7
aI8
aI10
aa(lp382
I0
aI2
aI3
aI5
aI7
aI8
aI10
aa(lp383
I0
aI1
aI2
aI3
aI4
aI5
aI6
aI7
aI8
aI9
aI10
aI11
aaa(lp384
(lp385
(lp386
I0
aI0
aI0
aI0
aI0
aI0
aI0
aI0
aI0
aI0
aI0
aI0
aa(lp387
I0
aI0
aI0
aI0
aI0
aI0
aI0
aI0
aI0
aI0
aI0
aI0
aa(lp388
I0
aI0
aI0
aI0
aI0
aI0
aI0
aI0
aI0
aI0
aI0
aI0
aa(lp389
I0
aI0
aI0
aI0
aI0
aI0
aI0
aI0
aI0
aI0
aI0
aI0
aaa(lp390
(lp391
I0
aI0
aI0
aI0
aI0
aI0
aI0
aI0
aI0
aI0
aI0
aI0
aa(lp392
I0
aI0
aI0
aI0
aI0
aI0
aI0
aI0
aI0
aI0
aI0
aI0
aa(lp393
I0
aI0
aI0
aI0
aI0
aI0
aI0
aI0
aI0
aI0
aI0
aI0
aa(lp394
I0
aI0
aI0
aI0
aI0
aI0
aI0
aI0
aI0
aI0
aI0
aI0
aaa(lp395
(lp396
I0
aI0
aI0
aI0
aI0
aI0
aI0
aI0
aI0
aI0
aI0
aI0
aa(lp397
I0
aI0
aI0
aI0
aI0
aI0
aI0
aI0
aI0
aI0
aI0
aI0
aa(lp398
I0
aI0
aI0
aI0
aI0
aI0
aI0
aI0
aI0
aI0
aI0
aI0
aa(lp399
I0
aI0
aI0
aI0
aI0
aI0
aI0
aI0
aI0
aI0
aI0
aI0
aaa(lp400
(lp401
I0
aI0
aI0
aI0
aI0
aI0
aI0
aI0
aI0
aI0
aI0
aI0
aa(lp402
I0
aI0
aI0
aI0
aI0
aI0
aI0
aI0
aI0
aI0
aI0
aI0
aa(lp403
I0
aI0
aI0
aI0
aI0
aI0
aI0
aI0
aI0
aI0
aI0
aI0
aa(lp404
I0
aI0
aI0
aI0
aI0
aI0
aI0
aI0
aI0
aI0
aI0
aI0
aaaa(lp405
(lp406
I0
aI0
aI0
aI0
aI0
aI0
aI0
aI0
aI0
aI0
aI0
aI0
aa(lp407
I0
aI0
aI0
aI0
aI0
aI0
aI0
aI0
aI0
aI0
aI0
aI0
aa(lp408
I0
aI0
aI0
aI0
aI0
aI0
aI0
aI0
aI0
aI0
aI0
aI0
aa(lp409
I0
aI0
aI0
aI0
aI0
aI0
aI0
aI0
aI0
aI0
aI0
aI0
aaaa(lp410
(lp411
I0
aI0
aI0
aI0
aI0
aI0
aI0
aI0
aI0
a(lp412
(lp413
F0.0
aI60
aI62
aI1
aS'on'
p414
aa(lp415
F0.15427548821344
aI60
aI0
aI1
aS'off'
p416
aa(lp417
F0.51239117845322
aI70
aI15
aI1
aS'on'
p418
aa(lp419
F0.11168438208506
aI70
aI0
aI1
aS'off'
p420
aa(lp421
F0.22164895124827
aI72
aI42
aI1
aS'on'
p422
aa(lp423
F0.099718848756083
aI72
aI0
aI1
aS'off'
p424
aa(lp425
F0.23361448457725
aI70
aI13
aI1
aS'on'
p426
aa(lp427
F0.055303953092334
aI70
aI0
aI1
aS'off'
p428
aa(lp429
F0.278029380241
aI68
aI30
aI1
aS'on'
p430
aa(lp431
F0.055764529254247
aI68
aI0
aI1
aS'off'
p432
aa(lp433
F0.27756880407909
aI70
aI17
aI1
aS'on'
p434
aa(lp435
F0.055437413351683
aI70
aI0
aI1
aS'off'
p436
aa(lp437
F0.61122925331498
aI68
aI37
aI1
aS'on'
p438
aa(lp439
F0.099929479421462
aI68
aI0
aI1
aS'off'
p440
aa(lp441
F0.5667371872452
aI67
aI63
aI1
aS'on'
p442
aa(lp443
F0.11091619427816
aI67
aI0
aI1
aS'off'
p444
aa(lp445
F0.55575047238851
aI63
aI27
aI1
aS'on'
p446
aa(lp447
F0.056291614316706
aI63
aI0
aI1
aS'off'
p448
aa(lp449
F0.61037505234996
aI65
aI18
aI1
aS'on'
p450
aa(lp451
F0.11083116601094
aI65
aI0
aI1
aS'off'
p452
aa(lp453
F0.55583550065573
aI67
aI37
aI1
aS'on'
p454
aa(lp455
F0.055698167129322
aI67
aI0
aI1
aS'off'
p456
aa(lp457
F0.61096849953735
aI62
aI65
aI1
aS'on'
p458
aa(lp459
F0.1218651195029
aI62
aI0
aI1
aS'off'
p460
aa(lp461
F0.54480154716377
aI63
aI32
aI1
aS'on'
p462
aa(lp463
F0.11098680654004
aI63
aI0
aI1
aS'off'
p464
aa(lp465
F0.55567986012663
aI58
aI56
aI1
aS'on'
p466
aa(lp467
F0.14546234193767
aI58
aI0
aI1
aS'off'
p468
aa(lp469
F0.52120432472899
aI0
aI0
aI0
aS'timeAfterLastHit'
p470
aaaI0
aI0
aI0
aI0
aI0
aI0
aI0
a(lp471
(lp472
F0.052229667840038
aI24
aI66
aI2
aS'on'
p473
aa(lp474
F0.16725553435845
aI24
aI0
aI2
aS'off'
p475
aa(lp476
F0.5211804675273
aI26
aI70
aI2
aS'on'
p477
aa(lp478
F0.15578072168182
aI26
aI0
aI2
aS'off'
p479
aa(lp480
F0.51148019129664
aI27
aI49
aI2
aS'on'
p481
aa(lp482
F0.15526279632365
aI27
aI0
aI2
aS'off'
p483
aa(lp484
F0.50091458461236
aI29
aI73
aI2
aS'on'
p485
aa(lp486
F0.20027909063276
aI29
aI0
aI2
aS'off'
p487
aa(lp488
F0.46798512484065
aI31
aI67
aI2
aS'on'
p489
aa(lp490
F0.16680809363015
aI31
aI0
aI2
aS'off'
p491
aa(lp492
F0.45518333769655
aI32
aI37
aI2
aS'on'
p493
aa(lp494
F0.088648073506533
aI32
aI0
aI2
aS'off'
p495
aa(lp496
F0.55699231605308
aI0
aI0
aI0
aS'timeAfterLastHit'
p497
aaaI0
aI0
aI0
aI0
aI0
aI0
aI0
a(lp498
(lp499
F0.0011483490466162
aI60
aI66
aI1
aS'on'
p500
aa(lp501
F0.11975105676652
aI60
aI0
aI1
aS'off'
p502
aa(lp503
F0.566812787868
aI63
aI63
aI1
aS'on'
p504
aa(lp505
F0.16117614559903
aI63
aI0
aI1
aS'off'
p506
aa(lp507
F0.60969223655229
aI67
aI50
aI1
aS'on'
p508
aa(lp509
F0.057485834928457
aI67
aI0
aI1
aS'off'
p510
aa(lp511
F0.46032758200795
aI65
aI68
aI1
aS'on'
p512
aa(lp513
F0.10386763282008
aI65
aI0
aI1
aS'off'
p514
aa(lp515
F5.9179398994113
aI60
aI63
aI1
aS'on'
p516
aa(lp517
F0.17304154642807
aI60
aI0
aI1
aS'off'
p518
aa(lp519
F0.53127411806418
aI63
aI22
aI1
aS'on'
p520
aa(lp521
F0.057028544463492
aI63
aI0
aI1
aS'off'
p522
aa(lp523
F0.71401388710592
aI67
aI8
aI1
aS'on'
p524
aa(lp525
F0.058330223913799
aI67
aI0
aI1
aS'off'
p526
aa(lp527
F0.45984310760878
aI65
aI65
aI1
aS'on'
p528
aa(lp529
F0.12739166214897
aI65
aI0
aI1
aS'off'
p530
aa(lp531
F2.8565931925991
aI63
aI58
aI1
aS'on'
p532
aa(lp533
F0.15003750922597
aI63
aI0
aI1
aS'off'
p534
aa(lp535
F1.3925118175182
aI62
aI72
aI1
aS'on'
p536
aa(lp537
F0.10378254400007
aI62
aI0
aI1
aS'off'
p538
aa(lp539
F1.3779503219232
aI0
aI0
aI0
aS'timeAfterLastHit'
p540
aaaI0
aI0
aI0
aI0
aI0
aI0
aI0
a(lp541
(lp542
F0.0018557647754278
aI60
aI54
aI1
aS'on'
p543
aa(lp544
F0.14819820542175
aI60
aI0
aI1
aS'off'
p545
aa(lp546
F0.56496236206158
aI63
aI51
aI1
aS'on'
p547
aa(lp548
F0.057561929242183
aI63
aI0
aI1
aS'off'
p549
aa(lp550
F0.70016202407282
aI67
aI9
aI1
aS'on'
p551
aa(lp552
F0.057631425235741
aI67
aI0
aI1
aS'off'
p553
aa(lp554
F0.47326094388063
aI65
aI49
aI1
aS'on'
p555
aa(lp556
F0.057959119052384
aI65
aI0
aI1
aS'off'
p557
aa(lp558
F5.998500265212
aI60
aI46
aI1
aS'on'
p559
aa(lp560
F0.057931994582077
aI60
aI0
aI1
aS'off'
p561
aa(lp562
F0.64546275054067
aI63
aI23
aI1
aS'on'
p563
aa(lp564
F0.057536201078619
aI63
aI0
aI1
aS'off'
p565
aa(lp566
F0.74876473596692
aI67
aI15
aI1
aS'on'
p567
aa(lp568
F0.057841214821337
aI67
aI0
aI1
aS'off'
p569
aa(lp570
F0.54188993445882
aI65
aI56
aI1
aS'on'
p571
aa(lp572
F0.05807373953985
aI65
aI0
aI1
aS'off'
p573
aa(lp574
F2.7250662160059
aI63
aI47
aI1
aS'on'
p575
aa(lp576
F0.16044123895654
aI63
aI0
aI1
aS'off'
p577
aa(lp578
F1.405081833502
aI62
aI59
aI1
aS'on'
p579
aa(lp580
F0.18391567076469
aI62
aI0
aI1
aS'off'
p581
aa(lp582
F1.2979024308281
aI0
aI0
aI0
aS'timeAfterLastHit'
p583
aaa(lp584
(lp585
F0.047550249099686
aI60
aI7
aI1
aS'on'
p586
aa(lp587
F0.12753026493897
aI60
aI0
aI1
aS'off'
p588
aa(lp589
F0.56436942722166
aI63
aI22
aI1
aS'on'
p590
aa(lp591
F0.14894994703104
aI63
aI0
aI1
aS'off'
p592
aa(lp593
F0.56344752338941
aI67
aI16
aI1
aS'on'
p594
aa(lp595
F0.16072893100704
aI67
aI0
aI1
aS'off'
p596
aa(lp597
F0.33458547570513
aI65
aI51
aI1
aS'on'
p598
aa(lp599
F0.16138955809379
aI65
aI0
aI1
aS'off'
p600
aa(lp601
F5.8372587706945
aI60
aI42
aI1
aS'on'
p602
aa(lp603
F0.057182243921488
aI60
aI0
aI1
aS'off'
p604
aa(lp605
F0.71077732511117
aI63
aI48
aI1
aS'on'
p606
aa(lp607
F0.14916290363362
aI63
aI0
aI1
aS'off'
p608
aa(lp609
F0.5996471726603
aI67
aI7
aI1
aS'on'
p610
aa(lp611
F0.057245857366979
aI67
aI0
aI1
aS'off'
p612
aa(lp613
F0.4853727730324
aI65
aI43
aI1
aS'on'
p614
aa(lp615
F0.13843949013017
aI65
aI0
aI1
aS'off'
p616
aa(lp617
F2.8470103723168
aI63
aI31
aI1
aS'on'
p618
aa(lp619
F0.19624589859154
aI63
aI0
aI1
aS'off'
p620
aa(lp621
F1.3340692371596
aI62
aI13
aI1
aS'on'
p622
aa(lp623
F0.10414556834235
aI62
aI0
aI1
aS'off'
p624
aa(lp625
F1.3748910105523
aI0
aI0
aI0
aS'timeAfterLastHit'
p626
aaaI0
aI0
aI0
aI0
aI0
aI0
a(lp627
(lp628
F0.0
aI36
aI73
aI2
aS'on'
p629
aa(lp630
F0.16209079920759
aI36
aI0
aI2
aS'off'
p631
aa(lp632
F0.33790920079241
aI39
aI59
aI2
aS'on'
p633
aa(lp634
F0.13853119929422
aI39
aI0
aI2
aS'off'
p635
aa(lp636
F0.36146880070578
aI48
aI57
aI2
aS'on'
p637
aa(lp638
F0.11458383574262
aI48
aI0
aI2
aS'off'
p639
aa(lp640
F0.63541616425738
aI36
aI92
aI2
aS'on'
p641
aa(lp642
F0.17258552453217
aI36
aI0
aI2
aS'off'
p643
aa(lp644
F0.57741447546783
aI46
aI49
aI2
aS'on'
p645
aa(lp646
F0.057899207801711
aI46
aI0
aI2
aS'off'
p647
aa(lp648
F0.44210079219829
aI48
aI70
aI2
aS'on'
p649
aa(lp650
F0.13879452204748
aI48
aI0
aI2
aS'off'
p651
aa(lp652
F0.86120547795252
aI0
aI0
aI0
aS'timeAfterLastHit'
p653
aaa(lp654
(lp655
F0.0
aI46
aI31
aI2
aS'on'
p656
aa(lp657
F0.057994099399821
aI46
aI0
aI2
aS'off'
p658
aa(lp659
F0.69200590060018
aI44
aI36
aI2
aS'on'
p660
aa(lp661
F0.057959810598504
aI44
aI0
aI2
aS'off'
p662
aa(lp663
F0.6920401894015
aI43
aI19
aI2
aS'on'
p664
aa(lp665
F0.057541301782976
aI43
aI0
aI2
aS'off'
p666
aa(lp667
F0.69245869821702
aI41
aI54
aI2
aS'on'
p668
aa(lp669
F0.068885697392147
aI41
aI0
aI2
aS'off'
p670
aa(lp671
F0.68111430260785
aI39
aI78
aI2
aS'on'
p672
aa(lp673
F0.12736741398282
aI39
aI0
aI2
aS'off'
p674
aa(lp675
F0.37263258601718
aI38
aI66
aI2
aS'on'
p676
aa(lp677
F0.12749574646716
aI38
aI0
aI2
aS'off'
p678
aa(lp679
F0.37250425353284
aI0
aI0
aI0
aS'timeAfterLastHit'
p680
aaa(lp681
(lp682
F0.0
aI41
aI73
aI3
aS'on'
p683
aa(lp684
F0.34546006914763
aI41
aI0
aI3
aS'off'
p685
aa(lp686
F0.40453993085237
aI40
aI71
aI3
aS'on'
p687
aa(lp688
F0.17322590737331
aI40
aI0
aI3
aS'off'
p689
aa(lp690
F0.076774092626692
aI36
aI56
aI3
aS'on'
p691
aa(lp692
F0.13846759245553
aI36
aI0
aI3
aS'off'
p693
aa(lp694
F0.36153240754447
aI40
aI75
aI3
aS'on'
p695
aa(lp696
F0.18422577199681
aI40
aI0
aI3
aS'off'
p697
aa(lp698
F0.31577422800319
aI0
aI0
aI0
aS'timeAfterLastHit'
p699
aaa(lp700
(lp701
F0.0
aI41
aI89
aI3
aS'on'
p702
aa(lp703
F0.2672438899715
aI41
aI0
aI3
aS'off'
p704
aa(lp705
F0.4827561100285
aI40
aI69
aI3
aS'on'
p706
aa(lp707
F0.14960580597233
aI40
aI0
aI3
aS'off'
p708
aa(lp709
F0.10039419402767
aI36
aI73
aI3
aS'on'
p710
aa(lp711
F0.13805738880228
aI36
aI0
aI3
aS'off'
p712
aa(lp713
F0.36194261119772
aI40
aI72
aI3
aS'on'
p714
aa(lp715
F0.16156584953103
aI40
aI0
aI3
aS'off'
p716
aa(lp717
F0.33843415046897
aI41
aI101
aI3
aS'on'
p718
aa(lp719
F0.10423174513608
aI41
aI0
aI3
aS'off'
p720
aa(lp721
F0.14576825486392
aI41
aI85
aI3
aS'on'
p722
aa(lp723
F0.15037308534829
aI41
aI0
aI3
aS'off'
p724
aa(lp725
F0.34962691465171
aI40
aI80
aI3
aS'on'
p726
aa(lp727
F0.15043154523278
aI40
aI0
aI3
aS'off'
p728
aa(lp729
F0.099568454767223
aI36
aI96
aI3
aS'on'
p730
aa(lp731
F0.11502134005627
aI36
aI0
aI3
aS'off'
p732
aa(lp733
F0.38497865994373
aI40
aI89
aI3
aS'on'
p734
aa(lp735
F0.16109573682945
aI40
aI0
aI3
aS'off'
p736
aa(lp737
F0.33890426317055
aI0
aI0
aI0
aS'timeAfterLastHit'
p738
aaa(lp739
(lp740
F0.0
aI41
aI94
aI3
aS'on'
p741
aa(lp742
F0.18511987082456
aI41
aI0
aI3
aS'off'
p743
aa(lp744
F0.56488012917544
aI40
aI65
aI3
aS'on'
p745
aa(lp746
F0.13714021787735
aI40
aI0
aI3
aS'off'
p747
aa(lp748
F0.11285978212265
aI36
aI73
aI3
aS'on'
p749
aa(lp750
F0.12599255176031
aI36
aI0
aI3
aS'off'
p751
aa(lp752
F0.37400744823969
aI40
aI96
aI3
aS'on'
p753
aa(lp754
F0.18442611779119
aI40
aI0
aI3
aS'off'
p755
aa(lp756
F0.31557388220881
aI45
aI73
aI3
aS'on'
p757
aa(lp758
F0.13820869647941
aI45
aI0
aI3
aS'off'
p759
aa(lp760
F0.61179130352059
aI45
aI96
aI3
aS'on'
p761
aa(lp762
F0.1153076115736
aI45
aI0
aI3
aS'off'
p763
aa(lp764
F0.6346923884264
aI45
aI78
aI3
aS'on'
p765
aa(lp766
F0.11532531427679
aI45
aI0
aI3
aS'off'
p767
aa(lp768
F0.38467468572321
aI0
aI0
aI0
aS'timeAfterLastHit'
p769
aaaI0
aI0
aI0
aI0
aI0
aI0
aI0
aI0
aI0
aI0
aI0
aI0
aI0
aI0
aI0
aI0
aI0
aI0
aI0
aI0
aI0
aI0
aI0
aI0
aI0
aI0
aI0
aI0
aI0
aI0
aI0
aI0
aI0
aI0
aI0
aI0
aI0
aI0
aI0
aI0
aI0
aI0
aI0
aI0
aI0
aI0
aI0
aI0
aI0
aI0
aI0
aI0
aI0
aI0
aa(lp770
(dp771
a(dp772
a(dp773
a(dp774
a(dp775
a(dp776
a(dp777
a(dp778
a(dp779
a(dp780
S'button'
p781
I41
sS'playing'
p782
I01
sa(dp783
a(dp784
a(dp785
a(dp786
a(dp787
a(dp788
a(dp789
a(dp790
g781
I51
sg782
I01
sa(dp791
a(dp792
a(dp793
a(dp794
a(dp795
a(dp796
a(dp797
a(dp798
g781
I61
sg782
I0
sa(dp799
a(dp800
a(dp801
a(dp802
a(dp803
a(dp804
a(dp805
a(dp806
g781
I71
sg782
I0
sa(dp807
g781
I72
sg782
I0
sa(dp808
a(dp809
a(dp810
a(dp811
a(dp812
a(dp813
a(dp814
g781
I81
sg782
I0
sa(dp815
g781
I82
sg782
I0
sa(dp816
g781
I83
sg782
I1
sa(dp817
g781
I84
sg782
I0
sa(dp818
g781
I85
sg782
I0
sa(dp819
a(dp820
a(dp821
a(dp822
a(dp823
a(dp824
a(dp825
a(dp826
a(dp827
a(dp828
a(dp829
a(dp830
a(dp831
a(dp832
a(dp833
a(dp834
a(dp835
a(dp836
a(dp837
a(dp838
a(dp839
a(dp840
a(dp841
a(dp842
a(dp843
a(dp844
a(dp845
a(dp846
a(dp847
a(dp848
a(dp849
a(dp850
a(dp851
a(dp852
a(dp853
a(dp854
a(dp855
a(dp856
a(dp857
a(dp858
a(dp859
a(dp860
a(dp861
a(dp862
a(dp863
a(dp864
a(dp865
a(dp866
a(dp867
a(dp868
a(dp869
a(dp870
a(dp871
a(dp872
aa(lp873
I60
aI60
aI36
aI36
aa(lp874
(lp875
I0
aI2
aI3
aI5
aI7
aI8
aI10
aa(lp876
I0
aI2
aI3
aI5
aI7
aI8
aI10
aa(lp877
I0
aI2
aI3
aI5
aI7
aI8
aI10
aa(lp878
I0
aI1
aI2
aI3
aI4
aI5
aI6
aI7
aI8
aI9
aI10
aI11
aaa(lp879
(lp880
(lp881
I0
aI0
aI0
aI0
aI0
aI0
aI0
aI0
aI0
aI0
aI0
aI0
aa(lp882
I0
aI0
aI0
aI0
aI0
aI0
aI0
aI0
aI0
aI0
aI0
aI0
aa(lp883
I0
aI0
aI0
aI0
aI0
aI0
aI0
aI0
aI0
aI0
aI0
aI0
aa(lp884
I0
aI0
aI0
aI0
aI0
aI0
aI0
aI0
aI0
aI0
aI0
aI0
aaa(lp885
(lp886
I0
aI0
aI0
aI0
aI0
aI0
aI0
aI0
aI0
aI0
aI0
aI0
aa(lp887
I0
aI0
aI0
aI0
aI0
aI0
aI0
aI0
aI0
aI0
aI0
aI0
aa(lp888
I0
aI0
aI0
aI0
aI0
aI0
aI0
aI0
aI0
aI0
aI0
aI0
aa(lp889
I0
aI0
aI0
aI0
aI0
aI0
aI0
aI0
aI0
aI0
aI0
aI0
aaa(lp890
(lp891
I0
aI0
aI0
aI0
aI0
aI0
aI0
aI0
aI0
aI0
aI0
aI0
aa(lp892
I0
aI0
aI0
aI0
aI0
aI0
aI0
aI0
aI0
aI0
aI0
aI0
aa(lp893
I0
aI0
aI0
aI0
aI0
aI0
aI0
aI0
aI0
aI0
aI0
aI0
aa(lp894
I0
aI0
aI0
aI0
aI0
aI0
aI0
aI0
aI0
aI0
aI0
aI0
aaa(lp895
(lp896
I0
aI0
aI0
aI0
aI0
aI0
aI0
aI0
aI0
aI0
aI0
aI0
aa(lp897
I0
aI0
aI0
aI0
aI0
aI0
aI0
aI0
aI0
aI0
aI0
aI0
aa(lp898
I0
aI0
aI0
aI0
aI0
aI0
aI0
aI0
aI0
aI0
aI0
aI0
aa(lp899
I0
aI0
aI0
aI0
aI0
aI0
aI0
aI0
aI0
aI0
aI0
aI0
aaaa(lp900
(lp901
I0
aI0
aI0
aI0
aI0
aI0
aI0
aI0
aI0
aI0
aI0
aI0
aa(lp902
I0
aI0
aI0
aI0
aI0
aI0
aI0
aI0
aI0
aI0
aI0
aI0
aa(lp903
I0
aI0
aI0
aI0
aI0
aI0
aI0
aI0
aI0
aI0
aI0
aI0
aa(lp904
I0
aI0
aI0
aI0
aI0
aI0
aI0
aI0
aI0
aI0
aI0
aI0
aaaa(lp905
(lp906
I0
aI0
aI0
aI0
aI0
aI0
aI0
aI0
aI0
a(lp907
(lp908
F0.0
aI60
aI62
aI1
ag414
aa(lp909
F0.15427548821344
aI60
aI0
aI1
ag416
aa(lp910
F0.51239117845322
aI70
aI15
aI1
ag418
aa(lp911
F0.11168438208506
aI70
aI0
aI1
ag420
aa(lp912
F0.22164895124827
aI72
aI42
aI1
ag422
aa(lp913
F0.099718848756083
aI72
aI0
aI1
ag424
aa(lp914
F0.23361448457725
aI70
aI13
aI1
ag426
aa(lp915
F0.055303953092334
aI70
aI0
aI1
ag428
aa(lp916
F0.278029380241
aI68
aI30
aI1
ag430
aa(lp917
F0.055764529254247
aI68
aI0
aI1
ag432
aa(lp918
F0.27756880407909
aI70
aI17
aI1
ag434
aa(lp919
F0.055437413351683
aI70
aI0
aI1
ag436
aa(lp920
F0.61122925331498
aI68
aI37
aI1
ag438
aa(lp921
F0.099929479421462
aI68
aI0
aI1
ag440
aa(lp922
F0.5667371872452
aI67
aI63
aI1
ag442
aa(lp923
F0.11091619427816
aI67
aI0
aI1
ag444
aa(lp924
F0.55575047238851
aI63
aI27
aI1
ag446
aa(lp925
F0.056291614316706
aI63
aI0
aI1
ag448
aa(lp926
F0.61037505234996
aI65
aI18
aI1
ag450
aa(lp927
F0.11083116601094
aI65
aI0
aI1
ag452
aa(lp928
F0.55583550065573
aI67
aI37
aI1
ag454
aa(lp929
F0.055698167129322
aI67
aI0
aI1
ag456
aa(lp930
F0.61096849953735
aI62
aI65
aI1
ag458
aa(lp931
F0.1218651195029
aI62
aI0
aI1
ag460
aa(lp932
F0.54480154716377
aI63
aI32
aI1
ag462
aa(lp933
F0.11098680654004
aI63
aI0
aI1
ag464
aa(lp934
F0.55567986012663
aI58
aI56
aI1
ag466
aa(lp935
F0.14546234193767
aI58
aI0
aI1
ag468
aa(lp936
F0.52120432472899
aI0
aI0
aI0
ag470
aaaI0
aI0
aI0
aI0
aI0
aI0
aI0
a(lp937
(lp938
F0.052229667840038
aI24
aI66
aI2
ag473
aa(lp939
F0.16725553435845
aI24
aI0
aI2
ag475
aa(lp940
F0.5211804675273
aI26
aI70
aI2
ag477
aa(lp941
F0.15578072168182
aI26
aI0
aI2
ag479
aa(lp942
F0.51148019129664
aI27
aI49
aI2
ag481
aa(lp943
F0.15526279632365
aI27
aI0
aI2
ag483
aa(lp944
F0.50091458461236
aI29
aI73
aI2
ag485
aa(lp945
F0.20027909063276
aI29
aI0
aI2
ag487
aa(lp946
F0.46798512484065
aI31
aI67
aI2
ag489
aa(lp947
F0.16680809363015
aI31
aI0
aI2
ag491
aa(lp948
F0.45518333769655
aI32
aI37
aI2
ag493
aa(lp949
F0.088648073506533
aI32
aI0
aI2
ag495
aa(lp950
F0.55699231605308
aI0
aI0
aI0
ag497
aaa(lp951
(lp952
F0.33333333333333
aI24
aI48
aI2
aS'on'
p953
aa(lp954
F0.057636505196115
aI24
aI0
aI2
aS'off'
p955
aa(lp956
F0.85903016147055
aI26
aI63
aI2
aS'on'
p957
aa(lp958
F0.14927419271498
aI26
aI0
aI2
aS'off'
p959
aa(lp960
F0.35072580728502
aI27
aI72
aI2
aS'on'
p961
aa(lp962
F0.081221463263546
aI27
aI0
aI2
aS'off'
p963
aa(lp964
F0.66877853673645
aI29
aI78
aI2
aS'on'
p965
aa(lp966
F0.13871095767422
aI29
aI0
aI2
aS'off'
p967
aa(lp968
F0.61128904232578
aI31
aI71
aI2
aS'on'
p969
aa(lp970
F0.12655007944522
aI31
aI0
aI2
aS'off'
p971
aa(lp972
F0.37344992055478
aI32
aI92
aI2
aS'on'
p973
aa(lp974
F0.13806894846562
aI32
aI0
aI2
aS'off'
p975
aa(lp976
F0.11193105153438
aI0
aI0
aI0
aS'timeAfterLastHit'
p977
aaaI0
aI0
aI0
aI0
aI0
aI0
a(lp978
(lp979
F0.0011483490466162
aI60
aI66
aI1
ag500
aa(lp980
F0.11975105676652
aI60
aI0
aI1
ag502
aa(lp981
F0.566812787868
aI63
aI63
aI1
ag504
aa(lp982
F0.16117614559903
aI63
aI0
aI1
ag506
aa(lp983
F0.60969223655229
aI67
aI50
aI1
ag508
aa(lp984
F0.057485834928457
aI67
aI0
aI1
ag510
aa(lp985
F0.46032758200795
aI65
aI68
aI1
ag512
aa(lp986
F0.10386763282008
aI65
aI0
aI1
ag514
aa(lp987
F5.9179398994113
aI60
aI63
aI1
ag516
aa(lp988
F0.17304154642807
aI60
aI0
aI1
ag518
aa(lp989
F0.53127411806418
aI63
aI22
aI1
ag520
aa(lp990
F0.057028544463492
aI63
aI0
aI1
ag522
aa(lp991
F0.71401388710592
aI67
aI8
aI1
ag524
aa(lp992
F0.058330223913799
aI67
aI0
aI1
ag526
aa(lp993
F0.45984310760878
aI65
aI65
aI1
ag528
aa(lp994
F0.12739166214897
aI65
aI0
aI1
ag530
aa(lp995
F2.8565931925991
aI63
aI58
aI1
ag532
aa(lp996
F0.15003750922597
aI63
aI0
aI1
ag534
aa(lp997
F1.3925118175182
aI62
aI72
aI1
ag536
aa(lp998
F0.10378254400007
aI62
aI0
aI1
ag538
aa(lp999
F1.3779503219232
aI0
aI0
aI0
ag540
aaaI0
aI0
aI0
aI0
aI0
aI0
aI0
a(lp1000
(lp1001
F0.0018557647754278
aI60
aI54
aI1
ag543
aa(lp1002
F0.14819820542175
aI60
aI0
aI1
ag545
aa(lp1003
F0.56496236206158
aI63
aI51
aI1
ag547
aa(lp1004
F0.057561929242183
aI63
aI0
aI1
ag549
aa(lp1005
F0.70016202407282
aI67
aI9
aI1
ag551
aa(lp1006
F0.057631425235741
aI67
aI0
aI1
ag553
aa(lp1007
F0.47326094388063
aI65
aI49
aI1
ag555
aa(lp1008
F0.057959119052384
aI65
aI0
aI1
ag557
aa(lp1009
F5.998500265212
aI60
aI46
aI1
ag559
aa(lp1010
F0.057931994582077
aI60
aI0
aI1
ag561
aa(lp1011
F0.64546275054067
aI63
aI23
aI1
ag563
aa(lp1012
F0.057536201078619
aI63
aI0
aI1
ag565
aa(lp1013
F0.74876473596692
aI67
aI15
aI1
ag567
aa(lp1014
F0.057841214821337
aI67
aI0
aI1
ag569
aa(lp1015
F0.54188993445882
aI65
aI56
aI1
ag571
aa(lp1016
F0.05807373953985
aI65
aI0
aI1
ag573
aa(lp1017
F2.7250662160059
aI63
aI47
aI1
ag575
aa(lp1018
F0.16044123895654
aI63
aI0
aI1
ag577
aa(lp1019
F1.405081833502
aI62
aI59
aI1
ag579
aa(lp1020
F0.18391567076469
aI62
aI0
aI1
ag581
aa(lp1021
F1.2979024308281
aI0
aI0
aI0
ag583
aaa(lp1022
(lp1023
F0.047550249099686
aI60
aI7
aI1
ag586
aa(lp1024
F0.12753026493897
aI60
aI0
aI1
ag588
aa(lp1025
F0.56436942722166
aI63
aI22
aI1
ag590
aa(lp1026
F0.14894994703104
aI63
aI0
aI1
ag592
aa(lp1027
F0.56344752338941
aI67
aI16
aI1
ag594
aa(lp1028
F0.16072893100704
aI67
aI0
aI1
ag596
aa(lp1029
F0.33458547570513
aI65
aI51
aI1
ag598
aa(lp1030
F0.16138955809379
aI65
aI0
aI1
ag600
aa(lp1031
F5.8372587706945
aI60
aI42
aI1
ag602
aa(lp1032
F0.057182243921488
aI60
aI0
aI1
ag604
aa(lp1033
F0.71077732511117
aI63
aI48
aI1
ag606
aa(lp1034
F0.14916290363362
aI63
aI0
aI1
ag608
aa(lp1035
F0.5996471726603
aI67
aI7
aI1
ag610
aa(lp1036
F0.057245857366979
aI67
aI0
aI1
ag612
aa(lp1037
F0.4853727730324
aI65
aI43
aI1
ag614
aa(lp1038
F0.13843949013017
aI65
aI0
aI1
ag616
aa(lp1039
F2.8470103723168
aI63
aI31
aI1
ag618
aa(lp1040
F0.19624589859154
aI63
aI0
aI1
ag620
aa(lp1041
F1.3340692371596
aI62
aI13
aI1
ag622
aa(lp1042
F0.10414556834235
aI62
aI0
aI1
ag624
aa(lp1043
F1.3748910105523
aI0
aI0
aI0
ag626
aaaI0
aI0
aI0
aI0
aI0
aI0
a(lp1044
(lp1045
F0.0
aI36
aI73
aI2
ag629
aa(lp1046
F0.16209079920759
aI36
aI0
aI2
ag631
aa(lp1047
F0.33790920079241
aI39
aI59
aI2
ag633
aa(lp1048
F0.13853119929422
aI39
aI0
aI2
ag635
aa(lp1049
F0.36146880070578
aI48
aI57
aI2
ag637
aa(lp1050
F0.11458383574262
aI48
aI0
aI2
ag639
aa(lp1051
F0.63541616425738
aI36
aI92
aI2
ag641
aa(lp1052
F0.17258552453217
aI36
aI0
aI2
ag643
aa(lp1053
F0.57741447546783
aI46
aI49
aI2
ag645
aa(lp1054
F0.057899207801711
aI46
aI0
aI2
ag647
aa(lp1055
F0.44210079219829
aI48
aI70
aI2
ag649
aa(lp1056
F0.13879452204748
aI48
aI0
aI2
ag651
aa(lp1057
F0.86120547795252
aI0
aI0
aI0
ag653
aaa(lp1058
(lp1059
F0.0
aI46
aI31
aI2
ag656
aa(lp1060
F0.057994099399821
aI46
aI0
aI2
ag658
aa(lp1061
F0.69200590060018
aI44
aI36
aI2
ag660
aa(lp1062
F0.057959810598504
aI44
aI0
aI2
ag662
aa(lp1063
F0.6920401894015
aI43
aI19
aI2
ag664
aa(lp1064
F0.057541301782976
aI43
aI0
aI2
ag666
aa(lp1065
F0.69245869821702
aI41
aI54
aI2
ag668
aa(lp1066
F0.068885697392147
aI41
aI0
aI2
ag670
aa(lp1067
F0.68111430260785
aI39
aI78
aI2
ag672
aa(lp1068
F0.12736741398282
aI39
aI0
aI2
ag674
aa(lp1069
F0.37263258601718
aI38
aI66
aI2
ag676
aa(lp1070
F0.12749574646716
aI38
aI0
aI2
ag678
aa(lp1071
F0.37250425353284
aI0
aI0
aI0
ag680
aaa(lp1072
(lp1073
F0.0
aI41
aI73
aI3
ag683
aa(lp1074
F0.34546006914763
aI41
aI0
aI3
ag685
aa(lp1075
F0.40453993085237
aI40
aI71
aI3
ag687
aa(lp1076
F0.17322590737331
aI40
aI0
aI3
ag689
aa(lp1077
F0.076774092626692
aI36
aI56
aI3
ag691
aa(lp1078
F0.13846759245553
aI36
aI0
aI3
ag693
aa(lp1079
F0.36153240754447
aI40
aI75
aI3
ag695
aa(lp1080
F0.18422577199681
aI40
aI0
aI3
ag697
aa(lp1081
F0.31577422800319
aI0
aI0
aI0
ag699
aaa(lp1082
(lp1083
F0.0
aI41
aI89
aI3
ag702
aa(lp1084
F0.2672438899715
aI41
aI0
aI3
ag704
aa(lp1085
F0.4827561100285
aI40
aI69
aI3
ag706
aa(lp1086
F0.14960580597233
aI40
aI0
aI3
ag708
aa(lp1087
F0.10039419402767
aI36
aI73
aI3
ag710
aa(lp1088
F0.13805738880228
aI36
aI0
aI3
ag712
aa(lp1089
F0.36194261119772
aI40
aI72
aI3
ag714
aa(lp1090
F0.16156584953103
aI40
aI0
aI3
ag716
aa(lp1091
F0.33843415046897
aI41
aI101
aI3
ag718
aa(lp1092
F0.10423174513608
aI41
aI0
aI3
ag720
aa(lp1093
F0.14576825486392
aI41
aI85
aI3
ag722
aa(lp1094
F0.15037308534829
aI41
aI0
aI3
ag724
aa(lp1095
F0.34962691465171
aI40
aI80
aI3
ag726
aa(lp1096
F0.15043154523278
aI40
aI0
aI3
ag728
aa(lp1097
F0.099568454767223
aI36
aI96
aI3
ag730
aa(lp1098
F0.11502134005627
aI36
aI0
aI3
ag732
aa(lp1099
F0.38497865994373
aI40
aI89
aI3
ag734
aa(lp1100
F0.16109573682945
aI40
aI0
aI3
ag736
aa(lp1101
F0.33890426317055
aI0
aI0
aI0
ag738
aaa(lp1102
(lp1103
F0.0
aI41
aI94
aI3
ag741
aa(lp1104
F0.18511987082456
aI41
aI0
aI3
ag743
aa(lp1105
F0.56488012917544
aI40
aI65
aI3
ag745
aa(lp1106
F0.13714021787735
aI40
aI0
aI3
ag747
aa(lp1107
F0.11285978212265
aI36
aI73
aI3
ag749
aa(lp1108
F0.12599255176031
aI36
aI0
aI3
ag751
aa(lp1109
F0.37400744823969
aI40
aI96
aI3
ag753
aa(lp1110
F0.18442611779119
aI40
aI0
aI3
ag755
aa(lp1111
F0.31557388220881
aI45
aI73
aI3
ag757
aa(lp1112
F0.13820869647941
aI45
aI0
aI3
ag759
aa(lp1113
F0.61179130352059
aI45
aI96
aI3
ag761
aa(lp1114
F0.1153076115736
aI45
aI0
aI3
ag763
aa(lp1115
F0.6346923884264
aI45
aI78
aI3
ag765
aa(lp1116
F0.11532531427679
aI45
aI0
aI3
ag767
aa(lp1117
F0.38467468572321
aI0
aI0
aI0
ag769
aaaI0
aI0
aI0
aI0
aI0
aI0
aI0
aI0
aI0
aI0
aI0
aI0
aI0
aI0
aI0
aI0
aI0
aI0
aI0
aI0
aI0
aI0
aI0
aI0
aI0
aI0
aI0
aI0
aI0
aI0
aI0
aI0
aI0
aI0
aI0
aI0
aI0
aI0
aI0
aI0
aI0
aI0
aI0
aI0
aI0
aI0
aI0
aI0
aI0
aI0
aI0
aI0
aI0
aI0
aa(lp1118
(dp1119
a(dp1120
a(dp1121
a(dp1122
a(dp1123
a(dp1124
a(dp1125
a(dp1126
a(dp1127
a(dp1128
g781
I41
sg782
I1
sa(dp1129
a(dp1130
a(dp1131
a(dp1132
a(dp1133
a(dp1134
a(dp1135
a(dp1136
g781
I51
sg782
I1
sa(dp1137
g781
I52
sg782
I0
sa(dp1138
a(dp1139
a(dp1140
a(dp1141
a(dp1142
a(dp1143
a(dp1144
g781
I61
sg782
I0
sa(dp1145
a(dp1146
a(dp1147
a(dp1148
a(dp1149
a(dp1150
a(dp1151
a(dp1152
g781
I71
sg782
I0
sa(dp1153
g781
I72
sg782
I0
sa(dp1154
a(dp1155
a(dp1156
a(dp1157
a(dp1158
a(dp1159
a(dp1160
g781
I81
sg782
I0
sa(dp1161
g781
I82
sg782
I0
sa(dp1162
g781
I83
sg782
I1
sa(dp1163
g781
I84
sg782
I0
sa(dp1164
g781
I85
sg782
I0
sa(dp1165
a(dp1166
a(dp1167
a(dp1168
a(dp1169
a(dp1170
a(dp1171
a(dp1172
a(dp1173
a(dp1174
a(dp1175
a(dp1176
a(dp1177
a(dp1178
a(dp1179
a(dp1180
a(dp1181
a(dp1182
a(dp1183
a(dp1184
a(dp1185
a(dp1186
a(dp1187
a(dp1188
a(dp1189
a(dp1190
a(dp1191
a(dp1192
a(dp1193
a(dp1194
a(dp1195
a(dp1196
a(dp1197
a(dp1198
a(dp1199
a(dp1200
a(dp1201
a(dp1202
a(dp1203
a(dp1204
a(dp1205
a(dp1206
a(dp1207
a(dp1208
a(dp1209
a(dp1210
a(dp1211
a(dp1212
a(dp1213
a(dp1214
a(dp1215
a(dp1216
a(dp1217
a(dp1218
aa(lp1219
I60
aI60
aI36
aI36
aa(lp1220
(lp1221
I0
aI2
aI3
aI5
aI7
aI8
aI10
aa(lp1222
I0
aI2
aI3
aI5
aI7
aI8
aI10
aa(lp1223
I0
aI2
aI3
aI5
aI7
aI8
aI10
aa(lp1224
I0
aI1
aI2
aI3
aI4
aI5
aI6
aI7
aI8
aI9
aI10
aI11
aaa(lp1225
(lp1226
(lp1227
I0
aI0
aI0
aI0
aI0
aI0
aI0
aI0
aI0
aI0
aI0
aI0
aa(lp1228
I0
aI0
aI0
aI0
aI0
aI0
aI0
aI0
aI0
aI0
aI0
aI0
aa(lp1229
I0
aI0
aI0
aI0
aI0
aI0
aI0
aI0
aI0
aI0
aI0
aI0
aa(lp1230
I0
aI0
aI0
aI0
aI0
aI0
aI0
aI0
aI0
aI0
aI0
aI0
aaa(lp1231
(lp1232
I0
aI0
aI0
aI0
aI0
aI0
aI0
aI0
aI0
aI0
aI0
aI0
aa(lp1233
I0
aI0
aI0
aI0
aI0
aI0
aI0
aI0
aI0
aI0
aI0
aI0
aa(lp1234
I0
aI0
aI0
aI0
aI0
aI0
aI0
aI0
aI0
aI0
aI0
aI0
aa(lp1235
I0
aI0
aI0
aI0
aI0
aI0
aI0
aI0
aI0
aI0
aI0
aI0
aaa(lp1236
(lp1237
I0
aI0
aI0
aI0
aI0
aI0
aI0
aI0
aI0
aI0
aI0
aI0
aa(lp1238
I0
aI0
aI0
aI0
aI0
aI0
aI0
aI0
aI0
aI0
aI0
aI0
aa(lp1239
I0
aI0
aI0
aI0
aI0
aI0
aI0
aI0
aI0
aI0
aI0
aI0
aa(lp1240
I0
aI0
aI0
aI0
aI0
aI0
aI0
aI0
aI0
aI0
aI0
aI0
aaa(lp1241
(lp1242
I0
aI0
aI0
aI0
aI0
aI0
aI0
aI0
aI0
aI0
aI0
aI0
aa(lp1243
I0
aI0
aI0
aI0
aI0
aI0
aI0
aI0
aI0
aI0
aI0
aI0
aa(lp1244
I0
aI0
aI0
aI0
aI0
aI0
aI0
aI0
aI0
aI0
aI0
aI0
aa(lp1245
I0
aI0
aI0
aI0
aI0
aI0
aI0
aI0
aI0
aI0
aI0
aI0
aaaa(lp1246
(lp1247
I0
aI0
aI0
aI0
aI0
aI0
aI0
aI0
aI0
aI0
aI0
aI0
aa(lp1248
I0
aI0
aI0
aI0
aI0
aI0
aI0
aI0
aI0
aI0
aI0
aI0
aa(lp1249
I0
aI0
aI0
aI0
aI0
aI0
aI0
aI0
aI0
aI0
aI0
aI0
aa(lp1250
I0
aI0
aI0
aI0
aI0
aI0
aI0
aI0
aI0
aI0
aI0
aI0
aaaaI0
aI0
aI0
aI0
aI0
aI0
aI0
aI0
aI0
aI0
aI0
aI0
aI0
aI0
aI0
aI0
aI0
aI0
aI0
aI0
aI0
aI0
aI0
aI0
aI0
aI0
aI0
aI0
a.